
E:/ubuntu/diy-x86os/start/start/build/source/kernel/kernel.elf:     file format elf32-i386
E:/ubuntu/diy-x86os/start/start/build/source/kernel/kernel.elf
architecture: i386, flags 0x00000112:
EXEC_P, HAS_SYMS, D_PAGED
start address 0x00010000

Program Header:
    LOAD off    0x00001000 vaddr 0x00010000 paddr 0x00010000 align 2**12
         filesz 0x000098d5 memsz 0x000098d5 flags r-x
    LOAD off    0x0000b000 vaddr 0x0001a000 paddr 0x0001a000 align 2**12
         filesz 0x00000178 memsz 0x000468f0 flags rw-
    LOAD off    0x0000c000 vaddr 0x80000000 paddr 0x000608f0 align 2**12
         filesz 0x0000035f memsz 0x0000035f flags rwx

Sections:
Idx Name          Size      VMA       LMA       File off  Algn
  0 .text         00008b33  00010000  00010000  00001000  2**0
                  CONTENTS, ALLOC, LOAD, READONLY, CODE
  1 .rodata       00000d95  00018b40  00018b40  00009b40  2**5
                  CONTENTS, ALLOC, LOAD, READONLY, DATA
  2 .data         00000178  0001a000  0001a000  0000b000  2**5
                  CONTENTS, ALLOC, LOAD, DATA
  3 .bss          000458f0  0001b000  0001b000  0000b178  2**12
                  ALLOC
  4 .first_task   0000035f  80000000  000608f0  0000c000  2**0
                  CONTENTS, ALLOC, LOAD, CODE
  5 .debug_line   0000506a  00000000  00000000  0000c35f  2**0
                  CONTENTS, READONLY, DEBUGGING
  6 .debug_info   0001332b  00000000  00000000  000113c9  2**0
                  CONTENTS, READONLY, DEBUGGING
  7 .debug_abbrev 0000324f  00000000  00000000  000246f4  2**0
                  CONTENTS, READONLY, DEBUGGING
  8 .debug_aranges 00000340  00000000  00000000  00027948  2**3
                  CONTENTS, READONLY, DEBUGGING
  9 .debug_ranges 000000c0  00000000  00000000  00027c88  2**0
                  CONTENTS, READONLY, DEBUGGING
 10 .debug_str    00002ec6  00000000  00000000  00027d48  2**0
                  CONTENTS, READONLY, DEBUGGING
 11 .comment      00000011  00000000  00000000  0002ac0e  2**0
                  CONTENTS, READONLY
 12 .debug_frame  00002d00  00000000  00000000  0002ac20  2**2
                  CONTENTS, READONLY, DEBUGGING
SYMBOL TABLE:
00010000 l    d  .text	00000000 .text
00018b40 l    d  .rodata	00000000 .rodata
0001a000 l    d  .data	00000000 .data
0001b000 l    d  .bss	00000000 .bss
80000000 l    d  .first_task	00000000 .first_task
00000000 l    d  .debug_line	00000000 .debug_line
00000000 l    d  .debug_info	00000000 .debug_info
00000000 l    d  .debug_abbrev	00000000 .debug_abbrev
00000000 l    d  .debug_aranges	00000000 .debug_aranges
00000000 l    d  .debug_ranges	00000000 .debug_ranges
00000000 l    d  .debug_str	00000000 .debug_str
00000000 l    d  .comment	00000000 .comment
00000000 l    d  .debug_frame	00000000 .debug_frame
00000000 l    df *ABS*	00000000 source/kernel/CMakeFiles/kernel.dir/init/start.S.obj
00010013 l       .text	00000000 gdt_reload
00010496 l       .text	00000000 skip_save_tss
000104a1 l       .text	00000000 switch_to_kernel_task
000104e2 l       .text	00000000 switch_to_user_task
000104ad l       .text	00000000 skip_page_dir_kernel
000104f1 l       .text	00000000 skip_change
000104fd l       .text	00000000 skip_page_dir_user
0001059e l       .text	00000000 skip_page_dir_int
000105a5 l       .text	00000000 modify_for_kernel
000105c8 l       .text	00000000 modify_for_user
000105fa l       .text	00000000 restore_registers
00000000 l    df *ABS*	00000000 memory.c
00010631 l     F .text	0000000d down2
0001063e l     F .text	00000017 up2
00010655 l     F .text	0000000c write_cr3
00010661 l     F .text	0000000b pde_index
0001066c l     F .text	00000010 pte_index
0001067c l     F .text	00000010 pde_paddr
0001068c l     F .text	00000010 pte_paddr
0001069c l     F .text	00000011 mmu_set_page_dir
000106ad l     F .text	0000000f get_pte_perm
0001b000 l     O .bss	00000028 paddr_alloc
0001c000 l     O .bss	00001000 kernel_page_dir
000106bc l     F .text	00000055 addr_alloc_init
00010711 l     F .text	00000067 addr_alloc_page
00010778 l     F .text	00000062 addr_free_page
00010840 l     F .text	0000003a total_mem_size
0001a000 l     O .data	00000050 kernel_map.2616
00010b71 l     F .text	00000013 current_page_dir
00000000 l    df *ABS*	00000000 syscall.c
00018ba0 l     O .rodata	00000194 sys_handler_table
00000000 l    df *ABS*	00000000 task.c
00011198 l     F .text	0000001b list_node_init
000111b3 l     F .text	0000000b list_node_next
000111be l     F .text	0000000b list_count
000111c9 l     F .text	0000000a list_first
000111d3 l     F .text	00000011 read_cr3
000111e4 l     F .text	0000000c write_cr3
000111f0 l     F .text	00000007 hlt
000111f7 l     F .text	00000017 write_tr
0001120e l     F .text	00000011 mmu_set_page_dir
0001d020 l     O .bss	00000648 task_manager
0001d680 l     O .bss	00001000 idle_task_stack
0001e680 l     O .bss	00001000 kernel_stack
0001f680 l     O .bss	00016a00 task_table
00036080 l     O .bss	00000014 task_table_mutex
000112ce l     F .text	00000128 tss_init
000116b7 l     F .text	0000000a idle_task_entry
000116c1 l     F .text	0000004c global_tss_init
0001170d l     F .text	00000069 task_gdt_init
000120eb l     F .text	00000069 task_alloc
00012154 l     F .text	00000030 task_free
00012184 l     F .text	00000058 copy_opended_files
00012369 l     F .text	000000cb load_phdr
00012434 l     F .text	000001da load_elf_file
0001260e l     F .text	000000e5 copy_args
00000000 l    df *ABS*	00000000 cpu.c
000128e0 l     F .text	00000028 lgdt
00012908 l     F .text	0000001a far_jump
000360a0 l     O .bss	00000800 gdt_table
000368a0 l     O .bss	00000014 gdt_mutex
00000000 l    df *ABS*	00000000 irq.c
00012ba2 l     F .text	0000001d inb
00012bbf l     F .text	0000001f outb
00012bde l     F .text	00000007 cli
00012be5 l     F .text	00000007 sti
00012bec l     F .text	00000028 lidt
00012c14 l     F .text	00000011 read_cr2
00012c25 l     F .text	00000007 hlt
00012c2c l     F .text	00000010 read_eflags
00012c3c l     F .text	0000000b write_eflags
000368c0 l     O .bss	00000400 idt_table
00012c47 l     F .text	0000010c dump_core_regs
00012d53 l     F .text	00000061 do_default_handler
000131af l     F .text	00000093 init_pic
00000000 l    df *ABS*	00000000 mmu.c
00000000 l    df *ABS*	00000000 console.c
000135c2 l     F .text	0000001d inb
000135df l     F .text	0000001f outb
00036cc0 l     O .bss	00000360 console_buf
00037020 l     O .bss	00000004 curr_console_idx
000135fe l     F .text	00000074 read_cursor_pos
00013672 l     F .text	000000bf update_cursor_pos
00013731 l     F .text	00000076 move_dorward
00013ad5 l     F .text	0000008a scroll_up
000137a7 l     F .text	00000095 show_char
0001383c l     F .text	00000093 erase_rows
000138cf l     F .text	0000009a clear_display
00013ac5 l     F .text	00000010 mov_to_col0
00013b5f l     F .text	00000038 mov_next_line
00013b97 l     F .text	00000078 move_backword
00013c0f l     F .text	0000003a erase_backword
00013c49 l     F .text	000000b0 write_normal
00013d35 l     F .text	00000029 clear_esc_param
00013d5e l     F .text	00000071 write_esc
00013dcf l     F .text	00000099 set_font_style
000194c0 l     O .rodata	00000020 color_table.2527
00013e68 l     F .text	00000037 move_left
00013e9f l     F .text	00000049 move_right
00013ee8 l     F .text	00000033 move_cursor
00013f1b l     F .text	00000051 erase_in_display
00013f6c l     F .text	000000f6 write_esc_square
00000000 l    df *ABS*	00000000 dev.c
0001a050 l     O .data	00000008 dev_desc_tbl
00037040 l     O .bss	00000a00 dev_tbl
00014224 l     F .text	00000035 is_devid_valid
00000000 l    df *ABS*	00000000 disk.c
000144fa l     F .text	0000001d inb
00014517 l     F .text	0000001f inw
00014536 l     F .text	0000001f outb
00014555 l     F .text	00000021 outw
00037a40 l     O .bss	00000258 disk_buf
00037c98 l     O .bss	00000014 mutex
00037cac l     O .bss	00000010 op_sem
00037cbc l     O .bss	00000004 task_on_op
00014576 l     F .text	00000130 disk_send_cmd
000146a6 l     F .text	00000050 disk_read_data
000146f6 l     F .text	0000004b disk_wait_data
00014741 l     F .text	00000050 disk_write_data
00014791 l     F .text	000000cc printf_disk_info
0001485d l     F .text	0000011b detect_part_info
00014978 l     F .text	00000120 identify_disk
00000000 l    df *ABS*	00000000 kbd.c
00014e2a l     F .text	0000001d inb
00037cc0 l     O .bss	00000001 kbd_state
000195e0 l     O .rodata	00000074 map_table
00037cc4 l     O .bss	00000004 inited.2119
00014e96 l     F .text	0000001a is_make_code
00014eb0 l     F .text	00000015 get_key
00014ec5 l     F .text	0000003c do_fx_key
00014f01 l     F .text	000001c1 do_normal_key
000150c2 l     F .text	00000082 do_e0_key
00037cc8 l     O .bss	00000004 recv_state.2169
00000000 l    df *ABS*	00000000 time.c
00015208 l     F .text	0000001f outb
00037ccc l     O .bss	00000004 sys_tick
0001524f l     F .text	00000060 init_pit
00000000 l    df *ABS*	00000000 tty.c
00037ce0 l     O .bss	000022a0 tty_devs
00039f80 l     O .bss	00000004 current_tty
000152c7 l     F .text	0000003c get_tty
00000000 l    df *ABS*	00000000 devfs.c
0001a0e0 l     O .data	0000000c dev_type_list
00000000 l    df *ABS*	00000000 fatfs.c
000159eb l     F .text	00000017 up2
00015a02 l     F .text	00000059 bread_sector
00015a5b l     F .text	00000047 bwrite_sector
00015b35 l     F .text	00000085 read_dir_entry
00015bba l     F .text	000000a5 write_dir_entry
00015ece l     F .text	00000065 read_from_diritem
00015f33 l     F .text	00000087 to_sfn
00015fba l     F .text	0000007f diritem_init
00016070 l     F .text	0000005a cluster_free_chain
00016271 l     F .text	000000c9 cluster_get_next
0001633a l     F .text	0000012f cluster_set_next
00016248 l     F .text	00000029 cluster_is_valid
00016469 l     F .text	00000179 expand_file
00016849 l     F .text	0000012d cluster_alloc_free
000165e2 l     F .text	000000c2 move_file_pos
00000000 l    df *ABS*	00000000 file.c
00039fa0 l     O .bss	00024000 file_table
0005dfa0 l     O .bss	00000014 file_alloc_mutex
00000000 l    df *ABS*	00000000 fs.c
00017045 l     F .text	0000000b list_node_next
00017050 l     F .text	0000000a list_first
0001705a l     F .text	0000001d inb
00017077 l     F .text	0000001f inw
00017096 l     F .text	0000001f outb
0005dfc0 l     O .bss	0000000c mounted_list
0005dfe0 l     O .bss	000008c0 fs_table
0005e8a0 l     O .bss	0000000c free_list
0005e8ac l     O .bss	00000004 root_fs
000170b5 l     F .text	0000012d read_disk
000171e2 l     F .text	00000021 is_path_valid
000172ac l     F .text	0000002b fs_protect
000172d7 l     F .text	0000002b fs_unprotect
00017815 l     F .text	0000005b mount_list_init
00017870 l     F .text	00000026 get_fs_op
00017896 l     F .text	0000018f mount
00000000 l    df *ABS*	00000000 init.c
0005e8b0 l     O .bss	00000010 sem
0005e8c0 l     O .bss	00000014 mutex
00000000 l    df *ABS*	00000000 mutex.c
00017da8 l     F .text	0000000b list_count
00000000 l    df *ABS*	00000000 sem.c
00017f29 l     F .text	0000000b list_count
00000000 l    df *ABS*	00000000 bitmap.c
00000000 l    df *ABS*	00000000 klib.c
000182b6 l     F .text	00000007 hlt
0001a174 l     O .data	00000004 num2ch.1932
00000000 l    df *ABS*	00000000 list.c
00018878 l     F .text	00000013 list_is_empty
00000000 l    df *ABS*	00000000 log.c
0005e8d4 l     O .bss	00000004 log_dev_id
0005e8d8 l     O .bss	00000014 log_mutex
00000000 l    df *ABS*	00000000 first_task.c
00000000 l    df *ABS*	00000000 lib_syscall.c
800000a7 l     F .first_task	0000004c sys_call
00015c5f g     F .text	00000073 diritem_get_type
0001315b g     F .text	0000001c do_handler_simd_floating_point
000180cf g     F .text	0000003e bitmap_get_bit
0001840f g     F .text	0000004f kernel_memcpy
0001767e g     F .text	000000b3 sys_close
0001198c g     F .text	0000000a task_current
00017302 g     F .text	00000050 path_begin_with
800001a8 g     F .first_task	0000001b yield
00013563 g     F .text	0000000b irq_enable_global
00011ddb g     F .text	00000043 mmu_set_page_dir_task
0001890f g     F .text	00000064 list_insert_last
00011272 g     F .text	00000032 task_file
000103f8 g       .text	00000000 exception_handler_kbd
00011012 g     F .text	000000d7 sys_sbrk
00012ee8 g     F .text	0000001c do_handler_segment_not_present
0001192c g     F .text	00000035 task_set_ready
000181e1 g     F .text	0000001b bitmap_is_set
0001845e g     F .text	00000041 kernel_memset
00014462 g     F .text	0000004c dev_write
000175f6 g     F .text	00000088 sys_lseek
00014e47 g     F .text	0000004f kbd_init
0001012b g       .text	00000000 exception_handler_nmi
00014c6a g     F .text	00000006 disk_close
00011103 g     F .text	00000095 do_handler_syscall
00015aa2 g     F .text	00000093 diritem_gt_name
00018805 g     F .text	0000002d strings_count
00012b70 g     F .text	0000001e cpu_init
00018a6e g     F .text	0000002f log_init
00016d16 g     F .text	000000ec fatfs_readdir
000121dc g     F .text	0000018d sys_fork
00017d7e g     F .text	0000002a init_main
00010325 g       .text	00000000 exception_handler_alignment_check
00014e0a g     F .text	0000000a disk_control
000103cf g       .text	00000000 exception_handler_security
000110e9 g     F .text	0000001a sys_print_msg
0001a140 g     O .data	00000034 fatfs_op
00011e2b g     F .text	0000005c do_schedule_switch
000182bd g     F .text	00000033 kernel_strcpy
0001d000 g     O .bss	00000004 need_reschedule
0001a000 g       .data	00000000 s_data
8000017b g     F .first_task	0000002d execve
8000011d g     F .first_task	0000001b getpid
00013442 g     F .text	0000008b irq_enable
000100aa g       .text	00000000 exception_handler_unknown
0001053a g       .text	00000000 quick_switch
00016039 g     F .text	00000037 diritem_name_match
00010156 g       .text	00000000 exception_handler_breakpoint
00012e78 g     F .text	0000001c do_handler_invalid_op
00012e40 g     F .text	0000001c do_handler_overflow
00010379 g       .text	00000000 exception_handler_simd_floating_point
00013123 g     F .text	0000001c do_handler_alignment_check
00010931 g     F .text	00000063 memory_create_map
000174ad g     F .text	000000a5 sys_read
00017254 g     F .text	00000058 path_next_child
00016976 g     F .text	0000021e fatfs_write
0001416c g     F .text	000000b8 console_select
000102d1 g       .text	00000000 exception_handler_general_protection
00012f20 g     F .text	000000d8 do_handler_general_protection
00013d17 g     F .text	0000001e restore_cursor
00010551 g       .text	00000000 get_full_context
00018044 g     F .text	00000029 sem_count
80000010 g     F .first_task	0000008d first_task_main
00012dd0 g     F .text	0000001c do_handler_divider
0001810d g     F .text	000000d4 bitmap_set_bit
00012eb0 g     F .text	0000001c do_handler_double_fault
00016e02 g     F .text	0000000a fatfs_closedir
00012ff8 g     F .text	0000010f do_handler_page_fault
00015cd2 g     F .text	000001c0 fatfs_mount
80000292 g     F .first_task	00000021 isatty
000166a4 g     F .text	000001a5 fatfs_read
0001022d g       .text	00000000 exception_handler_double_fault
0001356e g     F .text	0000002b pic_send_eoi
00011922 g     F .text	0000000a task_first_task
00010000 g       .text	00000000 s_text
00017f57 g     F .text	0000006b sem_wait
00010c90 g     F .text	00000025 memory_alloc_page_for
00013193 g     F .text	0000001c do_handler_security
000102a8 g       .text	00000000 exception_handler_stack_segment_fault
80000000 g       .first_task	00000000 first_task_entry
0001777f g     F .text	00000096 sys_fstat
00014416 g     F .text	0000004c dev_read
00016c1e g     F .text	000000df fatfs_seek
00016b94 g     F .text	0000008a fatfs_close
000159c1 g     F .text	0000000a devfs_stat
00010181 g       .text	00000000 exception_handler_overflow
00010423 g       .text	00000000 simple_switch
0001007f g       .text	00000000 exception_handler_ide_primary
80000265 g     F .first_task	0000002d lseek
0001002b g       .text	00000000 exception_handler_time
00012dec g     F .text	0000001c do_handler_debug
0005e8f0 g     O .bss	00002000 stack
00011918 g     F .text	0000000a task_is_need_reschedule
00011ee2 g     F .text	0000005d sys_sleep
00014a98 g     F .text	00000102 disk_init
00017a25 g     F .text	00000049 fs_init
0001700d g     F .text	00000038 file_inc_ref
00010b84 g     F .text	0000006a memory_free_page
000608f0 g       *ABS*	00000000 s_first_task
000112a4 g     F .text	0000002a task_remove_fd
00010d3a g     F .text	00000128 memory_copy_vum
00011560 g     F .text	0000012a user_task_init
0001571e g     F .text	0000005c tty_control
00013969 g     F .text	0000015c console_init
00015827 g     F .text	00000006 devfs_umount
0001555c g     F .text	0000011e tty_read
000113f6 g     F .text	00000040 task_uninit
00010bee g     F .text	000000a2 memory_alloc_for_page_dir
00011c63 g     F .text	00000029 schedule_switch
000159cb g     F .text	00000020 devfs_ioctl
000153d0 g     F .text	0000008d tty_fifo_get
0001577a g     F .text	0000006d tty_in
0001043a g       .text	00000000 universal_task_switch
00017fc2 g     F .text	00000082 sem_notify
00010f8f g     F .text	00000083 memory_copy_uvm_data
000144ae g     F .text	0000004c dev_control
00015144 g     F .text	000000c4 do_handler_kbd
00010256 g       .text	00000000 exception_handler_invalid_tss
00017bcd g     F .text	00000053 sys_readdir
00011836 g     F .text	000000ce task_first_init
0001313f g     F .text	0000001c do_handler_machine_check
80000217 g     F .first_task	0000002d write
00017352 g     F .text	0000015b sys_open
00010cb5 g     F .text	00000085 memory_copy
000107da g     F .text	00000066 show_mem_info
00012aaf g     F .text	00000039 gdt_free_desc
800002b3 g     F .first_task	00000027 fstat
00017731 g     F .text	0000004e sys_isatty
000188b0 g     F .text	0000005f list_insert_first
00014259 g     F .text	0000014c dev_open
00017203 g     F .text	00000051 path_to_num
00011ec2 g     F .text	00000020 task_set_wakeup
00015e92 g     F .text	0000003c fatfs_umount
000100d5 g       .text	00000000 exception_handler_divider
00015303 g     F .text	00000035 tty_fifo_init
0001a060 g     O .data	00000038 dev_disk_desc
000182f0 g     F .text	0000006a kernel_strncpy
00013558 g     F .text	0000000b irq_disable_global
00011996 g     F .text	00000061 sys_sched_yield
00017552 g     F .text	000000a4 sys_write
8000033e g     F .first_task	00000021 wait
00060c4f g       *ABS*	00000000 mem_free_start
00017cc0 g     F .text	00000035 kernel_init
00017f34 g     F .text	00000023 sem_init
00010000 g       .text	00000000 _start
0001865b g     F .text	00000151 kernel_vsprintf
00018832 g     F .text	00000046 get_file_name
00011904 g     F .text	0000000a get_from_task
000143a5 g     F .text	00000071 dev_close
00013cf9 g     F .text	0000001e save_cursor
000608f0 g       .bss	00000000 e_data
800001ea g     F .first_task	0000002d read
00017ddf g     F .text	00000090 mutex_lock
00017c20 g     F .text	00000050 sys_closedir
00016e0c g     F .text	000000de fatfs_unlink
0001121f g     F .text	00000053 task_alloc_fd
000159b7 g     F .text	0000000a devfs_seek
00017a6e g     F .text	0000001d is_bad_fd
0001034e g       .text	00000000 exception_handler_machine_check
0001190e g     F .text	0000000a get_to_task
0001567a g     F .text	000000a4 tty_write
00012ecc g     F .text	0000001c do_handler_invalid_tss
00000000 g       .text	00000000 kernel_base
00015338 g     F .text	00000098 tty_fifo_put
00060c4f g       *ABS*	00000000 e_first_task
00011e87 g     F .text	0000003b task_set_sleep
00017a8b g     F .text	0000006b sys_dup
000187ac g     F .text	00000059 panic
00013402 g     F .text	00000040 irq_install
00012ae8 g     F .text	00000088 init_gdt
00015810 g     F .text	00000017 devfs_mount
00012e08 g     F .text	0000001c do_handler_nmi
0001545d g     F .text	000000f9 tty_open
80000160 g     F .first_task	0000001b fork
00013599 g     F .text	00000018 irq_enter_protection
00017db3 g     F .text	0000002c mutex_init
000103a4 g       .text	00000000 exception_handler_virtualization
00012922 g     F .text	00000058 show_base
000134cd g     F .text	0000008b irq_disable
800002da g     F .first_task	00000021 sbrk
0001a100 g     O .data	00000034 devfs_op
00012e94 g     F .text	0000001c do_handler_device_not_available
0001582d g     F .text	00000127 devfs_open
00017b49 g     F .text	00000084 sys_ioctl
00010e62 g     F .text	000000e7 memory_destroy_uvm
0001806d g     F .text	00000016 bitmap_byte_count
00017c70 g     F .text	00000050 sys_unlink
00016d03 g     F .text	00000013 fatfs_opendir
00011c8c g     F .text	00000065 task_dispatch
00015556 g     F .text	00000006 tty_close
00015978 g     F .text	00000024 devfs_write
00017cf5 g     F .text	00000089 move_to_first_task
00012b8e g     F .text	00000014 switch_to_tss
00012e5c g     F .text	0000001c do_handler_bounds
0001599c g     F .text	0000001b devfs_close
00014062 g     F .text	00000104 console_write
00011436 g     F .text	0000012a kernel_task_init
800002fb g     F .first_task	00000021 dup
00011c13 g     F .text	00000050 task_next_run
0001849f g     F .text	00000064 kernel_memcmp
00010994 g     F .text	000000a7 create_kernel_table
0001888b g     F .text	00000025 list_init
00010056 g       .text	00000000 exception_handler_page_fault
00011961 g     F .text	0000002b task_set_block
00012db4 g     F .text	0000001c do_handler_unknown
00010b57 g     F .text	0000001a memory_alloc_page
00013242 g     F .text	000001c0 irq_init
00017e6f g     F .text	000000ba mutex_unlock
00016f9b g     F .text	00000030 file_table_init
00013177 g     F .text	0000001c do_handler_virtualization
000135b1 g     F .text	00000011 irq_leave_protection
00016fcb g     F .text	00000042 file_free
00013107 g     F .text	0000001c do_handler_x87_floating_point
80000138 g     F .first_task	00000028 print_msg
000183d4 g     F .text	0000003b kernel_strlen
00010100 g       .text	00000000 exception_handler_debug
0001297a g     F .text	00000083 segment_desc_set
00010613 g       .text	00000000 exception_handler_syscall
000101d7 g       .text	00000000 exception_handler_invalid_op
00014b9a g     F .text	000000d0 disk_open
000160ca g     F .text	0000017e fatfs_open
00018973 g     F .text	00000077 list_remove_first
000198d5 g       .rodata	00000000 e_text
0001835a g     F .text	0000007a kernel_strncmp
00017af6 g     F .text	00000053 sys_opendir
00018083 g     F .text	0000004c bitmap_init
0001027f g       .text	00000000 exception_handler_segment_not_present
00016cfd g     F .text	00000006 fatfs_stat
000181fc g     F .text	000000ba bitmap_alloc_nbits
00016eea g     F .text	000000b1 file_alloc
00011776 g     F .text	000000c0 task_manager_init
0001168a g     F .text	0000002d task_start
00011cf1 g     F .text	000000ea task_time_tick
00010ac0 g     F .text	00000097 memory_init
000126f3 g     F .text	000001ed sys_execve
00014d3d g     F .text	000000cd disk_write
00011b43 g     F .text	000000d0 sys_wait
000119f7 g     F .text	0000014c sys_exit
000157e7 g     F .text	00000029 tty_select
00014166 g     F .text	00000006 console_close
00010f49 g     F .text	00000046 memory_get_paddr
00012f04 g     F .text	0000001c do_handler_stack_segment_fault
00012e24 g     F .text	0000001c do_handler_breakpoint
00011f3f g     F .text	000001ac schedule_next_task
00010a3b g     F .text	00000085 memory_create_user_space
8000031c g     F .first_task	00000022 _exit
00015954 g     F .text	00000024 devfs_read
00018a9d g     F .text	00000096 log_printf
00014c70 g     F .text	000000cd disk_read
800001c3 g     F .first_task	00000027 open
000102fa g       .text	00000000 exception_handler_x87_floating_point
00018637 g     F .text	00000024 kernel_sprintf
00011e1e g     F .text	0000000d sys_getpid
00012a44 g     F .text	0000006b gdt_alloc_desc
00018503 g     F .text	00000134 kernel_itoa
000189ea g     F .text	00000084 list_remove
0001058a g       .text	00000000 switch_from_interrupt
000129fd g     F .text	00000047 gate_desc_set
800000f3 g     F .first_task	0000002a msleep
000101ac g       .text	00000000 exception_handler_bounds
80000244 g     F .first_task	00000021 close
00014e14 g     F .text	00000016 do_handler_ide_primary
00010202 g       .text	00000000 exception_handler_device_not_available
0001087a g     F .text	000000b7 find_pte
00015227 g     F .text	00000028 do_handler_time
000152af g     F .text	00000018 time_init
0001a0a0 g     O .data	00000038 dev_tty_desc



Disassembly of section .text:

00010000 <_start>:
   10000:	55                   	push   %ebp
   10001:	89 e5                	mov    %esp,%ebp
   10003:	8b 45 08             	mov    0x8(%ebp),%eax
   10006:	50                   	push   %eax
   10007:	e8 b4 7c 00 00       	call   17cc0 <kernel_init>
   1000c:	ea 13 00 01 00 08 00 	ljmp   $0x8,$0x10013

00010013 <gdt_reload>:
   10013:	66 b8 10 00          	mov    $0x10,%ax
   10017:	8e d8                	mov    %eax,%ds
   10019:	8e c0                	mov    %eax,%es
   1001b:	8e e0                	mov    %eax,%fs
   1001d:	8e e8                	mov    %eax,%gs
   1001f:	8e d0                	mov    %eax,%ss
   10021:	bc f0 08 06 00       	mov    $0x608f0,%esp
   10026:	e9 53 7d 00 00       	jmp    17d7e <init_main>

0001002b <exception_handler_time>:
   1002b:	6a 00                	push   $0x0
   1002d:	6a 20                	push   $0x20
   1002f:	60                   	pusha  
   10030:	1e                   	push   %ds
   10031:	06                   	push   %es
   10032:	0f a0                	push   %fs
   10034:	0f a8                	push   %gs
   10036:	66 b8 10 00          	mov    $0x10,%ax
   1003a:	8e d8                	mov    %eax,%ds
   1003c:	8e c0                	mov    %eax,%es
   1003e:	8e e0                	mov    %eax,%fs
   10040:	8e e8                	mov    %eax,%gs
   10042:	54                   	push   %esp
   10043:	e8 df 51 00 00       	call   15227 <do_handler_time>
   10048:	83 c4 04             	add    $0x4,%esp
   1004b:	0f a9                	pop    %gs
   1004d:	0f a1                	pop    %fs
   1004f:	07                   	pop    %es
   10050:	1f                   	pop    %ds
   10051:	61                   	popa   
   10052:	83 c4 08             	add    $0x8,%esp
   10055:	cf                   	iret   

00010056 <exception_handler_page_fault>:
   10056:	6a 0e                	push   $0xe
   10058:	60                   	pusha  
   10059:	1e                   	push   %ds
   1005a:	06                   	push   %es
   1005b:	0f a0                	push   %fs
   1005d:	0f a8                	push   %gs
   1005f:	66 b8 10 00          	mov    $0x10,%ax
   10063:	8e d8                	mov    %eax,%ds
   10065:	8e c0                	mov    %eax,%es
   10067:	8e e0                	mov    %eax,%fs
   10069:	8e e8                	mov    %eax,%gs
   1006b:	54                   	push   %esp
   1006c:	e8 87 2f 00 00       	call   12ff8 <do_handler_page_fault>
   10071:	83 c4 04             	add    $0x4,%esp
   10074:	0f a9                	pop    %gs
   10076:	0f a1                	pop    %fs
   10078:	07                   	pop    %es
   10079:	1f                   	pop    %ds
   1007a:	61                   	popa   
   1007b:	83 c4 08             	add    $0x8,%esp
   1007e:	cf                   	iret   

0001007f <exception_handler_ide_primary>:
   1007f:	6a 00                	push   $0x0
   10081:	6a 2e                	push   $0x2e
   10083:	60                   	pusha  
   10084:	1e                   	push   %ds
   10085:	06                   	push   %es
   10086:	0f a0                	push   %fs
   10088:	0f a8                	push   %gs
   1008a:	66 b8 10 00          	mov    $0x10,%ax
   1008e:	8e d8                	mov    %eax,%ds
   10090:	8e c0                	mov    %eax,%es
   10092:	8e e0                	mov    %eax,%fs
   10094:	8e e8                	mov    %eax,%gs
   10096:	54                   	push   %esp
   10097:	e8 78 4d 00 00       	call   14e14 <do_handler_ide_primary>
   1009c:	83 c4 04             	add    $0x4,%esp
   1009f:	0f a9                	pop    %gs
   100a1:	0f a1                	pop    %fs
   100a3:	07                   	pop    %es
   100a4:	1f                   	pop    %ds
   100a5:	61                   	popa   
   100a6:	83 c4 08             	add    $0x8,%esp
   100a9:	cf                   	iret   

000100aa <exception_handler_unknown>:
   100aa:	6a 00                	push   $0x0
   100ac:	6a ff                	push   $0xffffffff
   100ae:	60                   	pusha  
   100af:	1e                   	push   %ds
   100b0:	06                   	push   %es
   100b1:	0f a0                	push   %fs
   100b3:	0f a8                	push   %gs
   100b5:	66 b8 10 00          	mov    $0x10,%ax
   100b9:	8e d8                	mov    %eax,%ds
   100bb:	8e c0                	mov    %eax,%es
   100bd:	8e e0                	mov    %eax,%fs
   100bf:	8e e8                	mov    %eax,%gs
   100c1:	54                   	push   %esp
   100c2:	e8 ed 2c 00 00       	call   12db4 <do_handler_unknown>
   100c7:	83 c4 04             	add    $0x4,%esp
   100ca:	0f a9                	pop    %gs
   100cc:	0f a1                	pop    %fs
   100ce:	07                   	pop    %es
   100cf:	1f                   	pop    %ds
   100d0:	61                   	popa   
   100d1:	83 c4 08             	add    $0x8,%esp
   100d4:	cf                   	iret   

000100d5 <exception_handler_divider>:
   100d5:	6a 00                	push   $0x0
   100d7:	6a 00                	push   $0x0
   100d9:	60                   	pusha  
   100da:	1e                   	push   %ds
   100db:	06                   	push   %es
   100dc:	0f a0                	push   %fs
   100de:	0f a8                	push   %gs
   100e0:	66 b8 10 00          	mov    $0x10,%ax
   100e4:	8e d8                	mov    %eax,%ds
   100e6:	8e c0                	mov    %eax,%es
   100e8:	8e e0                	mov    %eax,%fs
   100ea:	8e e8                	mov    %eax,%gs
   100ec:	54                   	push   %esp
   100ed:	e8 de 2c 00 00       	call   12dd0 <do_handler_divider>
   100f2:	83 c4 04             	add    $0x4,%esp
   100f5:	0f a9                	pop    %gs
   100f7:	0f a1                	pop    %fs
   100f9:	07                   	pop    %es
   100fa:	1f                   	pop    %ds
   100fb:	61                   	popa   
   100fc:	83 c4 08             	add    $0x8,%esp
   100ff:	cf                   	iret   

00010100 <exception_handler_debug>:
   10100:	6a 00                	push   $0x0
   10102:	6a 01                	push   $0x1
   10104:	60                   	pusha  
   10105:	1e                   	push   %ds
   10106:	06                   	push   %es
   10107:	0f a0                	push   %fs
   10109:	0f a8                	push   %gs
   1010b:	66 b8 10 00          	mov    $0x10,%ax
   1010f:	8e d8                	mov    %eax,%ds
   10111:	8e c0                	mov    %eax,%es
   10113:	8e e0                	mov    %eax,%fs
   10115:	8e e8                	mov    %eax,%gs
   10117:	54                   	push   %esp
   10118:	e8 cf 2c 00 00       	call   12dec <do_handler_debug>
   1011d:	83 c4 04             	add    $0x4,%esp
   10120:	0f a9                	pop    %gs
   10122:	0f a1                	pop    %fs
   10124:	07                   	pop    %es
   10125:	1f                   	pop    %ds
   10126:	61                   	popa   
   10127:	83 c4 08             	add    $0x8,%esp
   1012a:	cf                   	iret   

0001012b <exception_handler_nmi>:
   1012b:	6a 00                	push   $0x0
   1012d:	6a 02                	push   $0x2
   1012f:	60                   	pusha  
   10130:	1e                   	push   %ds
   10131:	06                   	push   %es
   10132:	0f a0                	push   %fs
   10134:	0f a8                	push   %gs
   10136:	66 b8 10 00          	mov    $0x10,%ax
   1013a:	8e d8                	mov    %eax,%ds
   1013c:	8e c0                	mov    %eax,%es
   1013e:	8e e0                	mov    %eax,%fs
   10140:	8e e8                	mov    %eax,%gs
   10142:	54                   	push   %esp
   10143:	e8 c0 2c 00 00       	call   12e08 <do_handler_nmi>
   10148:	83 c4 04             	add    $0x4,%esp
   1014b:	0f a9                	pop    %gs
   1014d:	0f a1                	pop    %fs
   1014f:	07                   	pop    %es
   10150:	1f                   	pop    %ds
   10151:	61                   	popa   
   10152:	83 c4 08             	add    $0x8,%esp
   10155:	cf                   	iret   

00010156 <exception_handler_breakpoint>:
   10156:	6a 00                	push   $0x0
   10158:	6a 03                	push   $0x3
   1015a:	60                   	pusha  
   1015b:	1e                   	push   %ds
   1015c:	06                   	push   %es
   1015d:	0f a0                	push   %fs
   1015f:	0f a8                	push   %gs
   10161:	66 b8 10 00          	mov    $0x10,%ax
   10165:	8e d8                	mov    %eax,%ds
   10167:	8e c0                	mov    %eax,%es
   10169:	8e e0                	mov    %eax,%fs
   1016b:	8e e8                	mov    %eax,%gs
   1016d:	54                   	push   %esp
   1016e:	e8 b1 2c 00 00       	call   12e24 <do_handler_breakpoint>
   10173:	83 c4 04             	add    $0x4,%esp
   10176:	0f a9                	pop    %gs
   10178:	0f a1                	pop    %fs
   1017a:	07                   	pop    %es
   1017b:	1f                   	pop    %ds
   1017c:	61                   	popa   
   1017d:	83 c4 08             	add    $0x8,%esp
   10180:	cf                   	iret   

00010181 <exception_handler_overflow>:
   10181:	6a 00                	push   $0x0
   10183:	6a 04                	push   $0x4
   10185:	60                   	pusha  
   10186:	1e                   	push   %ds
   10187:	06                   	push   %es
   10188:	0f a0                	push   %fs
   1018a:	0f a8                	push   %gs
   1018c:	66 b8 10 00          	mov    $0x10,%ax
   10190:	8e d8                	mov    %eax,%ds
   10192:	8e c0                	mov    %eax,%es
   10194:	8e e0                	mov    %eax,%fs
   10196:	8e e8                	mov    %eax,%gs
   10198:	54                   	push   %esp
   10199:	e8 a2 2c 00 00       	call   12e40 <do_handler_overflow>
   1019e:	83 c4 04             	add    $0x4,%esp
   101a1:	0f a9                	pop    %gs
   101a3:	0f a1                	pop    %fs
   101a5:	07                   	pop    %es
   101a6:	1f                   	pop    %ds
   101a7:	61                   	popa   
   101a8:	83 c4 08             	add    $0x8,%esp
   101ab:	cf                   	iret   

000101ac <exception_handler_bounds>:
   101ac:	6a 00                	push   $0x0
   101ae:	6a 05                	push   $0x5
   101b0:	60                   	pusha  
   101b1:	1e                   	push   %ds
   101b2:	06                   	push   %es
   101b3:	0f a0                	push   %fs
   101b5:	0f a8                	push   %gs
   101b7:	66 b8 10 00          	mov    $0x10,%ax
   101bb:	8e d8                	mov    %eax,%ds
   101bd:	8e c0                	mov    %eax,%es
   101bf:	8e e0                	mov    %eax,%fs
   101c1:	8e e8                	mov    %eax,%gs
   101c3:	54                   	push   %esp
   101c4:	e8 93 2c 00 00       	call   12e5c <do_handler_bounds>
   101c9:	83 c4 04             	add    $0x4,%esp
   101cc:	0f a9                	pop    %gs
   101ce:	0f a1                	pop    %fs
   101d0:	07                   	pop    %es
   101d1:	1f                   	pop    %ds
   101d2:	61                   	popa   
   101d3:	83 c4 08             	add    $0x8,%esp
   101d6:	cf                   	iret   

000101d7 <exception_handler_invalid_op>:
   101d7:	6a 00                	push   $0x0
   101d9:	6a 06                	push   $0x6
   101db:	60                   	pusha  
   101dc:	1e                   	push   %ds
   101dd:	06                   	push   %es
   101de:	0f a0                	push   %fs
   101e0:	0f a8                	push   %gs
   101e2:	66 b8 10 00          	mov    $0x10,%ax
   101e6:	8e d8                	mov    %eax,%ds
   101e8:	8e c0                	mov    %eax,%es
   101ea:	8e e0                	mov    %eax,%fs
   101ec:	8e e8                	mov    %eax,%gs
   101ee:	54                   	push   %esp
   101ef:	e8 84 2c 00 00       	call   12e78 <do_handler_invalid_op>
   101f4:	83 c4 04             	add    $0x4,%esp
   101f7:	0f a9                	pop    %gs
   101f9:	0f a1                	pop    %fs
   101fb:	07                   	pop    %es
   101fc:	1f                   	pop    %ds
   101fd:	61                   	popa   
   101fe:	83 c4 08             	add    $0x8,%esp
   10201:	cf                   	iret   

00010202 <exception_handler_device_not_available>:
   10202:	6a 00                	push   $0x0
   10204:	6a 07                	push   $0x7
   10206:	60                   	pusha  
   10207:	1e                   	push   %ds
   10208:	06                   	push   %es
   10209:	0f a0                	push   %fs
   1020b:	0f a8                	push   %gs
   1020d:	66 b8 10 00          	mov    $0x10,%ax
   10211:	8e d8                	mov    %eax,%ds
   10213:	8e c0                	mov    %eax,%es
   10215:	8e e0                	mov    %eax,%fs
   10217:	8e e8                	mov    %eax,%gs
   10219:	54                   	push   %esp
   1021a:	e8 75 2c 00 00       	call   12e94 <do_handler_device_not_available>
   1021f:	83 c4 04             	add    $0x4,%esp
   10222:	0f a9                	pop    %gs
   10224:	0f a1                	pop    %fs
   10226:	07                   	pop    %es
   10227:	1f                   	pop    %ds
   10228:	61                   	popa   
   10229:	83 c4 08             	add    $0x8,%esp
   1022c:	cf                   	iret   

0001022d <exception_handler_double_fault>:
   1022d:	6a 08                	push   $0x8
   1022f:	60                   	pusha  
   10230:	1e                   	push   %ds
   10231:	06                   	push   %es
   10232:	0f a0                	push   %fs
   10234:	0f a8                	push   %gs
   10236:	66 b8 10 00          	mov    $0x10,%ax
   1023a:	8e d8                	mov    %eax,%ds
   1023c:	8e c0                	mov    %eax,%es
   1023e:	8e e0                	mov    %eax,%fs
   10240:	8e e8                	mov    %eax,%gs
   10242:	54                   	push   %esp
   10243:	e8 68 2c 00 00       	call   12eb0 <do_handler_double_fault>
   10248:	83 c4 04             	add    $0x4,%esp
   1024b:	0f a9                	pop    %gs
   1024d:	0f a1                	pop    %fs
   1024f:	07                   	pop    %es
   10250:	1f                   	pop    %ds
   10251:	61                   	popa   
   10252:	83 c4 08             	add    $0x8,%esp
   10255:	cf                   	iret   

00010256 <exception_handler_invalid_tss>:
   10256:	6a 0a                	push   $0xa
   10258:	60                   	pusha  
   10259:	1e                   	push   %ds
   1025a:	06                   	push   %es
   1025b:	0f a0                	push   %fs
   1025d:	0f a8                	push   %gs
   1025f:	66 b8 10 00          	mov    $0x10,%ax
   10263:	8e d8                	mov    %eax,%ds
   10265:	8e c0                	mov    %eax,%es
   10267:	8e e0                	mov    %eax,%fs
   10269:	8e e8                	mov    %eax,%gs
   1026b:	54                   	push   %esp
   1026c:	e8 5b 2c 00 00       	call   12ecc <do_handler_invalid_tss>
   10271:	83 c4 04             	add    $0x4,%esp
   10274:	0f a9                	pop    %gs
   10276:	0f a1                	pop    %fs
   10278:	07                   	pop    %es
   10279:	1f                   	pop    %ds
   1027a:	61                   	popa   
   1027b:	83 c4 08             	add    $0x8,%esp
   1027e:	cf                   	iret   

0001027f <exception_handler_segment_not_present>:
   1027f:	6a 0b                	push   $0xb
   10281:	60                   	pusha  
   10282:	1e                   	push   %ds
   10283:	06                   	push   %es
   10284:	0f a0                	push   %fs
   10286:	0f a8                	push   %gs
   10288:	66 b8 10 00          	mov    $0x10,%ax
   1028c:	8e d8                	mov    %eax,%ds
   1028e:	8e c0                	mov    %eax,%es
   10290:	8e e0                	mov    %eax,%fs
   10292:	8e e8                	mov    %eax,%gs
   10294:	54                   	push   %esp
   10295:	e8 4e 2c 00 00       	call   12ee8 <do_handler_segment_not_present>
   1029a:	83 c4 04             	add    $0x4,%esp
   1029d:	0f a9                	pop    %gs
   1029f:	0f a1                	pop    %fs
   102a1:	07                   	pop    %es
   102a2:	1f                   	pop    %ds
   102a3:	61                   	popa   
   102a4:	83 c4 08             	add    $0x8,%esp
   102a7:	cf                   	iret   

000102a8 <exception_handler_stack_segment_fault>:
   102a8:	6a 0c                	push   $0xc
   102aa:	60                   	pusha  
   102ab:	1e                   	push   %ds
   102ac:	06                   	push   %es
   102ad:	0f a0                	push   %fs
   102af:	0f a8                	push   %gs
   102b1:	66 b8 10 00          	mov    $0x10,%ax
   102b5:	8e d8                	mov    %eax,%ds
   102b7:	8e c0                	mov    %eax,%es
   102b9:	8e e0                	mov    %eax,%fs
   102bb:	8e e8                	mov    %eax,%gs
   102bd:	54                   	push   %esp
   102be:	e8 41 2c 00 00       	call   12f04 <do_handler_stack_segment_fault>
   102c3:	83 c4 04             	add    $0x4,%esp
   102c6:	0f a9                	pop    %gs
   102c8:	0f a1                	pop    %fs
   102ca:	07                   	pop    %es
   102cb:	1f                   	pop    %ds
   102cc:	61                   	popa   
   102cd:	83 c4 08             	add    $0x8,%esp
   102d0:	cf                   	iret   

000102d1 <exception_handler_general_protection>:
   102d1:	6a 0d                	push   $0xd
   102d3:	60                   	pusha  
   102d4:	1e                   	push   %ds
   102d5:	06                   	push   %es
   102d6:	0f a0                	push   %fs
   102d8:	0f a8                	push   %gs
   102da:	66 b8 10 00          	mov    $0x10,%ax
   102de:	8e d8                	mov    %eax,%ds
   102e0:	8e c0                	mov    %eax,%es
   102e2:	8e e0                	mov    %eax,%fs
   102e4:	8e e8                	mov    %eax,%gs
   102e6:	54                   	push   %esp
   102e7:	e8 34 2c 00 00       	call   12f20 <do_handler_general_protection>
   102ec:	83 c4 04             	add    $0x4,%esp
   102ef:	0f a9                	pop    %gs
   102f1:	0f a1                	pop    %fs
   102f3:	07                   	pop    %es
   102f4:	1f                   	pop    %ds
   102f5:	61                   	popa   
   102f6:	83 c4 08             	add    $0x8,%esp
   102f9:	cf                   	iret   

000102fa <exception_handler_x87_floating_point>:
   102fa:	6a 00                	push   $0x0
   102fc:	6a 10                	push   $0x10
   102fe:	60                   	pusha  
   102ff:	1e                   	push   %ds
   10300:	06                   	push   %es
   10301:	0f a0                	push   %fs
   10303:	0f a8                	push   %gs
   10305:	66 b8 10 00          	mov    $0x10,%ax
   10309:	8e d8                	mov    %eax,%ds
   1030b:	8e c0                	mov    %eax,%es
   1030d:	8e e0                	mov    %eax,%fs
   1030f:	8e e8                	mov    %eax,%gs
   10311:	54                   	push   %esp
   10312:	e8 f0 2d 00 00       	call   13107 <do_handler_x87_floating_point>
   10317:	83 c4 04             	add    $0x4,%esp
   1031a:	0f a9                	pop    %gs
   1031c:	0f a1                	pop    %fs
   1031e:	07                   	pop    %es
   1031f:	1f                   	pop    %ds
   10320:	61                   	popa   
   10321:	83 c4 08             	add    $0x8,%esp
   10324:	cf                   	iret   

00010325 <exception_handler_alignment_check>:
   10325:	6a 11                	push   $0x11
   10327:	60                   	pusha  
   10328:	1e                   	push   %ds
   10329:	06                   	push   %es
   1032a:	0f a0                	push   %fs
   1032c:	0f a8                	push   %gs
   1032e:	66 b8 10 00          	mov    $0x10,%ax
   10332:	8e d8                	mov    %eax,%ds
   10334:	8e c0                	mov    %eax,%es
   10336:	8e e0                	mov    %eax,%fs
   10338:	8e e8                	mov    %eax,%gs
   1033a:	54                   	push   %esp
   1033b:	e8 e3 2d 00 00       	call   13123 <do_handler_alignment_check>
   10340:	83 c4 04             	add    $0x4,%esp
   10343:	0f a9                	pop    %gs
   10345:	0f a1                	pop    %fs
   10347:	07                   	pop    %es
   10348:	1f                   	pop    %ds
   10349:	61                   	popa   
   1034a:	83 c4 08             	add    $0x8,%esp
   1034d:	cf                   	iret   

0001034e <exception_handler_machine_check>:
   1034e:	6a 00                	push   $0x0
   10350:	6a 12                	push   $0x12
   10352:	60                   	pusha  
   10353:	1e                   	push   %ds
   10354:	06                   	push   %es
   10355:	0f a0                	push   %fs
   10357:	0f a8                	push   %gs
   10359:	66 b8 10 00          	mov    $0x10,%ax
   1035d:	8e d8                	mov    %eax,%ds
   1035f:	8e c0                	mov    %eax,%es
   10361:	8e e0                	mov    %eax,%fs
   10363:	8e e8                	mov    %eax,%gs
   10365:	54                   	push   %esp
   10366:	e8 d4 2d 00 00       	call   1313f <do_handler_machine_check>
   1036b:	83 c4 04             	add    $0x4,%esp
   1036e:	0f a9                	pop    %gs
   10370:	0f a1                	pop    %fs
   10372:	07                   	pop    %es
   10373:	1f                   	pop    %ds
   10374:	61                   	popa   
   10375:	83 c4 08             	add    $0x8,%esp
   10378:	cf                   	iret   

00010379 <exception_handler_simd_floating_point>:
   10379:	6a 00                	push   $0x0
   1037b:	6a 13                	push   $0x13
   1037d:	60                   	pusha  
   1037e:	1e                   	push   %ds
   1037f:	06                   	push   %es
   10380:	0f a0                	push   %fs
   10382:	0f a8                	push   %gs
   10384:	66 b8 10 00          	mov    $0x10,%ax
   10388:	8e d8                	mov    %eax,%ds
   1038a:	8e c0                	mov    %eax,%es
   1038c:	8e e0                	mov    %eax,%fs
   1038e:	8e e8                	mov    %eax,%gs
   10390:	54                   	push   %esp
   10391:	e8 c5 2d 00 00       	call   1315b <do_handler_simd_floating_point>
   10396:	83 c4 04             	add    $0x4,%esp
   10399:	0f a9                	pop    %gs
   1039b:	0f a1                	pop    %fs
   1039d:	07                   	pop    %es
   1039e:	1f                   	pop    %ds
   1039f:	61                   	popa   
   103a0:	83 c4 08             	add    $0x8,%esp
   103a3:	cf                   	iret   

000103a4 <exception_handler_virtualization>:
   103a4:	6a 00                	push   $0x0
   103a6:	6a 14                	push   $0x14
   103a8:	60                   	pusha  
   103a9:	1e                   	push   %ds
   103aa:	06                   	push   %es
   103ab:	0f a0                	push   %fs
   103ad:	0f a8                	push   %gs
   103af:	66 b8 10 00          	mov    $0x10,%ax
   103b3:	8e d8                	mov    %eax,%ds
   103b5:	8e c0                	mov    %eax,%es
   103b7:	8e e0                	mov    %eax,%fs
   103b9:	8e e8                	mov    %eax,%gs
   103bb:	54                   	push   %esp
   103bc:	e8 b6 2d 00 00       	call   13177 <do_handler_virtualization>
   103c1:	83 c4 04             	add    $0x4,%esp
   103c4:	0f a9                	pop    %gs
   103c6:	0f a1                	pop    %fs
   103c8:	07                   	pop    %es
   103c9:	1f                   	pop    %ds
   103ca:	61                   	popa   
   103cb:	83 c4 08             	add    $0x8,%esp
   103ce:	cf                   	iret   

000103cf <exception_handler_security>:
   103cf:	6a 15                	push   $0x15
   103d1:	60                   	pusha  
   103d2:	1e                   	push   %ds
   103d3:	06                   	push   %es
   103d4:	0f a0                	push   %fs
   103d6:	0f a8                	push   %gs
   103d8:	66 b8 10 00          	mov    $0x10,%ax
   103dc:	8e d8                	mov    %eax,%ds
   103de:	8e c0                	mov    %eax,%es
   103e0:	8e e0                	mov    %eax,%fs
   103e2:	8e e8                	mov    %eax,%gs
   103e4:	54                   	push   %esp
   103e5:	e8 a9 2d 00 00       	call   13193 <do_handler_security>
   103ea:	83 c4 04             	add    $0x4,%esp
   103ed:	0f a9                	pop    %gs
   103ef:	0f a1                	pop    %fs
   103f1:	07                   	pop    %es
   103f2:	1f                   	pop    %ds
   103f3:	61                   	popa   
   103f4:	83 c4 08             	add    $0x8,%esp
   103f7:	cf                   	iret   

000103f8 <exception_handler_kbd>:
   103f8:	6a 00                	push   $0x0
   103fa:	6a 21                	push   $0x21
   103fc:	60                   	pusha  
   103fd:	1e                   	push   %ds
   103fe:	06                   	push   %es
   103ff:	0f a0                	push   %fs
   10401:	0f a8                	push   %gs
   10403:	66 b8 10 00          	mov    $0x10,%ax
   10407:	8e d8                	mov    %eax,%ds
   10409:	8e c0                	mov    %eax,%es
   1040b:	8e e0                	mov    %eax,%fs
   1040d:	8e e8                	mov    %eax,%gs
   1040f:	54                   	push   %esp
   10410:	e8 2f 4d 00 00       	call   15144 <do_handler_kbd>
   10415:	83 c4 04             	add    $0x4,%esp
   10418:	0f a9                	pop    %gs
   1041a:	0f a1                	pop    %fs
   1041c:	07                   	pop    %es
   1041d:	1f                   	pop    %ds
   1041e:	61                   	popa   
   1041f:	83 c4 08             	add    $0x8,%esp
   10422:	cf                   	iret   

00010423 <simple_switch>:
   10423:	8b 44 24 04          	mov    0x4(%esp),%eax
   10427:	8b 54 24 08          	mov    0x8(%esp),%edx
   1042b:	55                   	push   %ebp
   1042c:	53                   	push   %ebx
   1042d:	56                   	push   %esi
   1042e:	57                   	push   %edi
   1042f:	9c                   	pushf  
   10430:	89 20                	mov    %esp,(%eax)
   10432:	89 d4                	mov    %edx,%esp
   10434:	9d                   	popf   
   10435:	5f                   	pop    %edi
   10436:	5e                   	pop    %esi
   10437:	5b                   	pop    %ebx
   10438:	5d                   	pop    %ebp
   10439:	c3                   	ret    

0001043a <universal_task_switch>:
   1043a:	8b 44 24 04          	mov    0x4(%esp),%eax
   1043e:	83 f8 00             	cmp    $0x0,%eax
   10441:	74 53                	je     10496 <skip_save_tss>
   10443:	89 40 28             	mov    %eax,0x28(%eax)
   10446:	89 58 34             	mov    %ebx,0x34(%eax)
   10449:	89 48 2c             	mov    %ecx,0x2c(%eax)
   1044c:	89 50 30             	mov    %edx,0x30(%eax)
   1044f:	89 70 40             	mov    %esi,0x40(%eax)
   10452:	89 78 44             	mov    %edi,0x44(%eax)
   10455:	89 68 3c             	mov    %ebp,0x3c(%eax)
   10458:	89 60 04             	mov    %esp,0x4(%eax)
   1045b:	8b 14 24             	mov    (%esp),%edx
   1045e:	89 50 20             	mov    %edx,0x20(%eax)
   10461:	9c                   	pushf  
   10462:	5a                   	pop    %edx
   10463:	89 50 24             	mov    %edx,0x24(%eax)
   10466:	66 8c ca             	mov    %cs,%dx
   10469:	66 89 50 4c          	mov    %dx,0x4c(%eax)
   1046d:	66 8c da             	mov    %ds,%dx
   10470:	66 89 50 54          	mov    %dx,0x54(%eax)
   10474:	66 8c d2             	mov    %ss,%dx
   10477:	66 89 50 50          	mov    %dx,0x50(%eax)
   1047b:	66 8c c2             	mov    %es,%dx
   1047e:	66 89 50 48          	mov    %dx,0x48(%eax)
   10482:	66 8c e2             	mov    %fs,%dx
   10485:	66 89 50 58          	mov    %dx,0x58(%eax)
   10489:	66 8c ea             	mov    %gs,%dx
   1048c:	66 89 50 5c          	mov    %dx,0x5c(%eax)
   10490:	0f 20 da             	mov    %cr3,%edx
   10493:	89 50 1c             	mov    %edx,0x1c(%eax)

00010496 <skip_save_tss>:
   10496:	8b 44 24 08          	mov    0x8(%esp),%eax
   1049a:	83 38 00             	cmpl   $0x0,(%eax)
   1049d:	74 02                	je     104a1 <switch_to_kernel_task>
   1049f:	eb 41                	jmp    104e2 <switch_to_user_task>

000104a1 <switch_to_kernel_task>:
   104a1:	8b 44 24 0c          	mov    0xc(%esp),%eax
   104a5:	83 f8 00             	cmp    $0x0,%eax
   104a8:	74 03                	je     104ad <skip_page_dir_kernel>
   104aa:	0f 22 d8             	mov    %eax,%cr3

000104ad <skip_page_dir_kernel>:
   104ad:	66 b8 10 00          	mov    $0x10,%ax
   104b1:	8e d8                	mov    %eax,%ds
   104b3:	8e c0                	mov    %eax,%es
   104b5:	8e e0                	mov    %eax,%fs
   104b7:	8e e8                	mov    %eax,%gs
   104b9:	8e d0                	mov    %eax,%ss
   104bb:	8b 44 24 24          	mov    0x24(%esp),%eax
   104bf:	8b 5c 24 28          	mov    0x28(%esp),%ebx
   104c3:	8b 4c 24 2c          	mov    0x2c(%esp),%ecx
   104c7:	8b 54 24 30          	mov    0x30(%esp),%edx
   104cb:	8b 74 24 34          	mov    0x34(%esp),%esi
   104cf:	8b 7c 24 38          	mov    0x38(%esp),%edi
   104d3:	8b 6c 24 3c          	mov    0x3c(%esp),%ebp
   104d7:	8b 44 24 18          	mov    0x18(%esp),%eax
   104db:	50                   	push   %eax
   104dc:	9d                   	popf   
   104dd:	8b 64 24 20          	mov    0x20(%esp),%esp
   104e1:	c3                   	ret    

000104e2 <switch_to_user_task>:
   104e2:	8b 44 24 08          	mov    0x8(%esp),%eax
   104e6:	83 38 01             	cmpl   $0x1,(%eax)
   104e9:	75 06                	jne    104f1 <skip_change>
   104eb:	c7 00 00 00 00 00    	movl   $0x0,(%eax)

000104f1 <skip_change>:
   104f1:	8b 44 24 0c          	mov    0xc(%esp),%eax
   104f5:	83 f8 00             	cmp    $0x0,%eax
   104f8:	74 03                	je     104fd <skip_page_dir_user>
   104fa:	0f 22 d8             	mov    %eax,%cr3

000104fd <skip_page_dir_user>:
   104fd:	ff 74 24 1c          	pushl  0x1c(%esp)
   10501:	ff 74 24 24          	pushl  0x24(%esp)
   10505:	ff 74 24 20          	pushl  0x20(%esp)
   10509:	ff 74 24 1c          	pushl  0x1c(%esp)
   1050d:	ff 74 24 24          	pushl  0x24(%esp)
   10511:	66 b8 23 00          	mov    $0x23,%ax
   10515:	8e d8                	mov    %eax,%ds
   10517:	8e c0                	mov    %eax,%es
   10519:	8e e0                	mov    %eax,%fs
   1051b:	8e e8                	mov    %eax,%gs
   1051d:	8b 44 24 38          	mov    0x38(%esp),%eax
   10521:	8b 5c 24 3c          	mov    0x3c(%esp),%ebx
   10525:	8b 4c 24 40          	mov    0x40(%esp),%ecx
   10529:	8b 54 24 44          	mov    0x44(%esp),%edx
   1052d:	8b 74 24 48          	mov    0x48(%esp),%esi
   10531:	8b 7c 24 4c          	mov    0x4c(%esp),%edi
   10535:	8b 6c 24 50          	mov    0x50(%esp),%ebp
   10539:	cf                   	iret   

0001053a <quick_switch>:
   1053a:	8b 44 24 04          	mov    0x4(%esp),%eax
   1053e:	8b 54 24 08          	mov    0x8(%esp),%edx
   10542:	55                   	push   %ebp
   10543:	53                   	push   %ebx
   10544:	56                   	push   %esi
   10545:	57                   	push   %edi
   10546:	9c                   	pushf  
   10547:	89 20                	mov    %esp,(%eax)
   10549:	89 d4                	mov    %edx,%esp
   1054b:	9d                   	popf   
   1054c:	5f                   	pop    %edi
   1054d:	5e                   	pop    %esi
   1054e:	5b                   	pop    %ebx
   1054f:	5d                   	pop    %ebp
   10550:	c3                   	ret    

00010551 <get_full_context>:
   10551:	8b 44 24 04          	mov    0x4(%esp),%eax
   10555:	89 18                	mov    %ebx,(%eax)
   10557:	89 48 04             	mov    %ecx,0x4(%eax)
   1055a:	89 50 08             	mov    %edx,0x8(%eax)
   1055d:	89 70 0c             	mov    %esi,0xc(%eax)
   10560:	89 78 10             	mov    %edi,0x10(%eax)
   10563:	89 68 14             	mov    %ebp,0x14(%eax)
   10566:	89 60 18             	mov    %esp,0x18(%eax)
   10569:	8b 14 24             	mov    (%esp),%edx
   1056c:	89 50 1c             	mov    %edx,0x1c(%eax)
   1056f:	9c                   	pushf  
   10570:	5a                   	pop    %edx
   10571:	89 50 20             	mov    %edx,0x20(%eax)
   10574:	66 8c ca             	mov    %cs,%dx
   10577:	66 89 50 24          	mov    %dx,0x24(%eax)
   1057b:	66 8c da             	mov    %ds,%dx
   1057e:	66 89 50 26          	mov    %dx,0x26(%eax)
   10582:	66 8c d2             	mov    %ss,%dx
   10585:	66 89 50 28          	mov    %dx,0x28(%eax)
   10589:	c3                   	ret    

0001058a <switch_from_interrupt>:
   1058a:	8b 44 24 04          	mov    0x4(%esp),%eax
   1058e:	8b 54 24 08          	mov    0x8(%esp),%edx
   10592:	8b 5c 24 0c          	mov    0xc(%esp),%ebx
   10596:	83 fb 00             	cmp    $0x0,%ebx
   10599:	74 03                	je     1059e <skip_page_dir_int>
   1059b:	0f 22 db             	mov    %ebx,%cr3

0001059e <skip_page_dir_int>:
   1059e:	83 fa 00             	cmp    $0x0,%edx
   105a1:	74 02                	je     105a5 <modify_for_kernel>
   105a3:	eb 23                	jmp    105c8 <modify_for_user>

000105a5 <modify_for_kernel>:
   105a5:	8b 5c 24 14          	mov    0x14(%esp),%ebx
   105a9:	89 18                	mov    %ebx,(%eax)
   105ab:	66 bb 08 00          	mov    $0x8,%bx
   105af:	66 89 58 04          	mov    %bx,0x4(%eax)
   105b3:	8b 5c 24 18          	mov    0x18(%esp),%ebx
   105b7:	89 58 08             	mov    %ebx,0x8(%eax)
   105ba:	66 bb 10 00          	mov    $0x10,%bx
   105be:	8e db                	mov    %ebx,%ds
   105c0:	8e c3                	mov    %ebx,%es
   105c2:	8e e3                	mov    %ebx,%fs
   105c4:	8e eb                	mov    %ebx,%gs
   105c6:	eb 32                	jmp    105fa <restore_registers>

000105c8 <modify_for_user>:
   105c8:	8b 5c 24 14          	mov    0x14(%esp),%ebx
   105cc:	89 18                	mov    %ebx,(%eax)
   105ce:	66 8b 5c 24 10       	mov    0x10(%esp),%bx
   105d3:	66 89 58 04          	mov    %bx,0x4(%eax)
   105d7:	8b 5c 24 18          	mov    0x18(%esp),%ebx
   105db:	89 58 08             	mov    %ebx,0x8(%eax)
   105de:	8b 5c 24 20          	mov    0x20(%esp),%ebx
   105e2:	89 58 0c             	mov    %ebx,0xc(%eax)
   105e5:	66 8b 5c 24 1c       	mov    0x1c(%esp),%bx
   105ea:	66 89 58 10          	mov    %bx,0x10(%eax)
   105ee:	66 bb 23 00          	mov    $0x23,%bx
   105f2:	8e db                	mov    %ebx,%ds
   105f4:	8e c3                	mov    %ebx,%es
   105f6:	8e e3                	mov    %ebx,%fs
   105f8:	8e eb                	mov    %ebx,%gs

000105fa <restore_registers>:
   105fa:	8b 5c 24 24          	mov    0x24(%esp),%ebx
   105fe:	8b 4c 24 28          	mov    0x28(%esp),%ecx
   10602:	8b 54 24 2c          	mov    0x2c(%esp),%edx
   10606:	8b 74 24 30          	mov    0x30(%esp),%esi
   1060a:	8b 7c 24 34          	mov    0x34(%esp),%edi
   1060e:	8b 6c 24 38          	mov    0x38(%esp),%ebp
   10612:	c3                   	ret    

00010613 <exception_handler_syscall>:
   10613:	60                   	pusha  
   10614:	1e                   	push   %ds
   10615:	06                   	push   %es
   10616:	0f a0                	push   %fs
   10618:	0f a8                	push   %gs
   1061a:	9c                   	pushf  
   1061b:	89 e0                	mov    %esp,%eax
   1061d:	50                   	push   %eax
   1061e:	e8 e0 0a 00 00       	call   11103 <do_handler_syscall>
   10623:	83 c4 04             	add    $0x4,%esp
   10626:	9d                   	popf   
   10627:	0f a9                	pop    %gs
   10629:	0f a1                	pop    %fs
   1062b:	07                   	pop    %es
   1062c:	1f                   	pop    %ds
   1062d:	61                   	popa   
   1062e:	ca 14 00             	lret   $0x14

00010631 <down2>:
   10631:	55                   	push   %ebp
   10632:	89 e5                	mov    %esp,%ebp
   10634:	8b 45 0c             	mov    0xc(%ebp),%eax
   10637:	f7 d8                	neg    %eax
   10639:	23 45 08             	and    0x8(%ebp),%eax
   1063c:	5d                   	pop    %ebp
   1063d:	c3                   	ret    

0001063e <up2>:
   1063e:	55                   	push   %ebp
   1063f:	89 e5                	mov    %esp,%ebp
   10641:	8b 55 08             	mov    0x8(%ebp),%edx
   10644:	8b 45 0c             	mov    0xc(%ebp),%eax
   10647:	01 d0                	add    %edx,%eax
   10649:	8d 50 ff             	lea    -0x1(%eax),%edx
   1064c:	8b 45 0c             	mov    0xc(%ebp),%eax
   1064f:	f7 d8                	neg    %eax
   10651:	21 d0                	and    %edx,%eax
   10653:	5d                   	pop    %ebp
   10654:	c3                   	ret    

00010655 <write_cr3>:
   10655:	55                   	push   %ebp
   10656:	89 e5                	mov    %esp,%ebp
   10658:	8b 45 08             	mov    0x8(%ebp),%eax
   1065b:	0f 22 d8             	mov    %eax,%cr3
   1065e:	90                   	nop
   1065f:	5d                   	pop    %ebp
   10660:	c3                   	ret    

00010661 <pde_index>:
   10661:	55                   	push   %ebp
   10662:	89 e5                	mov    %esp,%ebp
   10664:	8b 45 08             	mov    0x8(%ebp),%eax
   10667:	c1 e8 16             	shr    $0x16,%eax
   1066a:	5d                   	pop    %ebp
   1066b:	c3                   	ret    

0001066c <pte_index>:
   1066c:	55                   	push   %ebp
   1066d:	89 e5                	mov    %esp,%ebp
   1066f:	8b 45 08             	mov    0x8(%ebp),%eax
   10672:	c1 e8 0c             	shr    $0xc,%eax
   10675:	25 ff 03 00 00       	and    $0x3ff,%eax
   1067a:	5d                   	pop    %ebp
   1067b:	c3                   	ret    

0001067c <pde_paddr>:
   1067c:	55                   	push   %ebp
   1067d:	89 e5                	mov    %esp,%ebp
   1067f:	8b 45 08             	mov    0x8(%ebp),%eax
   10682:	8b 00                	mov    (%eax),%eax
   10684:	c1 e8 0c             	shr    $0xc,%eax
   10687:	c1 e0 0c             	shl    $0xc,%eax
   1068a:	5d                   	pop    %ebp
   1068b:	c3                   	ret    

0001068c <pte_paddr>:
   1068c:	55                   	push   %ebp
   1068d:	89 e5                	mov    %esp,%ebp
   1068f:	8b 45 08             	mov    0x8(%ebp),%eax
   10692:	8b 00                	mov    (%eax),%eax
   10694:	c1 e8 0c             	shr    $0xc,%eax
   10697:	c1 e0 0c             	shl    $0xc,%eax
   1069a:	5d                   	pop    %ebp
   1069b:	c3                   	ret    

0001069c <mmu_set_page_dir>:
   1069c:	55                   	push   %ebp
   1069d:	89 e5                	mov    %esp,%ebp
   1069f:	ff 75 08             	pushl  0x8(%ebp)
   106a2:	e8 ae ff ff ff       	call   10655 <write_cr3>
   106a7:	83 c4 04             	add    $0x4,%esp
   106aa:	90                   	nop
   106ab:	c9                   	leave  
   106ac:	c3                   	ret    

000106ad <get_pte_perm>:
   106ad:	55                   	push   %ebp
   106ae:	89 e5                	mov    %esp,%ebp
   106b0:	8b 45 08             	mov    0x8(%ebp),%eax
   106b3:	8b 00                	mov    (%eax),%eax
   106b5:	25 ff 03 00 00       	and    $0x3ff,%eax
   106ba:	5d                   	pop    %ebp
   106bb:	c3                   	ret    

000106bc <addr_alloc_init>:
   106bc:	55                   	push   %ebp
   106bd:	89 e5                	mov    %esp,%ebp
   106bf:	83 ec 08             	sub    $0x8,%esp
   106c2:	8b 45 08             	mov    0x8(%ebp),%eax
   106c5:	83 ec 0c             	sub    $0xc,%esp
   106c8:	50                   	push   %eax
   106c9:	e8 e5 76 00 00       	call   17db3 <mutex_init>
   106ce:	83 c4 10             	add    $0x10,%esp
   106d1:	8b 45 08             	mov    0x8(%ebp),%eax
   106d4:	8b 55 10             	mov    0x10(%ebp),%edx
   106d7:	89 50 1c             	mov    %edx,0x1c(%eax)
   106da:	8b 45 08             	mov    0x8(%ebp),%eax
   106dd:	8b 55 14             	mov    0x14(%ebp),%edx
   106e0:	89 50 20             	mov    %edx,0x20(%eax)
   106e3:	8b 45 08             	mov    0x8(%ebp),%eax
   106e6:	8b 55 18             	mov    0x18(%ebp),%edx
   106e9:	89 50 24             	mov    %edx,0x24(%eax)
   106ec:	8b 45 14             	mov    0x14(%ebp),%eax
   106ef:	ba 00 00 00 00       	mov    $0x0,%edx
   106f4:	f7 75 18             	divl   0x18(%ebp)
   106f7:	89 c2                	mov    %eax,%edx
   106f9:	8b 45 08             	mov    0x8(%ebp),%eax
   106fc:	83 c0 14             	add    $0x14,%eax
   106ff:	6a 00                	push   $0x0
   10701:	52                   	push   %edx
   10702:	ff 75 0c             	pushl  0xc(%ebp)
   10705:	50                   	push   %eax
   10706:	e8 78 79 00 00       	call   18083 <bitmap_init>
   1070b:	83 c4 10             	add    $0x10,%esp
   1070e:	90                   	nop
   1070f:	c9                   	leave  
   10710:	c3                   	ret    

00010711 <addr_alloc_page>:
   10711:	55                   	push   %ebp
   10712:	89 e5                	mov    %esp,%ebp
   10714:	83 ec 18             	sub    $0x18,%esp
   10717:	c7 45 f4 00 00 00 00 	movl   $0x0,-0xc(%ebp)
   1071e:	8b 45 08             	mov    0x8(%ebp),%eax
   10721:	83 ec 0c             	sub    $0xc,%esp
   10724:	50                   	push   %eax
   10725:	e8 b5 76 00 00       	call   17ddf <mutex_lock>
   1072a:	83 c4 10             	add    $0x10,%esp
   1072d:	8b 45 08             	mov    0x8(%ebp),%eax
   10730:	83 c0 14             	add    $0x14,%eax
   10733:	83 ec 04             	sub    $0x4,%esp
   10736:	ff 75 0c             	pushl  0xc(%ebp)
   10739:	6a 00                	push   $0x0
   1073b:	50                   	push   %eax
   1073c:	e8 bb 7a 00 00       	call   181fc <bitmap_alloc_nbits>
   10741:	83 c4 10             	add    $0x10,%esp
   10744:	89 45 f0             	mov    %eax,-0x10(%ebp)
   10747:	83 7d f0 00          	cmpl   $0x0,-0x10(%ebp)
   1074b:	78 17                	js     10764 <addr_alloc_page+0x53>
   1074d:	8b 45 08             	mov    0x8(%ebp),%eax
   10750:	8b 50 1c             	mov    0x1c(%eax),%edx
   10753:	8b 45 08             	mov    0x8(%ebp),%eax
   10756:	8b 48 24             	mov    0x24(%eax),%ecx
   10759:	8b 45 f0             	mov    -0x10(%ebp),%eax
   1075c:	0f af c1             	imul   %ecx,%eax
   1075f:	01 d0                	add    %edx,%eax
   10761:	89 45 f4             	mov    %eax,-0xc(%ebp)
   10764:	8b 45 08             	mov    0x8(%ebp),%eax
   10767:	83 ec 0c             	sub    $0xc,%esp
   1076a:	50                   	push   %eax
   1076b:	e8 ff 76 00 00       	call   17e6f <mutex_unlock>
   10770:	83 c4 10             	add    $0x10,%esp
   10773:	8b 45 f4             	mov    -0xc(%ebp),%eax
   10776:	c9                   	leave  
   10777:	c3                   	ret    

00010778 <addr_free_page>:
   10778:	55                   	push   %ebp
   10779:	89 e5                	mov    %esp,%ebp
   1077b:	53                   	push   %ebx
   1077c:	83 ec 14             	sub    $0x14,%esp
   1077f:	8b 45 08             	mov    0x8(%ebp),%eax
   10782:	83 ec 0c             	sub    $0xc,%esp
   10785:	50                   	push   %eax
   10786:	e8 54 76 00 00       	call   17ddf <mutex_lock>
   1078b:	83 c4 10             	add    $0x10,%esp
   1078e:	8b 45 08             	mov    0x8(%ebp),%eax
   10791:	8b 40 1c             	mov    0x1c(%eax),%eax
   10794:	8b 55 0c             	mov    0xc(%ebp),%edx
   10797:	89 d1                	mov    %edx,%ecx
   10799:	29 c1                	sub    %eax,%ecx
   1079b:	8b 45 08             	mov    0x8(%ebp),%eax
   1079e:	8b 58 24             	mov    0x24(%eax),%ebx
   107a1:	89 c8                	mov    %ecx,%eax
   107a3:	ba 00 00 00 00       	mov    $0x0,%edx
   107a8:	f7 f3                	div    %ebx
   107aa:	89 45 f4             	mov    %eax,-0xc(%ebp)
   107ad:	8b 45 f4             	mov    -0xc(%ebp),%eax
   107b0:	8b 55 08             	mov    0x8(%ebp),%edx
   107b3:	83 c2 14             	add    $0x14,%edx
   107b6:	6a 00                	push   $0x0
   107b8:	ff 75 10             	pushl  0x10(%ebp)
   107bb:	50                   	push   %eax
   107bc:	52                   	push   %edx
   107bd:	e8 4b 79 00 00       	call   1810d <bitmap_set_bit>
   107c2:	83 c4 10             	add    $0x10,%esp
   107c5:	8b 45 08             	mov    0x8(%ebp),%eax
   107c8:	83 ec 0c             	sub    $0xc,%esp
   107cb:	50                   	push   %eax
   107cc:	e8 9e 76 00 00       	call   17e6f <mutex_unlock>
   107d1:	83 c4 10             	add    $0x10,%esp
   107d4:	90                   	nop
   107d5:	8b 5d fc             	mov    -0x4(%ebp),%ebx
   107d8:	c9                   	leave  
   107d9:	c3                   	ret    

000107da <show_mem_info>:
   107da:	55                   	push   %ebp
   107db:	89 e5                	mov    %esp,%ebp
   107dd:	53                   	push   %ebx
   107de:	83 ec 14             	sub    $0x14,%esp
   107e1:	c7 45 f4 00 00 00 00 	movl   $0x0,-0xc(%ebp)
   107e8:	eb 42                	jmp    1082c <show_mem_info+0x52>
   107ea:	8b 45 08             	mov    0x8(%ebp),%eax
   107ed:	8b 55 f4             	mov    -0xc(%ebp),%edx
   107f0:	8b 54 d0 04          	mov    0x4(%eax,%edx,8),%edx
   107f4:	8b 45 08             	mov    0x8(%ebp),%eax
   107f7:	8b 4d f4             	mov    -0xc(%ebp),%ecx
   107fa:	8b 1c c8             	mov    (%eax,%ecx,8),%ebx
   107fd:	8b 45 08             	mov    0x8(%ebp),%eax
   10800:	8b 4d f4             	mov    -0xc(%ebp),%ecx
   10803:	8b 44 c8 04          	mov    0x4(%eax,%ecx,8),%eax
   10807:	01 c3                	add    %eax,%ebx
   10809:	8b 45 08             	mov    0x8(%ebp),%eax
   1080c:	8b 4d f4             	mov    -0xc(%ebp),%ecx
   1080f:	8b 04 c8             	mov    (%eax,%ecx,8),%eax
   10812:	83 ec 0c             	sub    $0xc,%esp
   10815:	52                   	push   %edx
   10816:	53                   	push   %ebx
   10817:	50                   	push   %eax
   10818:	ff 75 f4             	pushl  -0xc(%ebp)
   1081b:	68 40 8b 01 00       	push   $0x18b40
   10820:	e8 78 82 00 00       	call   18a9d <log_printf>
   10825:	83 c4 20             	add    $0x20,%esp
   10828:	83 45 f4 01          	addl   $0x1,-0xc(%ebp)
   1082c:	8b 45 08             	mov    0x8(%ebp),%eax
   1082f:	8b 80 a0 00 00 00    	mov    0xa0(%eax),%eax
   10835:	39 45 f4             	cmp    %eax,-0xc(%ebp)
   10838:	7c b0                	jl     107ea <show_mem_info+0x10>
   1083a:	90                   	nop
   1083b:	8b 5d fc             	mov    -0x4(%ebp),%ebx
   1083e:	c9                   	leave  
   1083f:	c3                   	ret    

00010840 <total_mem_size>:
   10840:	55                   	push   %ebp
   10841:	89 e5                	mov    %esp,%ebp
   10843:	83 ec 10             	sub    $0x10,%esp
   10846:	c7 45 fc 00 00 00 00 	movl   $0x0,-0x4(%ebp)
   1084d:	c7 45 f8 00 00 00 00 	movl   $0x0,-0x8(%ebp)
   10854:	eb 11                	jmp    10867 <total_mem_size+0x27>
   10856:	8b 45 08             	mov    0x8(%ebp),%eax
   10859:	8b 55 f8             	mov    -0x8(%ebp),%edx
   1085c:	8b 44 d0 04          	mov    0x4(%eax,%edx,8),%eax
   10860:	01 45 fc             	add    %eax,-0x4(%ebp)
   10863:	83 45 f8 01          	addl   $0x1,-0x8(%ebp)
   10867:	8b 45 08             	mov    0x8(%ebp),%eax
   1086a:	8b 80 a0 00 00 00    	mov    0xa0(%eax),%eax
   10870:	39 45 f8             	cmp    %eax,-0x8(%ebp)
   10873:	7c e1                	jl     10856 <total_mem_size+0x16>
   10875:	8b 45 fc             	mov    -0x4(%ebp),%eax
   10878:	c9                   	leave  
   10879:	c3                   	ret    

0001087a <find_pte>:
   1087a:	55                   	push   %ebp
   1087b:	89 e5                	mov    %esp,%ebp
   1087d:	83 ec 18             	sub    $0x18,%esp
   10880:	c7 45 f4 00 00 00 00 	movl   $0x0,-0xc(%ebp)
   10887:	ff 75 0c             	pushl  0xc(%ebp)
   1088a:	e8 d2 fd ff ff       	call   10661 <pde_index>
   1088f:	83 c4 04             	add    $0x4,%esp
   10892:	8d 14 85 00 00 00 00 	lea    0x0(,%eax,4),%edx
   10899:	8b 45 08             	mov    0x8(%ebp),%eax
   1089c:	01 d0                	add    %edx,%eax
   1089e:	89 45 f0             	mov    %eax,-0x10(%ebp)
   108a1:	8b 45 f0             	mov    -0x10(%ebp),%eax
   108a4:	0f b6 00             	movzbl (%eax),%eax
   108a7:	83 e0 01             	and    $0x1,%eax
   108aa:	84 c0                	test   %al,%al
   108ac:	74 10                	je     108be <find_pte+0x44>
   108ae:	ff 75 f0             	pushl  -0x10(%ebp)
   108b1:	e8 c6 fd ff ff       	call   1067c <pde_paddr>
   108b6:	83 c4 04             	add    $0x4,%esp
   108b9:	89 45 f4             	mov    %eax,-0xc(%ebp)
   108bc:	eb 57                	jmp    10915 <find_pte+0x9b>
   108be:	83 7d 10 00          	cmpl   $0x0,0x10(%ebp)
   108c2:	75 07                	jne    108cb <find_pte+0x51>
   108c4:	b8 00 00 00 00       	mov    $0x0,%eax
   108c9:	eb 64                	jmp    1092f <find_pte+0xb5>
   108cb:	83 ec 08             	sub    $0x8,%esp
   108ce:	6a 01                	push   $0x1
   108d0:	68 00 b0 01 00       	push   $0x1b000
   108d5:	e8 37 fe ff ff       	call   10711 <addr_alloc_page>
   108da:	83 c4 10             	add    $0x10,%esp
   108dd:	89 45 ec             	mov    %eax,-0x14(%ebp)
   108e0:	83 7d ec 00          	cmpl   $0x0,-0x14(%ebp)
   108e4:	75 07                	jne    108ed <find_pte+0x73>
   108e6:	b8 00 00 00 00       	mov    $0x0,%eax
   108eb:	eb 42                	jmp    1092f <find_pte+0xb5>
   108ed:	8b 45 ec             	mov    -0x14(%ebp),%eax
   108f0:	83 c8 07             	or     $0x7,%eax
   108f3:	89 c2                	mov    %eax,%edx
   108f5:	8b 45 f0             	mov    -0x10(%ebp),%eax
   108f8:	89 10                	mov    %edx,(%eax)
   108fa:	8b 45 ec             	mov    -0x14(%ebp),%eax
   108fd:	89 45 f4             	mov    %eax,-0xc(%ebp)
   10900:	83 ec 04             	sub    $0x4,%esp
   10903:	68 00 10 00 00       	push   $0x1000
   10908:	6a 00                	push   $0x0
   1090a:	ff 75 f4             	pushl  -0xc(%ebp)
   1090d:	e8 4c 7b 00 00       	call   1845e <kernel_memset>
   10912:	83 c4 10             	add    $0x10,%esp
   10915:	83 ec 0c             	sub    $0xc,%esp
   10918:	ff 75 0c             	pushl  0xc(%ebp)
   1091b:	e8 4c fd ff ff       	call   1066c <pte_index>
   10920:	83 c4 10             	add    $0x10,%esp
   10923:	8d 14 85 00 00 00 00 	lea    0x0(,%eax,4),%edx
   1092a:	8b 45 f4             	mov    -0xc(%ebp),%eax
   1092d:	01 d0                	add    %edx,%eax
   1092f:	c9                   	leave  
   10930:	c3                   	ret    

00010931 <memory_create_map>:
   10931:	55                   	push   %ebp
   10932:	89 e5                	mov    %esp,%ebp
   10934:	83 ec 18             	sub    $0x18,%esp
   10937:	c7 45 f4 00 00 00 00 	movl   $0x0,-0xc(%ebp)
   1093e:	eb 45                	jmp    10985 <memory_create_map+0x54>
   10940:	83 ec 04             	sub    $0x4,%esp
   10943:	6a 01                	push   $0x1
   10945:	ff 75 0c             	pushl  0xc(%ebp)
   10948:	ff 75 08             	pushl  0x8(%ebp)
   1094b:	e8 2a ff ff ff       	call   1087a <find_pte>
   10950:	83 c4 10             	add    $0x10,%esp
   10953:	89 45 f0             	mov    %eax,-0x10(%ebp)
   10956:	83 7d f0 00          	cmpl   $0x0,-0x10(%ebp)
   1095a:	75 07                	jne    10963 <memory_create_map+0x32>
   1095c:	b8 ff ff ff ff       	mov    $0xffffffff,%eax
   10961:	eb 2f                	jmp    10992 <memory_create_map+0x61>
   10963:	8b 45 10             	mov    0x10(%ebp),%eax
   10966:	0b 45 18             	or     0x18(%ebp),%eax
   10969:	83 c8 01             	or     $0x1,%eax
   1096c:	89 c2                	mov    %eax,%edx
   1096e:	8b 45 f0             	mov    -0x10(%ebp),%eax
   10971:	89 10                	mov    %edx,(%eax)
   10973:	81 45 0c 00 10 00 00 	addl   $0x1000,0xc(%ebp)
   1097a:	81 45 10 00 10 00 00 	addl   $0x1000,0x10(%ebp)
   10981:	83 45 f4 01          	addl   $0x1,-0xc(%ebp)
   10985:	8b 45 f4             	mov    -0xc(%ebp),%eax
   10988:	3b 45 14             	cmp    0x14(%ebp),%eax
   1098b:	7c b3                	jl     10940 <memory_create_map+0xf>
   1098d:	b8 00 00 00 00       	mov    $0x0,%eax
   10992:	c9                   	leave  
   10993:	c3                   	ret    

00010994 <create_kernel_table>:
   10994:	55                   	push   %ebp
   10995:	89 e5                	mov    %esp,%ebp
   10997:	83 ec 28             	sub    $0x28,%esp
   1099a:	c7 45 f4 00 00 00 00 	movl   $0x0,-0xc(%ebp)
   109a1:	e9 86 00 00 00       	jmp    10a2c <create_kernel_table+0x98>
   109a6:	8b 45 f4             	mov    -0xc(%ebp),%eax
   109a9:	c1 e0 04             	shl    $0x4,%eax
   109ac:	05 00 a0 01 00       	add    $0x1a000,%eax
   109b1:	89 45 f0             	mov    %eax,-0x10(%ebp)
   109b4:	8b 45 f0             	mov    -0x10(%ebp),%eax
   109b7:	8b 00                	mov    (%eax),%eax
   109b9:	68 00 10 00 00       	push   $0x1000
   109be:	50                   	push   %eax
   109bf:	e8 6d fc ff ff       	call   10631 <down2>
   109c4:	83 c4 08             	add    $0x8,%esp
   109c7:	89 45 ec             	mov    %eax,-0x14(%ebp)
   109ca:	8b 45 f0             	mov    -0x10(%ebp),%eax
   109cd:	8b 40 04             	mov    0x4(%eax),%eax
   109d0:	68 00 10 00 00       	push   $0x1000
   109d5:	50                   	push   %eax
   109d6:	e8 63 fc ff ff       	call   1063e <up2>
   109db:	83 c4 08             	add    $0x8,%esp
   109de:	89 45 e8             	mov    %eax,-0x18(%ebp)
   109e1:	8b 45 f0             	mov    -0x10(%ebp),%eax
   109e4:	8b 40 08             	mov    0x8(%eax),%eax
   109e7:	68 00 10 00 00       	push   $0x1000
   109ec:	50                   	push   %eax
   109ed:	e8 3f fc ff ff       	call   10631 <down2>
   109f2:	83 c4 08             	add    $0x8,%esp
   109f5:	89 45 e4             	mov    %eax,-0x1c(%ebp)
   109f8:	8b 45 e8             	mov    -0x18(%ebp),%eax
   109fb:	2b 45 ec             	sub    -0x14(%ebp),%eax
   109fe:	c1 e8 0c             	shr    $0xc,%eax
   10a01:	89 45 e0             	mov    %eax,-0x20(%ebp)
   10a04:	8b 45 f0             	mov    -0x10(%ebp),%eax
   10a07:	8b 40 0c             	mov    0xc(%eax),%eax
   10a0a:	8b 55 f0             	mov    -0x10(%ebp),%edx
   10a0d:	8b 52 08             	mov    0x8(%edx),%edx
   10a10:	83 ec 0c             	sub    $0xc,%esp
   10a13:	50                   	push   %eax
   10a14:	ff 75 e0             	pushl  -0x20(%ebp)
   10a17:	52                   	push   %edx
   10a18:	ff 75 ec             	pushl  -0x14(%ebp)
   10a1b:	68 00 c0 01 00       	push   $0x1c000
   10a20:	e8 0c ff ff ff       	call   10931 <memory_create_map>
   10a25:	83 c4 20             	add    $0x20,%esp
   10a28:	83 45 f4 01          	addl   $0x1,-0xc(%ebp)
   10a2c:	8b 45 f4             	mov    -0xc(%ebp),%eax
   10a2f:	83 f8 04             	cmp    $0x4,%eax
   10a32:	0f 86 6e ff ff ff    	jbe    109a6 <create_kernel_table+0x12>
   10a38:	90                   	nop
   10a39:	c9                   	leave  
   10a3a:	c3                   	ret    

00010a3b <memory_create_user_space>:
   10a3b:	55                   	push   %ebp
   10a3c:	89 e5                	mov    %esp,%ebp
   10a3e:	83 ec 18             	sub    $0x18,%esp
   10a41:	83 ec 08             	sub    $0x8,%esp
   10a44:	6a 01                	push   $0x1
   10a46:	68 00 b0 01 00       	push   $0x1b000
   10a4b:	e8 c1 fc ff ff       	call   10711 <addr_alloc_page>
   10a50:	83 c4 10             	add    $0x10,%esp
   10a53:	89 45 f0             	mov    %eax,-0x10(%ebp)
   10a56:	83 7d f0 00          	cmpl   $0x0,-0x10(%ebp)
   10a5a:	75 07                	jne    10a63 <memory_create_user_space+0x28>
   10a5c:	b8 00 00 00 00       	mov    $0x0,%eax
   10a61:	eb 5b                	jmp    10abe <memory_create_user_space+0x83>
   10a63:	83 ec 04             	sub    $0x4,%esp
   10a66:	68 00 10 00 00       	push   $0x1000
   10a6b:	6a 00                	push   $0x0
   10a6d:	ff 75 f0             	pushl  -0x10(%ebp)
   10a70:	e8 e9 79 00 00       	call   1845e <kernel_memset>
   10a75:	83 c4 10             	add    $0x10,%esp
   10a78:	83 ec 0c             	sub    $0xc,%esp
   10a7b:	68 00 00 00 80       	push   $0x80000000
   10a80:	e8 dc fb ff ff       	call   10661 <pde_index>
   10a85:	83 c4 10             	add    $0x10,%esp
   10a88:	89 45 ec             	mov    %eax,-0x14(%ebp)
   10a8b:	c7 45 f4 00 00 00 00 	movl   $0x0,-0xc(%ebp)
   10a92:	eb 1f                	jmp    10ab3 <memory_create_user_space+0x78>
   10a94:	8b 45 f4             	mov    -0xc(%ebp),%eax
   10a97:	8d 14 85 00 00 00 00 	lea    0x0(,%eax,4),%edx
   10a9e:	8b 45 f0             	mov    -0x10(%ebp),%eax
   10aa1:	01 c2                	add    %eax,%edx
   10aa3:	8b 45 f4             	mov    -0xc(%ebp),%eax
   10aa6:	8b 04 85 00 c0 01 00 	mov    0x1c000(,%eax,4),%eax
   10aad:	89 02                	mov    %eax,(%edx)
   10aaf:	83 45 f4 01          	addl   $0x1,-0xc(%ebp)
   10ab3:	8b 45 f4             	mov    -0xc(%ebp),%eax
   10ab6:	39 45 ec             	cmp    %eax,-0x14(%ebp)
   10ab9:	77 d9                	ja     10a94 <memory_create_user_space+0x59>
   10abb:	8b 45 f0             	mov    -0x10(%ebp),%eax
   10abe:	c9                   	leave  
   10abf:	c3                   	ret    

00010ac0 <memory_init>:
   10ac0:	55                   	push   %ebp
   10ac1:	89 e5                	mov    %esp,%ebp
   10ac3:	83 ec 18             	sub    $0x18,%esp
   10ac6:	83 ec 0c             	sub    $0xc,%esp
   10ac9:	ff 75 08             	pushl  0x8(%ebp)
   10acc:	e8 09 fd ff ff       	call   107da <show_mem_info>
   10ad1:	83 c4 10             	add    $0x10,%esp
   10ad4:	c7 45 f4 4f 0c 06 00 	movl   $0x60c4f,-0xc(%ebp)
   10adb:	83 ec 0c             	sub    $0xc,%esp
   10ade:	ff 75 08             	pushl  0x8(%ebp)
   10ae1:	e8 5a fd ff ff       	call   10840 <total_mem_size>
   10ae6:	83 c4 10             	add    $0x10,%esp
   10ae9:	2d 00 00 10 00       	sub    $0x100000,%eax
   10aee:	89 45 f0             	mov    %eax,-0x10(%ebp)
   10af1:	83 ec 08             	sub    $0x8,%esp
   10af4:	68 00 10 00 00       	push   $0x1000
   10af9:	ff 75 f0             	pushl  -0x10(%ebp)
   10afc:	e8 30 fb ff ff       	call   10631 <down2>
   10b01:	83 c4 10             	add    $0x10,%esp
   10b04:	89 45 f0             	mov    %eax,-0x10(%ebp)
   10b07:	83 ec 0c             	sub    $0xc,%esp
   10b0a:	68 00 10 00 00       	push   $0x1000
   10b0f:	ff 75 f0             	pushl  -0x10(%ebp)
   10b12:	68 00 00 10 00       	push   $0x100000
   10b17:	ff 75 f4             	pushl  -0xc(%ebp)
   10b1a:	68 00 b0 01 00       	push   $0x1b000
   10b1f:	e8 98 fb ff ff       	call   106bc <addr_alloc_init>
   10b24:	83 c4 20             	add    $0x20,%esp
   10b27:	a1 20 b0 01 00       	mov    0x1b020,%eax
   10b2c:	c1 e8 0c             	shr    $0xc,%eax
   10b2f:	83 ec 0c             	sub    $0xc,%esp
   10b32:	50                   	push   %eax
   10b33:	e8 35 75 00 00       	call   1806d <bitmap_byte_count>
   10b38:	83 c4 10             	add    $0x10,%esp
   10b3b:	01 45 f4             	add    %eax,-0xc(%ebp)
   10b3e:	e8 51 fe ff ff       	call   10994 <create_kernel_table>
   10b43:	b8 00 c0 01 00       	mov    $0x1c000,%eax
   10b48:	83 ec 0c             	sub    $0xc,%esp
   10b4b:	50                   	push   %eax
   10b4c:	e8 4b fb ff ff       	call   1069c <mmu_set_page_dir>
   10b51:	83 c4 10             	add    $0x10,%esp
   10b54:	90                   	nop
   10b55:	c9                   	leave  
   10b56:	c3                   	ret    

00010b57 <memory_alloc_page>:
   10b57:	55                   	push   %ebp
   10b58:	89 e5                	mov    %esp,%ebp
   10b5a:	83 ec 08             	sub    $0x8,%esp
   10b5d:	83 ec 08             	sub    $0x8,%esp
   10b60:	6a 01                	push   $0x1
   10b62:	68 00 b0 01 00       	push   $0x1b000
   10b67:	e8 a5 fb ff ff       	call   10711 <addr_alloc_page>
   10b6c:	83 c4 10             	add    $0x10,%esp
   10b6f:	c9                   	leave  
   10b70:	c3                   	ret    

00010b71 <current_page_dir>:
   10b71:	55                   	push   %ebp
   10b72:	89 e5                	mov    %esp,%ebp
   10b74:	83 ec 08             	sub    $0x8,%esp
   10b77:	e8 10 0e 00 00       	call   1198c <task_current>
   10b7c:	8b 80 80 00 00 00    	mov    0x80(%eax),%eax
   10b82:	c9                   	leave  
   10b83:	c3                   	ret    

00010b84 <memory_free_page>:
   10b84:	55                   	push   %ebp
   10b85:	89 e5                	mov    %esp,%ebp
   10b87:	83 ec 18             	sub    $0x18,%esp
   10b8a:	8b 45 08             	mov    0x8(%ebp),%eax
   10b8d:	85 c0                	test   %eax,%eax
   10b8f:	78 17                	js     10ba8 <memory_free_page+0x24>
   10b91:	83 ec 04             	sub    $0x4,%esp
   10b94:	6a 01                	push   $0x1
   10b96:	ff 75 08             	pushl  0x8(%ebp)
   10b99:	68 00 b0 01 00       	push   $0x1b000
   10b9e:	e8 d5 fb ff ff       	call   10778 <addr_free_page>
   10ba3:	83 c4 10             	add    $0x10,%esp
   10ba6:	eb 43                	jmp    10beb <memory_free_page+0x67>
   10ba8:	e8 c4 ff ff ff       	call   10b71 <current_page_dir>
   10bad:	83 ec 04             	sub    $0x4,%esp
   10bb0:	6a 00                	push   $0x0
   10bb2:	ff 75 08             	pushl  0x8(%ebp)
   10bb5:	50                   	push   %eax
   10bb6:	e8 bf fc ff ff       	call   1087a <find_pte>
   10bbb:	83 c4 10             	add    $0x10,%esp
   10bbe:	89 45 f4             	mov    %eax,-0xc(%ebp)
   10bc1:	83 ec 0c             	sub    $0xc,%esp
   10bc4:	ff 75 f4             	pushl  -0xc(%ebp)
   10bc7:	e8 c0 fa ff ff       	call   1068c <pte_paddr>
   10bcc:	83 c4 10             	add    $0x10,%esp
   10bcf:	83 ec 04             	sub    $0x4,%esp
   10bd2:	6a 01                	push   $0x1
   10bd4:	50                   	push   %eax
   10bd5:	68 00 b0 01 00       	push   $0x1b000
   10bda:	e8 99 fb ff ff       	call   10778 <addr_free_page>
   10bdf:	83 c4 10             	add    $0x10,%esp
   10be2:	8b 45 f4             	mov    -0xc(%ebp),%eax
   10be5:	c7 00 00 00 00 00    	movl   $0x0,(%eax)
   10beb:	90                   	nop
   10bec:	c9                   	leave  
   10bed:	c3                   	ret    

00010bee <memory_alloc_for_page_dir>:
   10bee:	55                   	push   %ebp
   10bef:	89 e5                	mov    %esp,%ebp
   10bf1:	83 ec 28             	sub    $0x28,%esp
   10bf4:	8b 45 0c             	mov    0xc(%ebp),%eax
   10bf7:	89 45 f4             	mov    %eax,-0xc(%ebp)
   10bfa:	68 00 10 00 00       	push   $0x1000
   10bff:	ff 75 10             	pushl  0x10(%ebp)
   10c02:	e8 37 fa ff ff       	call   1063e <up2>
   10c07:	83 c4 08             	add    $0x8,%esp
   10c0a:	c1 e8 0c             	shr    $0xc,%eax
   10c0d:	89 45 ec             	mov    %eax,-0x14(%ebp)
   10c10:	c7 45 f0 00 00 00 00 	movl   $0x0,-0x10(%ebp)
   10c17:	eb 68                	jmp    10c81 <memory_alloc_for_page_dir+0x93>
   10c19:	83 ec 08             	sub    $0x8,%esp
   10c1c:	6a 01                	push   $0x1
   10c1e:	68 00 b0 01 00       	push   $0x1b000
   10c23:	e8 e9 fa ff ff       	call   10711 <addr_alloc_page>
   10c28:	83 c4 10             	add    $0x10,%esp
   10c2b:	89 45 e8             	mov    %eax,-0x18(%ebp)
   10c2e:	83 7d e8 00          	cmpl   $0x0,-0x18(%ebp)
   10c32:	75 07                	jne    10c3b <memory_alloc_for_page_dir+0x4d>
   10c34:	b8 00 00 00 00       	mov    $0x0,%eax
   10c39:	eb 53                	jmp    10c8e <memory_alloc_for_page_dir+0xa0>
   10c3b:	8b 55 14             	mov    0x14(%ebp),%edx
   10c3e:	8b 45 08             	mov    0x8(%ebp),%eax
   10c41:	83 ec 0c             	sub    $0xc,%esp
   10c44:	52                   	push   %edx
   10c45:	6a 01                	push   $0x1
   10c47:	ff 75 e8             	pushl  -0x18(%ebp)
   10c4a:	ff 75 f4             	pushl  -0xc(%ebp)
   10c4d:	50                   	push   %eax
   10c4e:	e8 de fc ff ff       	call   10931 <memory_create_map>
   10c53:	83 c4 20             	add    $0x20,%esp
   10c56:	89 45 e4             	mov    %eax,-0x1c(%ebp)
   10c59:	83 7d e4 00          	cmpl   $0x0,-0x1c(%ebp)
   10c5d:	79 17                	jns    10c76 <memory_alloc_for_page_dir+0x88>
   10c5f:	83 ec 0c             	sub    $0xc,%esp
   10c62:	68 60 8b 01 00       	push   $0x18b60
   10c67:	e8 31 7e 00 00       	call   18a9d <log_printf>
   10c6c:	83 c4 10             	add    $0x10,%esp
   10c6f:	b8 00 00 00 00       	mov    $0x0,%eax
   10c74:	eb 18                	jmp    10c8e <memory_alloc_for_page_dir+0xa0>
   10c76:	81 45 f4 00 10 00 00 	addl   $0x1000,-0xc(%ebp)
   10c7d:	83 45 f0 01          	addl   $0x1,-0x10(%ebp)
   10c81:	8b 45 f0             	mov    -0x10(%ebp),%eax
   10c84:	3b 45 ec             	cmp    -0x14(%ebp),%eax
   10c87:	7c 90                	jl     10c19 <memory_alloc_for_page_dir+0x2b>
   10c89:	b8 00 00 00 00       	mov    $0x0,%eax
   10c8e:	c9                   	leave  
   10c8f:	c3                   	ret    

00010c90 <memory_alloc_page_for>:
   10c90:	55                   	push   %ebp
   10c91:	89 e5                	mov    %esp,%ebp
   10c93:	83 ec 08             	sub    $0x8,%esp
   10c96:	e8 f1 0c 00 00       	call   1198c <task_current>
   10c9b:	8b 80 80 00 00 00    	mov    0x80(%eax),%eax
   10ca1:	ff 75 10             	pushl  0x10(%ebp)
   10ca4:	ff 75 0c             	pushl  0xc(%ebp)
   10ca7:	ff 75 08             	pushl  0x8(%ebp)
   10caa:	50                   	push   %eax
   10cab:	e8 3e ff ff ff       	call   10bee <memory_alloc_for_page_dir>
   10cb0:	83 c4 10             	add    $0x10,%esp
   10cb3:	c9                   	leave  
   10cb4:	c3                   	ret    

00010cb5 <memory_copy>:
   10cb5:	55                   	push   %ebp
   10cb6:	89 e5                	mov    %esp,%ebp
   10cb8:	83 ec 20             	sub    $0x20,%esp
   10cbb:	8b 45 08             	mov    0x8(%ebp),%eax
   10cbe:	8b 80 80 00 00 00    	mov    0x80(%eax),%eax
   10cc4:	89 45 f8             	mov    %eax,-0x8(%ebp)
   10cc7:	8b 45 0c             	mov    0xc(%ebp),%eax
   10cca:	8b 80 80 00 00 00    	mov    0x80(%eax),%eax
   10cd0:	89 45 f4             	mov    %eax,-0xc(%ebp)
   10cd3:	68 00 00 00 80       	push   $0x80000000
   10cd8:	e8 84 f9 ff ff       	call   10661 <pde_index>
   10cdd:	83 c4 04             	add    $0x4,%esp
   10ce0:	89 45 f0             	mov    %eax,-0x10(%ebp)
   10ce3:	8b 45 f0             	mov    -0x10(%ebp),%eax
   10ce6:	89 45 fc             	mov    %eax,-0x4(%ebp)
   10ce9:	eb 3f                	jmp    10d2a <memory_copy+0x75>
   10ceb:	8b 45 fc             	mov    -0x4(%ebp),%eax
   10cee:	8d 14 85 00 00 00 00 	lea    0x0(,%eax,4),%edx
   10cf5:	8b 45 f8             	mov    -0x8(%ebp),%eax
   10cf8:	01 d0                	add    %edx,%eax
   10cfa:	89 45 ec             	mov    %eax,-0x14(%ebp)
   10cfd:	8b 45 fc             	mov    -0x4(%ebp),%eax
   10d00:	8d 14 85 00 00 00 00 	lea    0x0(,%eax,4),%edx
   10d07:	8b 45 f4             	mov    -0xc(%ebp),%eax
   10d0a:	01 d0                	add    %edx,%eax
   10d0c:	89 45 e8             	mov    %eax,-0x18(%ebp)
   10d0f:	8b 45 ec             	mov    -0x14(%ebp),%eax
   10d12:	0f b6 00             	movzbl (%eax),%eax
   10d15:	83 e0 01             	and    $0x1,%eax
   10d18:	84 c0                	test   %al,%al
   10d1a:	74 0a                	je     10d26 <memory_copy+0x71>
   10d1c:	8b 45 ec             	mov    -0x14(%ebp),%eax
   10d1f:	8b 10                	mov    (%eax),%edx
   10d21:	8b 45 e8             	mov    -0x18(%ebp),%eax
   10d24:	89 10                	mov    %edx,(%eax)
   10d26:	83 45 fc 01          	addl   $0x1,-0x4(%ebp)
   10d2a:	81 7d fc ff 03 00 00 	cmpl   $0x3ff,-0x4(%ebp)
   10d31:	7e b8                	jle    10ceb <memory_copy+0x36>
   10d33:	b8 00 00 00 00       	mov    $0x0,%eax
   10d38:	c9                   	leave  
   10d39:	c3                   	ret    

00010d3a <memory_copy_vum>:
   10d3a:	55                   	push   %ebp
   10d3b:	89 e5                	mov    %esp,%ebp
   10d3d:	83 ec 28             	sub    $0x28,%esp
   10d40:	68 00 00 00 80       	push   $0x80000000
   10d45:	e8 17 f9 ff ff       	call   10661 <pde_index>
   10d4a:	83 c4 04             	add    $0x4,%esp
   10d4d:	89 45 e4             	mov    %eax,-0x1c(%ebp)
   10d50:	8b 45 e4             	mov    -0x1c(%ebp),%eax
   10d53:	8d 14 85 00 00 00 00 	lea    0x0(,%eax,4),%edx
   10d5a:	8b 45 08             	mov    0x8(%ebp),%eax
   10d5d:	01 d0                	add    %edx,%eax
   10d5f:	89 45 f4             	mov    %eax,-0xc(%ebp)
   10d62:	8b 45 e4             	mov    -0x1c(%ebp),%eax
   10d65:	89 45 f0             	mov    %eax,-0x10(%ebp)
   10d68:	e9 d6 00 00 00       	jmp    10e43 <memory_copy_vum+0x109>
   10d6d:	8b 45 f4             	mov    -0xc(%ebp),%eax
   10d70:	0f b6 00             	movzbl (%eax),%eax
   10d73:	83 e0 01             	and    $0x1,%eax
   10d76:	84 c0                	test   %al,%al
   10d78:	0f 84 bc 00 00 00    	je     10e3a <memory_copy_vum+0x100>
   10d7e:	ff 75 f4             	pushl  -0xc(%ebp)
   10d81:	e8 f6 f8 ff ff       	call   1067c <pde_paddr>
   10d86:	83 c4 04             	add    $0x4,%esp
   10d89:	89 45 ec             	mov    %eax,-0x14(%ebp)
   10d8c:	c7 45 e8 00 00 00 00 	movl   $0x0,-0x18(%ebp)
   10d93:	e9 93 00 00 00       	jmp    10e2b <memory_copy_vum+0xf1>
   10d98:	8b 45 ec             	mov    -0x14(%ebp),%eax
   10d9b:	0f b6 00             	movzbl (%eax),%eax
   10d9e:	83 e0 01             	and    $0x1,%eax
   10da1:	84 c0                	test   %al,%al
   10da3:	74 7d                	je     10e22 <memory_copy_vum+0xe8>
   10da5:	83 ec 08             	sub    $0x8,%esp
   10da8:	6a 01                	push   $0x1
   10daa:	68 00 b0 01 00       	push   $0x1b000
   10daf:	e8 5d f9 ff ff       	call   10711 <addr_alloc_page>
   10db4:	83 c4 10             	add    $0x10,%esp
   10db7:	89 45 e0             	mov    %eax,-0x20(%ebp)
   10dba:	83 7d e0 00          	cmpl   $0x0,-0x20(%ebp)
   10dbe:	0f 84 93 00 00 00    	je     10e57 <memory_copy_vum+0x11d>
   10dc4:	8b 45 f0             	mov    -0x10(%ebp),%eax
   10dc7:	c1 e0 16             	shl    $0x16,%eax
   10dca:	89 c2                	mov    %eax,%edx
   10dcc:	8b 45 e8             	mov    -0x18(%ebp),%eax
   10dcf:	c1 e0 0c             	shl    $0xc,%eax
   10dd2:	09 d0                	or     %edx,%eax
   10dd4:	89 45 dc             	mov    %eax,-0x24(%ebp)
   10dd7:	83 ec 0c             	sub    $0xc,%esp
   10dda:	ff 75 ec             	pushl  -0x14(%ebp)
   10ddd:	e8 cb f8 ff ff       	call   106ad <get_pte_perm>
   10de2:	83 c4 10             	add    $0x10,%esp
   10de5:	89 c2                	mov    %eax,%edx
   10de7:	8b 45 0c             	mov    0xc(%ebp),%eax
   10dea:	83 ec 0c             	sub    $0xc,%esp
   10ded:	52                   	push   %edx
   10dee:	6a 01                	push   $0x1
   10df0:	ff 75 e0             	pushl  -0x20(%ebp)
   10df3:	ff 75 dc             	pushl  -0x24(%ebp)
   10df6:	50                   	push   %eax
   10df7:	e8 35 fb ff ff       	call   10931 <memory_create_map>
   10dfc:	83 c4 20             	add    $0x20,%esp
   10dff:	89 45 d8             	mov    %eax,-0x28(%ebp)
   10e02:	83 7d d8 00          	cmpl   $0x0,-0x28(%ebp)
   10e06:	78 52                	js     10e5a <memory_copy_vum+0x120>
   10e08:	8b 55 dc             	mov    -0x24(%ebp),%edx
   10e0b:	8b 45 e0             	mov    -0x20(%ebp),%eax
   10e0e:	83 ec 04             	sub    $0x4,%esp
   10e11:	68 00 10 00 00       	push   $0x1000
   10e16:	52                   	push   %edx
   10e17:	50                   	push   %eax
   10e18:	e8 f2 75 00 00       	call   1840f <kernel_memcpy>
   10e1d:	83 c4 10             	add    $0x10,%esp
   10e20:	eb 01                	jmp    10e23 <memory_copy_vum+0xe9>
   10e22:	90                   	nop
   10e23:	83 45 e8 01          	addl   $0x1,-0x18(%ebp)
   10e27:	83 45 ec 04          	addl   $0x4,-0x14(%ebp)
   10e2b:	81 7d e8 ff 03 00 00 	cmpl   $0x3ff,-0x18(%ebp)
   10e32:	0f 8e 60 ff ff ff    	jle    10d98 <memory_copy_vum+0x5e>
   10e38:	eb 01                	jmp    10e3b <memory_copy_vum+0x101>
   10e3a:	90                   	nop
   10e3b:	83 45 f0 01          	addl   $0x1,-0x10(%ebp)
   10e3f:	83 45 f4 04          	addl   $0x4,-0xc(%ebp)
   10e43:	81 7d f0 ff 03 00 00 	cmpl   $0x3ff,-0x10(%ebp)
   10e4a:	0f 8e 1d ff ff ff    	jle    10d6d <memory_copy_vum+0x33>
   10e50:	b8 00 00 00 00       	mov    $0x0,%eax
   10e55:	eb 09                	jmp    10e60 <memory_copy_vum+0x126>
   10e57:	90                   	nop
   10e58:	eb 01                	jmp    10e5b <memory_copy_vum+0x121>
   10e5a:	90                   	nop
   10e5b:	b8 ff ff ff ff       	mov    $0xffffffff,%eax
   10e60:	c9                   	leave  
   10e61:	c3                   	ret    

00010e62 <memory_destroy_uvm>:
   10e62:	55                   	push   %ebp
   10e63:	89 e5                	mov    %esp,%ebp
   10e65:	83 ec 28             	sub    $0x28,%esp
   10e68:	68 00 00 00 80       	push   $0x80000000
   10e6d:	e8 ef f7 ff ff       	call   10661 <pde_index>
   10e72:	83 c4 04             	add    $0x4,%esp
   10e75:	89 45 e4             	mov    %eax,-0x1c(%ebp)
   10e78:	8b 45 e4             	mov    -0x1c(%ebp),%eax
   10e7b:	8d 14 85 00 00 00 00 	lea    0x0(,%eax,4),%edx
   10e82:	8b 45 08             	mov    0x8(%ebp),%eax
   10e85:	01 d0                	add    %edx,%eax
   10e87:	89 45 f4             	mov    %eax,-0xc(%ebp)
   10e8a:	8b 45 e4             	mov    -0x1c(%ebp),%eax
   10e8d:	89 45 f0             	mov    %eax,-0x10(%ebp)
   10e90:	e9 8f 00 00 00       	jmp    10f24 <memory_destroy_uvm+0xc2>
   10e95:	8b 45 f4             	mov    -0xc(%ebp),%eax
   10e98:	0f b6 00             	movzbl (%eax),%eax
   10e9b:	83 e0 01             	and    $0x1,%eax
   10e9e:	84 c0                	test   %al,%al
   10ea0:	74 79                	je     10f1b <memory_destroy_uvm+0xb9>
   10ea2:	ff 75 f4             	pushl  -0xc(%ebp)
   10ea5:	e8 d2 f7 ff ff       	call   1067c <pde_paddr>
   10eaa:	83 c4 04             	add    $0x4,%esp
   10ead:	89 45 ec             	mov    %eax,-0x14(%ebp)
   10eb0:	c7 45 e8 00 00 00 00 	movl   $0x0,-0x18(%ebp)
   10eb7:	eb 36                	jmp    10eef <memory_destroy_uvm+0x8d>
   10eb9:	8b 45 ec             	mov    -0x14(%ebp),%eax
   10ebc:	0f b6 00             	movzbl (%eax),%eax
   10ebf:	83 e0 01             	and    $0x1,%eax
   10ec2:	84 c0                	test   %al,%al
   10ec4:	74 20                	je     10ee6 <memory_destroy_uvm+0x84>
   10ec6:	ff 75 ec             	pushl  -0x14(%ebp)
   10ec9:	e8 be f7 ff ff       	call   1068c <pte_paddr>
   10ece:	83 c4 04             	add    $0x4,%esp
   10ed1:	83 ec 04             	sub    $0x4,%esp
   10ed4:	6a 01                	push   $0x1
   10ed6:	50                   	push   %eax
   10ed7:	68 00 b0 01 00       	push   $0x1b000
   10edc:	e8 97 f8 ff ff       	call   10778 <addr_free_page>
   10ee1:	83 c4 10             	add    $0x10,%esp
   10ee4:	eb 01                	jmp    10ee7 <memory_destroy_uvm+0x85>
   10ee6:	90                   	nop
   10ee7:	83 45 e8 01          	addl   $0x1,-0x18(%ebp)
   10eeb:	83 45 ec 04          	addl   $0x4,-0x14(%ebp)
   10eef:	81 7d e8 ff 03 00 00 	cmpl   $0x3ff,-0x18(%ebp)
   10ef6:	7e c1                	jle    10eb9 <memory_destroy_uvm+0x57>
   10ef8:	83 ec 0c             	sub    $0xc,%esp
   10efb:	ff 75 f4             	pushl  -0xc(%ebp)
   10efe:	e8 79 f7 ff ff       	call   1067c <pde_paddr>
   10f03:	83 c4 10             	add    $0x10,%esp
   10f06:	83 ec 04             	sub    $0x4,%esp
   10f09:	6a 01                	push   $0x1
   10f0b:	50                   	push   %eax
   10f0c:	68 00 b0 01 00       	push   $0x1b000
   10f11:	e8 62 f8 ff ff       	call   10778 <addr_free_page>
   10f16:	83 c4 10             	add    $0x10,%esp
   10f19:	eb 01                	jmp    10f1c <memory_destroy_uvm+0xba>
   10f1b:	90                   	nop
   10f1c:	83 45 f0 01          	addl   $0x1,-0x10(%ebp)
   10f20:	83 45 f4 04          	addl   $0x4,-0xc(%ebp)
   10f24:	81 7d f0 ff 03 00 00 	cmpl   $0x3ff,-0x10(%ebp)
   10f2b:	0f 8e 64 ff ff ff    	jle    10e95 <memory_destroy_uvm+0x33>
   10f31:	83 ec 04             	sub    $0x4,%esp
   10f34:	6a 01                	push   $0x1
   10f36:	ff 75 08             	pushl  0x8(%ebp)
   10f39:	68 00 b0 01 00       	push   $0x1b000
   10f3e:	e8 35 f8 ff ff       	call   10778 <addr_free_page>
   10f43:	83 c4 10             	add    $0x10,%esp
   10f46:	90                   	nop
   10f47:	c9                   	leave  
   10f48:	c3                   	ret    

00010f49 <memory_get_paddr>:
   10f49:	55                   	push   %ebp
   10f4a:	89 e5                	mov    %esp,%ebp
   10f4c:	83 ec 18             	sub    $0x18,%esp
   10f4f:	8b 45 08             	mov    0x8(%ebp),%eax
   10f52:	83 ec 04             	sub    $0x4,%esp
   10f55:	6a 00                	push   $0x0
   10f57:	ff 75 0c             	pushl  0xc(%ebp)
   10f5a:	50                   	push   %eax
   10f5b:	e8 1a f9 ff ff       	call   1087a <find_pte>
   10f60:	83 c4 10             	add    $0x10,%esp
   10f63:	89 45 f4             	mov    %eax,-0xc(%ebp)
   10f66:	83 7d f4 00          	cmpl   $0x0,-0xc(%ebp)
   10f6a:	75 07                	jne    10f73 <memory_get_paddr+0x2a>
   10f6c:	b8 00 00 00 00       	mov    $0x0,%eax
   10f71:	eb 1a                	jmp    10f8d <memory_get_paddr+0x44>
   10f73:	83 ec 0c             	sub    $0xc,%esp
   10f76:	ff 75 f4             	pushl  -0xc(%ebp)
   10f79:	e8 0e f7 ff ff       	call   1068c <pte_paddr>
   10f7e:	83 c4 10             	add    $0x10,%esp
   10f81:	89 c2                	mov    %eax,%edx
   10f83:	8b 45 0c             	mov    0xc(%ebp),%eax
   10f86:	25 ff 0f 00 00       	and    $0xfff,%eax
   10f8b:	01 d0                	add    %edx,%eax
   10f8d:	c9                   	leave  
   10f8e:	c3                   	ret    

00010f8f <memory_copy_uvm_data>:
   10f8f:	55                   	push   %ebp
   10f90:	89 e5                	mov    %esp,%ebp
   10f92:	83 ec 18             	sub    $0x18,%esp
   10f95:	eb 6e                	jmp    11005 <memory_copy_uvm_data+0x76>
   10f97:	83 ec 08             	sub    $0x8,%esp
   10f9a:	ff 75 08             	pushl  0x8(%ebp)
   10f9d:	ff 75 0c             	pushl  0xc(%ebp)
   10fa0:	e8 a4 ff ff ff       	call   10f49 <memory_get_paddr>
   10fa5:	83 c4 10             	add    $0x10,%esp
   10fa8:	89 45 f0             	mov    %eax,-0x10(%ebp)
   10fab:	83 7d f0 00          	cmpl   $0x0,-0x10(%ebp)
   10faf:	75 07                	jne    10fb8 <memory_copy_uvm_data+0x29>
   10fb1:	b8 ff ff ff ff       	mov    $0xffffffff,%eax
   10fb6:	eb 58                	jmp    11010 <memory_copy_uvm_data+0x81>
   10fb8:	8b 45 f0             	mov    -0x10(%ebp),%eax
   10fbb:	25 ff 0f 00 00       	and    $0xfff,%eax
   10fc0:	89 45 ec             	mov    %eax,-0x14(%ebp)
   10fc3:	b8 00 10 00 00       	mov    $0x1000,%eax
   10fc8:	2b 45 ec             	sub    -0x14(%ebp),%eax
   10fcb:	89 45 f4             	mov    %eax,-0xc(%ebp)
   10fce:	8b 45 f4             	mov    -0xc(%ebp),%eax
   10fd1:	3b 45 14             	cmp    0x14(%ebp),%eax
   10fd4:	76 06                	jbe    10fdc <memory_copy_uvm_data+0x4d>
   10fd6:	8b 45 14             	mov    0x14(%ebp),%eax
   10fd9:	89 45 f4             	mov    %eax,-0xc(%ebp)
   10fdc:	8b 4d f4             	mov    -0xc(%ebp),%ecx
   10fdf:	8b 55 10             	mov    0x10(%ebp),%edx
   10fe2:	8b 45 f0             	mov    -0x10(%ebp),%eax
   10fe5:	83 ec 04             	sub    $0x4,%esp
   10fe8:	51                   	push   %ecx
   10fe9:	52                   	push   %edx
   10fea:	50                   	push   %eax
   10feb:	e8 1f 74 00 00       	call   1840f <kernel_memcpy>
   10ff0:	83 c4 10             	add    $0x10,%esp
   10ff3:	8b 45 f4             	mov    -0xc(%ebp),%eax
   10ff6:	29 45 14             	sub    %eax,0x14(%ebp)
   10ff9:	8b 45 f4             	mov    -0xc(%ebp),%eax
   10ffc:	01 45 08             	add    %eax,0x8(%ebp)
   10fff:	8b 45 f4             	mov    -0xc(%ebp),%eax
   11002:	01 45 10             	add    %eax,0x10(%ebp)
   11005:	83 7d 14 00          	cmpl   $0x0,0x14(%ebp)
   11009:	75 8c                	jne    10f97 <memory_copy_uvm_data+0x8>
   1100b:	b8 00 00 00 00       	mov    $0x0,%eax
   11010:	c9                   	leave  
   11011:	c3                   	ret    

00011012 <sys_sbrk>:
   11012:	55                   	push   %ebp
   11013:	89 e5                	mov    %esp,%ebp
   11015:	83 ec 38             	sub    $0x38,%esp
   11018:	e8 6f 09 00 00       	call   1198c <task_current>
   1101d:	89 45 f0             	mov    %eax,-0x10(%ebp)
   11020:	8b 45 f0             	mov    -0x10(%ebp),%eax
   11023:	8b 40 10             	mov    0x10(%eax),%eax
   11026:	89 45 ec             	mov    %eax,-0x14(%ebp)
   11029:	8b 45 08             	mov    0x8(%ebp),%eax
   1102c:	89 45 e8             	mov    %eax,-0x18(%ebp)
   1102f:	83 7d 08 00          	cmpl   $0x0,0x8(%ebp)
   11033:	75 08                	jne    1103d <sys_sbrk+0x2b>
   11035:	8b 45 ec             	mov    -0x14(%ebp),%eax
   11038:	e9 aa 00 00 00       	jmp    110e7 <sys_sbrk+0xd5>
   1103d:	8b 45 f0             	mov    -0x10(%ebp),%eax
   11040:	8b 40 10             	mov    0x10(%eax),%eax
   11043:	89 45 f4             	mov    %eax,-0xc(%ebp)
   11046:	8b 55 08             	mov    0x8(%ebp),%edx
   11049:	8b 45 f4             	mov    -0xc(%ebp),%eax
   1104c:	01 d0                	add    %edx,%eax
   1104e:	89 45 e4             	mov    %eax,-0x1c(%ebp)
   11051:	8b 45 f4             	mov    -0xc(%ebp),%eax
   11054:	25 ff 0f 00 00       	and    $0xfff,%eax
   11059:	89 45 e0             	mov    %eax,-0x20(%ebp)
   1105c:	83 7d e0 00          	cmpl   $0x0,-0x20(%ebp)
   11060:	74 37                	je     11099 <sys_sbrk+0x87>
   11062:	8b 55 e0             	mov    -0x20(%ebp),%edx
   11065:	8b 45 08             	mov    0x8(%ebp),%eax
   11068:	01 d0                	add    %edx,%eax
   1106a:	3d 00 10 00 00       	cmp    $0x1000,%eax
   1106f:	7f 0e                	jg     1107f <sys_sbrk+0x6d>
   11071:	8b 45 f0             	mov    -0x10(%ebp),%eax
   11074:	8b 55 e4             	mov    -0x1c(%ebp),%edx
   11077:	89 50 10             	mov    %edx,0x10(%eax)
   1107a:	8b 45 ec             	mov    -0x14(%ebp),%eax
   1107d:	eb 68                	jmp    110e7 <sys_sbrk+0xd5>
   1107f:	b8 00 10 00 00       	mov    $0x1000,%eax
   11084:	2b 45 e0             	sub    -0x20(%ebp),%eax
   11087:	89 45 dc             	mov    %eax,-0x24(%ebp)
   1108a:	8b 45 dc             	mov    -0x24(%ebp),%eax
   1108d:	01 45 f4             	add    %eax,-0xc(%ebp)
   11090:	8b 45 08             	mov    0x8(%ebp),%eax
   11093:	2b 45 dc             	sub    -0x24(%ebp),%eax
   11096:	89 45 08             	mov    %eax,0x8(%ebp)
   11099:	83 7d 08 00          	cmpl   $0x0,0x8(%ebp)
   1109d:	74 3c                	je     110db <sys_sbrk+0xc9>
   1109f:	8b 45 e4             	mov    -0x1c(%ebp),%eax
   110a2:	2b 45 f4             	sub    -0xc(%ebp),%eax
   110a5:	89 45 d8             	mov    %eax,-0x28(%ebp)
   110a8:	83 ec 04             	sub    $0x4,%esp
   110ab:	6a 07                	push   $0x7
   110ad:	ff 75 d8             	pushl  -0x28(%ebp)
   110b0:	ff 75 f4             	pushl  -0xc(%ebp)
   110b3:	e8 d8 fb ff ff       	call   10c90 <memory_alloc_page_for>
   110b8:	83 c4 10             	add    $0x10,%esp
   110bb:	89 45 d4             	mov    %eax,-0x2c(%ebp)
   110be:	83 7d d4 00          	cmpl   $0x0,-0x2c(%ebp)
   110c2:	79 17                	jns    110db <sys_sbrk+0xc9>
   110c4:	83 ec 0c             	sub    $0xc,%esp
   110c7:	68 81 8b 01 00       	push   $0x18b81
   110cc:	e8 cc 79 00 00       	call   18a9d <log_printf>
   110d1:	83 c4 10             	add    $0x10,%esp
   110d4:	b8 ff ff ff ff       	mov    $0xffffffff,%eax
   110d9:	eb 0c                	jmp    110e7 <sys_sbrk+0xd5>
   110db:	8b 45 f0             	mov    -0x10(%ebp),%eax
   110de:	8b 55 e4             	mov    -0x1c(%ebp),%edx
   110e1:	89 50 10             	mov    %edx,0x10(%eax)
   110e4:	8b 45 ec             	mov    -0x14(%ebp),%eax
   110e7:	c9                   	leave  
   110e8:	c3                   	ret    

000110e9 <sys_print_msg>:
   110e9:	55                   	push   %ebp
   110ea:	89 e5                	mov    %esp,%ebp
   110ec:	83 ec 08             	sub    $0x8,%esp
   110ef:	83 ec 08             	sub    $0x8,%esp
   110f2:	ff 75 0c             	pushl  0xc(%ebp)
   110f5:	ff 75 08             	pushl  0x8(%ebp)
   110f8:	e8 a0 79 00 00       	call   18a9d <log_printf>
   110fd:	83 c4 10             	add    $0x10,%esp
   11100:	90                   	nop
   11101:	c9                   	leave  
   11102:	c3                   	ret    

00011103 <do_handler_syscall>:
   11103:	55                   	push   %ebp
   11104:	89 e5                	mov    %esp,%ebp
   11106:	53                   	push   %ebx
   11107:	83 ec 14             	sub    $0x14,%esp
   1110a:	8b 45 08             	mov    0x8(%ebp),%eax
   1110d:	8b 40 3c             	mov    0x3c(%eax),%eax
   11110:	83 f8 64             	cmp    $0x64,%eax
   11113:	77 4e                	ja     11163 <do_handler_syscall+0x60>
   11115:	8b 45 08             	mov    0x8(%ebp),%eax
   11118:	8b 40 3c             	mov    0x3c(%eax),%eax
   1111b:	8b 04 85 a0 8b 01 00 	mov    0x18ba0(,%eax,4),%eax
   11122:	89 45 f4             	mov    %eax,-0xc(%ebp)
   11125:	83 7d f4 00          	cmpl   $0x0,-0xc(%ebp)
   11129:	74 38                	je     11163 <do_handler_syscall+0x60>
   1112b:	8b 45 08             	mov    0x8(%ebp),%eax
   1112e:	8b 40 4c             	mov    0x4c(%eax),%eax
   11131:	89 c3                	mov    %eax,%ebx
   11133:	8b 45 08             	mov    0x8(%ebp),%eax
   11136:	8b 40 48             	mov    0x48(%eax),%eax
   11139:	89 c1                	mov    %eax,%ecx
   1113b:	8b 45 08             	mov    0x8(%ebp),%eax
   1113e:	8b 40 44             	mov    0x44(%eax),%eax
   11141:	89 c2                	mov    %eax,%edx
   11143:	8b 45 08             	mov    0x8(%ebp),%eax
   11146:	8b 40 40             	mov    0x40(%eax),%eax
   11149:	53                   	push   %ebx
   1114a:	51                   	push   %ecx
   1114b:	52                   	push   %edx
   1114c:	50                   	push   %eax
   1114d:	8b 45 f4             	mov    -0xc(%ebp),%eax
   11150:	ff d0                	call   *%eax
   11152:	83 c4 10             	add    $0x10,%esp
   11155:	89 45 f0             	mov    %eax,-0x10(%ebp)
   11158:	8b 45 08             	mov    0x8(%ebp),%eax
   1115b:	8b 55 f0             	mov    -0x10(%ebp),%edx
   1115e:	89 50 30             	mov    %edx,0x30(%eax)
   11161:	eb 30                	jmp    11193 <do_handler_syscall+0x90>
   11163:	e8 24 08 00 00       	call   1198c <task_current>
   11168:	89 45 ec             	mov    %eax,-0x14(%ebp)
   1116b:	8b 45 08             	mov    0x8(%ebp),%eax
   1116e:	8b 40 3c             	mov    0x3c(%eax),%eax
   11171:	8b 55 ec             	mov    -0x14(%ebp),%edx
   11174:	83 c2 28             	add    $0x28,%edx
   11177:	83 ec 04             	sub    $0x4,%esp
   1117a:	50                   	push   %eax
   1117b:	52                   	push   %edx
   1117c:	68 34 8d 01 00       	push   $0x18d34
   11181:	e8 17 79 00 00       	call   18a9d <log_printf>
   11186:	83 c4 10             	add    $0x10,%esp
   11189:	8b 45 08             	mov    0x8(%ebp),%eax
   1118c:	c7 40 30 ff ff ff ff 	movl   $0xffffffff,0x30(%eax)
   11193:	8b 5d fc             	mov    -0x4(%ebp),%ebx
   11196:	c9                   	leave  
   11197:	c3                   	ret    

00011198 <list_node_init>:
   11198:	55                   	push   %ebp
   11199:	89 e5                	mov    %esp,%ebp
   1119b:	8b 45 08             	mov    0x8(%ebp),%eax
   1119e:	c7 40 04 00 00 00 00 	movl   $0x0,0x4(%eax)
   111a5:	8b 45 08             	mov    0x8(%ebp),%eax
   111a8:	8b 50 04             	mov    0x4(%eax),%edx
   111ab:	8b 45 08             	mov    0x8(%ebp),%eax
   111ae:	89 10                	mov    %edx,(%eax)
   111b0:	90                   	nop
   111b1:	5d                   	pop    %ebp
   111b2:	c3                   	ret    

000111b3 <list_node_next>:
   111b3:	55                   	push   %ebp
   111b4:	89 e5                	mov    %esp,%ebp
   111b6:	8b 45 08             	mov    0x8(%ebp),%eax
   111b9:	8b 40 04             	mov    0x4(%eax),%eax
   111bc:	5d                   	pop    %ebp
   111bd:	c3                   	ret    

000111be <list_count>:
   111be:	55                   	push   %ebp
   111bf:	89 e5                	mov    %esp,%ebp
   111c1:	8b 45 08             	mov    0x8(%ebp),%eax
   111c4:	8b 40 08             	mov    0x8(%eax),%eax
   111c7:	5d                   	pop    %ebp
   111c8:	c3                   	ret    

000111c9 <list_first>:
   111c9:	55                   	push   %ebp
   111ca:	89 e5                	mov    %esp,%ebp
   111cc:	8b 45 08             	mov    0x8(%ebp),%eax
   111cf:	8b 00                	mov    (%eax),%eax
   111d1:	5d                   	pop    %ebp
   111d2:	c3                   	ret    

000111d3 <read_cr3>:
   111d3:	55                   	push   %ebp
   111d4:	89 e5                	mov    %esp,%ebp
   111d6:	83 ec 10             	sub    $0x10,%esp
   111d9:	0f 20 d8             	mov    %cr3,%eax
   111dc:	89 45 fc             	mov    %eax,-0x4(%ebp)
   111df:	8b 45 fc             	mov    -0x4(%ebp),%eax
   111e2:	c9                   	leave  
   111e3:	c3                   	ret    

000111e4 <write_cr3>:
   111e4:	55                   	push   %ebp
   111e5:	89 e5                	mov    %esp,%ebp
   111e7:	8b 45 08             	mov    0x8(%ebp),%eax
   111ea:	0f 22 d8             	mov    %eax,%cr3
   111ed:	90                   	nop
   111ee:	5d                   	pop    %ebp
   111ef:	c3                   	ret    

000111f0 <hlt>:
   111f0:	55                   	push   %ebp
   111f1:	89 e5                	mov    %esp,%ebp
   111f3:	f4                   	hlt    
   111f4:	90                   	nop
   111f5:	5d                   	pop    %ebp
   111f6:	c3                   	ret    

000111f7 <write_tr>:
   111f7:	55                   	push   %ebp
   111f8:	89 e5                	mov    %esp,%ebp
   111fa:	83 ec 04             	sub    $0x4,%esp
   111fd:	8b 45 08             	mov    0x8(%ebp),%eax
   11200:	66 89 45 fc          	mov    %ax,-0x4(%ebp)
   11204:	0f b7 45 fc          	movzwl -0x4(%ebp),%eax
   11208:	0f 00 d8             	ltr    %ax
   1120b:	90                   	nop
   1120c:	c9                   	leave  
   1120d:	c3                   	ret    

0001120e <mmu_set_page_dir>:
   1120e:	55                   	push   %ebp
   1120f:	89 e5                	mov    %esp,%ebp
   11211:	ff 75 08             	pushl  0x8(%ebp)
   11214:	e8 cb ff ff ff       	call   111e4 <write_cr3>
   11219:	83 c4 04             	add    $0x4,%esp
   1121c:	90                   	nop
   1121d:	c9                   	leave  
   1121e:	c3                   	ret    

0001121f <task_alloc_fd>:
   1121f:	55                   	push   %ebp
   11220:	89 e5                	mov    %esp,%ebp
   11222:	83 ec 18             	sub    $0x18,%esp
   11225:	e8 62 07 00 00       	call   1198c <task_current>
   1122a:	89 45 f0             	mov    %eax,-0x10(%ebp)
   1122d:	c7 45 f4 00 00 00 00 	movl   $0x0,-0xc(%ebp)
   11234:	eb 2f                	jmp    11265 <task_alloc_fd+0x46>
   11236:	8b 45 f0             	mov    -0x10(%ebp),%eax
   11239:	8b 55 f4             	mov    -0xc(%ebp),%edx
   1123c:	83 c2 34             	add    $0x34,%edx
   1123f:	8b 44 90 04          	mov    0x4(%eax,%edx,4),%eax
   11243:	89 45 ec             	mov    %eax,-0x14(%ebp)
   11246:	83 7d ec 00          	cmpl   $0x0,-0x14(%ebp)
   1124a:	75 15                	jne    11261 <task_alloc_fd+0x42>
   1124c:	8b 45 f0             	mov    -0x10(%ebp),%eax
   1124f:	8b 55 f4             	mov    -0xc(%ebp),%edx
   11252:	8d 4a 34             	lea    0x34(%edx),%ecx
   11255:	8b 55 08             	mov    0x8(%ebp),%edx
   11258:	89 54 88 04          	mov    %edx,0x4(%eax,%ecx,4)
   1125c:	8b 45 f4             	mov    -0xc(%ebp),%eax
   1125f:	eb 0f                	jmp    11270 <task_alloc_fd+0x51>
   11261:	83 45 f4 01          	addl   $0x1,-0xc(%ebp)
   11265:	83 7d f4 7f          	cmpl   $0x7f,-0xc(%ebp)
   11269:	7e cb                	jle    11236 <task_alloc_fd+0x17>
   1126b:	b8 ff ff ff ff       	mov    $0xffffffff,%eax
   11270:	c9                   	leave  
   11271:	c3                   	ret    

00011272 <task_file>:
   11272:	55                   	push   %ebp
   11273:	89 e5                	mov    %esp,%ebp
   11275:	83 ec 18             	sub    $0x18,%esp
   11278:	83 7d 08 00          	cmpl   $0x0,0x8(%ebp)
   1127c:	78 1f                	js     1129d <task_file+0x2b>
   1127e:	83 7d 08 7f          	cmpl   $0x7f,0x8(%ebp)
   11282:	7f 19                	jg     1129d <task_file+0x2b>
   11284:	e8 03 07 00 00       	call   1198c <task_current>
   11289:	89 c2                	mov    %eax,%edx
   1128b:	8b 45 08             	mov    0x8(%ebp),%eax
   1128e:	83 c0 34             	add    $0x34,%eax
   11291:	8b 44 82 04          	mov    0x4(%edx,%eax,4),%eax
   11295:	89 45 f4             	mov    %eax,-0xc(%ebp)
   11298:	8b 45 f4             	mov    -0xc(%ebp),%eax
   1129b:	eb 05                	jmp    112a2 <task_file+0x30>
   1129d:	b8 00 00 00 00       	mov    $0x0,%eax
   112a2:	c9                   	leave  
   112a3:	c3                   	ret    

000112a4 <task_remove_fd>:
   112a4:	55                   	push   %ebp
   112a5:	89 e5                	mov    %esp,%ebp
   112a7:	83 ec 08             	sub    $0x8,%esp
   112aa:	83 7d 08 00          	cmpl   $0x0,0x8(%ebp)
   112ae:	7e 1b                	jle    112cb <task_remove_fd+0x27>
   112b0:	83 7d 08 7f          	cmpl   $0x7f,0x8(%ebp)
   112b4:	7f 15                	jg     112cb <task_remove_fd+0x27>
   112b6:	e8 d1 06 00 00       	call   1198c <task_current>
   112bb:	89 c2                	mov    %eax,%edx
   112bd:	8b 45 08             	mov    0x8(%ebp),%eax
   112c0:	83 c0 34             	add    $0x34,%eax
   112c3:	c7 44 82 04 00 00 00 	movl   $0x0,0x4(%edx,%eax,4)
   112ca:	00 
   112cb:	90                   	nop
   112cc:	c9                   	leave  
   112cd:	c3                   	ret    

000112ce <tss_init>:
   112ce:	55                   	push   %ebp
   112cf:	89 e5                	mov    %esp,%ebp
   112d1:	83 ec 18             	sub    $0x18,%esp
   112d4:	8b 45 08             	mov    0x8(%ebp),%eax
   112d7:	83 c0 64             	add    $0x64,%eax
   112da:	83 ec 04             	sub    $0x4,%esp
   112dd:	6a 68                	push   $0x68
   112df:	6a 00                	push   $0x0
   112e1:	50                   	push   %eax
   112e2:	e8 77 71 00 00       	call   1845e <kernel_memset>
   112e7:	83 c4 10             	add    $0x10,%esp
   112ea:	e8 68 f8 ff ff       	call   10b57 <memory_alloc_page>
   112ef:	89 45 f0             	mov    %eax,-0x10(%ebp)
   112f2:	83 7d f0 00          	cmpl   $0x0,-0x10(%ebp)
   112f6:	0f 84 c7 00 00 00    	je     113c3 <tss_init+0xf5>
   112fc:	8b 45 f0             	mov    -0x10(%ebp),%eax
   112ff:	8d 90 00 10 00 00    	lea    0x1000(%eax),%edx
   11305:	8b 45 08             	mov    0x8(%ebp),%eax
   11308:	89 50 68             	mov    %edx,0x68(%eax)
   1130b:	8b 45 f0             	mov    -0x10(%ebp),%eax
   1130e:	8d 90 00 10 00 00    	lea    0x1000(%eax),%edx
   11314:	8b 45 08             	mov    0x8(%ebp),%eax
   11317:	89 50 60             	mov    %edx,0x60(%eax)
   1131a:	83 7d 14 00          	cmpl   $0x0,0x14(%ebp)
   1131e:	75 36                	jne    11356 <tss_init+0x88>
   11320:	8b 45 08             	mov    0x8(%ebp),%eax
   11323:	c7 80 b0 00 00 00 08 	movl   $0x8,0xb0(%eax)
   1132a:	00 00 00 
   1132d:	8b 45 08             	mov    0x8(%ebp),%eax
   11330:	c7 80 b8 00 00 00 10 	movl   $0x10,0xb8(%eax)
   11337:	00 00 00 
   1133a:	8b 45 08             	mov    0x8(%ebp),%eax
   1133d:	c7 80 b4 00 00 00 10 	movl   $0x10,0xb4(%eax)
   11344:	00 00 00 
   11347:	8b 45 08             	mov    0x8(%ebp),%eax
   1134a:	c7 80 88 00 00 00 02 	movl   $0x202,0x88(%eax)
   11351:	02 00 00 
   11354:	eb 34                	jmp    1138a <tss_init+0xbc>
   11356:	8b 45 08             	mov    0x8(%ebp),%eax
   11359:	c7 80 b0 00 00 00 1b 	movl   $0x1b,0xb0(%eax)
   11360:	00 00 00 
   11363:	8b 45 08             	mov    0x8(%ebp),%eax
   11366:	c7 80 b8 00 00 00 23 	movl   $0x23,0xb8(%eax)
   1136d:	00 00 00 
   11370:	8b 45 08             	mov    0x8(%ebp),%eax
   11373:	c7 80 b4 00 00 00 23 	movl   $0x23,0xb4(%eax)
   1137a:	00 00 00 
   1137d:	8b 45 08             	mov    0x8(%ebp),%eax
   11380:	c7 80 88 00 00 00 02 	movl   $0x202,0x88(%eax)
   11387:	02 00 00 
   1138a:	8b 45 08             	mov    0x8(%ebp),%eax
   1138d:	8b 55 10             	mov    0x10(%ebp),%edx
   11390:	89 90 9c 00 00 00    	mov    %edx,0x9c(%eax)
   11396:	8b 45 08             	mov    0x8(%ebp),%eax
   11399:	8b 55 0c             	mov    0xc(%ebp),%edx
   1139c:	89 90 84 00 00 00    	mov    %edx,0x84(%eax)
   113a2:	e8 94 f6 ff ff       	call   10a3b <memory_create_user_space>
   113a7:	89 45 f4             	mov    %eax,-0xc(%ebp)
   113aa:	83 7d f4 00          	cmpl   $0x0,-0xc(%ebp)
   113ae:	74 16                	je     113c6 <tss_init+0xf8>
   113b0:	8b 45 08             	mov    0x8(%ebp),%eax
   113b3:	8b 55 f4             	mov    -0xc(%ebp),%edx
   113b6:	89 90 80 00 00 00    	mov    %edx,0x80(%eax)
   113bc:	b8 00 00 00 00       	mov    $0x0,%eax
   113c1:	eb 31                	jmp    113f4 <tss_init+0x126>
   113c3:	90                   	nop
   113c4:	eb 01                	jmp    113c7 <tss_init+0xf9>
   113c6:	90                   	nop
   113c7:	83 7d f0 00          	cmpl   $0x0,-0x10(%ebp)
   113cb:	74 0e                	je     113db <tss_init+0x10d>
   113cd:	83 ec 0c             	sub    $0xc,%esp
   113d0:	ff 75 f0             	pushl  -0x10(%ebp)
   113d3:	e8 ac f7 ff ff       	call   10b84 <memory_free_page>
   113d8:	83 c4 10             	add    $0x10,%esp
   113db:	83 7d f4 00          	cmpl   $0x0,-0xc(%ebp)
   113df:	74 0e                	je     113ef <tss_init+0x121>
   113e1:	83 ec 0c             	sub    $0xc,%esp
   113e4:	ff 75 f4             	pushl  -0xc(%ebp)
   113e7:	e8 76 fa ff ff       	call   10e62 <memory_destroy_uvm>
   113ec:	83 c4 10             	add    $0x10,%esp
   113ef:	b8 ff ff ff ff       	mov    $0xffffffff,%eax
   113f4:	c9                   	leave  
   113f5:	c3                   	ret    

000113f6 <task_uninit>:
   113f6:	55                   	push   %ebp
   113f7:	89 e5                	mov    %esp,%ebp
   113f9:	83 ec 08             	sub    $0x8,%esp
   113fc:	8b 45 08             	mov    0x8(%ebp),%eax
   113ff:	8b 80 80 00 00 00    	mov    0x80(%eax),%eax
   11405:	85 c0                	test   %eax,%eax
   11407:	74 15                	je     1141e <task_uninit+0x28>
   11409:	8b 45 08             	mov    0x8(%ebp),%eax
   1140c:	8b 80 80 00 00 00    	mov    0x80(%eax),%eax
   11412:	83 ec 0c             	sub    $0xc,%esp
   11415:	50                   	push   %eax
   11416:	e8 47 fa ff ff       	call   10e62 <memory_destroy_uvm>
   1141b:	83 c4 10             	add    $0x10,%esp
   1141e:	83 ec 04             	sub    $0x4,%esp
   11421:	68 d4 02 00 00       	push   $0x2d4
   11426:	6a 00                	push   $0x0
   11428:	ff 75 08             	pushl  0x8(%ebp)
   1142b:	e8 2e 70 00 00       	call   1845e <kernel_memset>
   11430:	83 c4 10             	add    $0x10,%esp
   11433:	90                   	nop
   11434:	c9                   	leave  
   11435:	c3                   	ret    

00011436 <kernel_task_init>:
   11436:	55                   	push   %ebp
   11437:	89 e5                	mov    %esp,%ebp
   11439:	83 ec 18             	sub    $0x18,%esp
   1143c:	6a 00                	push   $0x0
   1143e:	ff 75 14             	pushl  0x14(%ebp)
   11441:	ff 75 10             	pushl  0x10(%ebp)
   11444:	ff 75 08             	pushl  0x8(%ebp)
   11447:	e8 82 fe ff ff       	call   112ce <tss_init>
   1144c:	83 c4 10             	add    $0x10,%esp
   1144f:	8b 45 08             	mov    0x8(%ebp),%eax
   11452:	c7 80 cc 00 00 00 01 	movl   $0x1,0xcc(%eax)
   11459:	00 00 00 
   1145c:	8b 45 08             	mov    0x8(%ebp),%eax
   1145f:	c7 40 08 00 00 00 00 	movl   $0x0,0x8(%eax)
   11466:	8b 45 08             	mov    0x8(%ebp),%eax
   11469:	83 c0 28             	add    $0x28,%eax
   1146c:	83 ec 04             	sub    $0x4,%esp
   1146f:	6a 20                	push   $0x20
   11471:	ff 75 0c             	pushl  0xc(%ebp)
   11474:	50                   	push   %eax
   11475:	e8 76 6e 00 00       	call   182f0 <kernel_strncpy>
   1147a:	83 c4 10             	add    $0x10,%esp
   1147d:	8b 45 08             	mov    0x8(%ebp),%eax
   11480:	c7 40 24 0a 00 00 00 	movl   $0xa,0x24(%eax)
   11487:	8b 45 08             	mov    0x8(%ebp),%eax
   1148a:	8b 50 24             	mov    0x24(%eax),%edx
   1148d:	8b 45 08             	mov    0x8(%ebp),%eax
   11490:	89 50 20             	mov    %edx,0x20(%eax)
   11493:	8b 45 08             	mov    0x8(%ebp),%eax
   11496:	c7 40 1c 00 00 00 00 	movl   $0x0,0x1c(%eax)
   1149d:	8b 45 08             	mov    0x8(%ebp),%eax
   114a0:	c7 40 04 00 00 00 00 	movl   $0x0,0x4(%eax)
   114a7:	8b 45 08             	mov    0x8(%ebp),%eax
   114aa:	c7 40 18 00 00 00 00 	movl   $0x0,0x18(%eax)
   114b1:	8b 45 08             	mov    0x8(%ebp),%eax
   114b4:	c7 40 0c 00 00 00 00 	movl   $0x0,0xc(%eax)
   114bb:	8b 45 08             	mov    0x8(%ebp),%eax
   114be:	c7 40 10 00 00 00 00 	movl   $0x0,0x10(%eax)
   114c5:	8b 55 08             	mov    0x8(%ebp),%edx
   114c8:	8b 45 08             	mov    0x8(%ebp),%eax
   114cb:	89 50 14             	mov    %edx,0x14(%eax)
   114ce:	8b 45 08             	mov    0x8(%ebp),%eax
   114d1:	c7 80 d0 00 00 00 00 	movl   $0x0,0xd0(%eax)
   114d8:	00 00 00 
   114db:	8b 45 08             	mov    0x8(%ebp),%eax
   114de:	83 c0 48             	add    $0x48,%eax
   114e1:	83 ec 0c             	sub    $0xc,%esp
   114e4:	50                   	push   %eax
   114e5:	e8 ae fc ff ff       	call   11198 <list_node_init>
   114ea:	83 c4 10             	add    $0x10,%esp
   114ed:	8b 45 08             	mov    0x8(%ebp),%eax
   114f0:	83 c0 50             	add    $0x50,%eax
   114f3:	83 ec 0c             	sub    $0xc,%esp
   114f6:	50                   	push   %eax
   114f7:	e8 9c fc ff ff       	call   11198 <list_node_init>
   114fc:	83 c4 10             	add    $0x10,%esp
   114ff:	8b 45 08             	mov    0x8(%ebp),%eax
   11502:	83 c0 58             	add    $0x58,%eax
   11505:	83 ec 0c             	sub    $0xc,%esp
   11508:	50                   	push   %eax
   11509:	e8 8a fc ff ff       	call   11198 <list_node_init>
   1150e:	83 c4 10             	add    $0x10,%esp
   11511:	8b 45 08             	mov    0x8(%ebp),%eax
   11514:	05 d4 00 00 00       	add    $0xd4,%eax
   11519:	83 ec 04             	sub    $0x4,%esp
   1151c:	68 00 02 00 00       	push   $0x200
   11521:	6a 00                	push   $0x0
   11523:	50                   	push   %eax
   11524:	e8 35 6f 00 00       	call   1845e <kernel_memset>
   11529:	83 c4 10             	add    $0x10,%esp
   1152c:	e8 68 20 00 00       	call   13599 <irq_enter_protection>
   11531:	89 45 f4             	mov    %eax,-0xc(%ebp)
   11534:	8b 45 08             	mov    0x8(%ebp),%eax
   11537:	83 c0 50             	add    $0x50,%eax
   1153a:	83 ec 08             	sub    $0x8,%esp
   1153d:	50                   	push   %eax
   1153e:	68 48 d0 01 00       	push   $0x1d048
   11543:	e8 c7 73 00 00       	call   1890f <list_insert_last>
   11548:	83 c4 10             	add    $0x10,%esp
   1154b:	83 ec 0c             	sub    $0xc,%esp
   1154e:	ff 75 f4             	pushl  -0xc(%ebp)
   11551:	e8 5b 20 00 00       	call   135b1 <irq_leave_protection>
   11556:	83 c4 10             	add    $0x10,%esp
   11559:	b8 00 00 00 00       	mov    $0x0,%eax
   1155e:	c9                   	leave  
   1155f:	c3                   	ret    

00011560 <user_task_init>:
   11560:	55                   	push   %ebp
   11561:	89 e5                	mov    %esp,%ebp
   11563:	83 ec 18             	sub    $0x18,%esp
   11566:	8b 45 08             	mov    0x8(%ebp),%eax
   11569:	c7 40 08 01 00 00 00 	movl   $0x1,0x8(%eax)
   11570:	8b 45 08             	mov    0x8(%ebp),%eax
   11573:	c7 80 cc 00 00 00 01 	movl   $0x1,0xcc(%eax)
   1157a:	00 00 00 
   1157d:	6a 01                	push   $0x1
   1157f:	ff 75 14             	pushl  0x14(%ebp)
   11582:	ff 75 10             	pushl  0x10(%ebp)
   11585:	ff 75 08             	pushl  0x8(%ebp)
   11588:	e8 41 fd ff ff       	call   112ce <tss_init>
   1158d:	83 c4 10             	add    $0x10,%esp
   11590:	8b 45 08             	mov    0x8(%ebp),%eax
   11593:	83 c0 28             	add    $0x28,%eax
   11596:	83 ec 04             	sub    $0x4,%esp
   11599:	6a 20                	push   $0x20
   1159b:	ff 75 0c             	pushl  0xc(%ebp)
   1159e:	50                   	push   %eax
   1159f:	e8 4c 6d 00 00       	call   182f0 <kernel_strncpy>
   115a4:	83 c4 10             	add    $0x10,%esp
   115a7:	8b 45 08             	mov    0x8(%ebp),%eax
   115aa:	c7 40 24 0a 00 00 00 	movl   $0xa,0x24(%eax)
   115b1:	8b 45 08             	mov    0x8(%ebp),%eax
   115b4:	8b 50 24             	mov    0x24(%eax),%edx
   115b7:	8b 45 08             	mov    0x8(%ebp),%eax
   115ba:	89 50 20             	mov    %edx,0x20(%eax)
   115bd:	8b 45 08             	mov    0x8(%ebp),%eax
   115c0:	c7 40 1c 00 00 00 00 	movl   $0x0,0x1c(%eax)
   115c7:	8b 45 08             	mov    0x8(%ebp),%eax
   115ca:	c7 40 04 00 00 00 00 	movl   $0x0,0x4(%eax)
   115d1:	8b 45 08             	mov    0x8(%ebp),%eax
   115d4:	c7 40 18 00 00 00 00 	movl   $0x0,0x18(%eax)
   115db:	8b 45 08             	mov    0x8(%ebp),%eax
   115de:	c7 40 0c 00 00 00 00 	movl   $0x0,0xc(%eax)
   115e5:	8b 45 08             	mov    0x8(%ebp),%eax
   115e8:	c7 40 10 00 00 00 00 	movl   $0x0,0x10(%eax)
   115ef:	8b 55 08             	mov    0x8(%ebp),%edx
   115f2:	8b 45 08             	mov    0x8(%ebp),%eax
   115f5:	89 50 14             	mov    %edx,0x14(%eax)
   115f8:	8b 45 08             	mov    0x8(%ebp),%eax
   115fb:	c7 80 d0 00 00 00 00 	movl   $0x0,0xd0(%eax)
   11602:	00 00 00 
   11605:	8b 45 08             	mov    0x8(%ebp),%eax
   11608:	83 c0 48             	add    $0x48,%eax
   1160b:	83 ec 0c             	sub    $0xc,%esp
   1160e:	50                   	push   %eax
   1160f:	e8 84 fb ff ff       	call   11198 <list_node_init>
   11614:	83 c4 10             	add    $0x10,%esp
   11617:	8b 45 08             	mov    0x8(%ebp),%eax
   1161a:	83 c0 50             	add    $0x50,%eax
   1161d:	83 ec 0c             	sub    $0xc,%esp
   11620:	50                   	push   %eax
   11621:	e8 72 fb ff ff       	call   11198 <list_node_init>
   11626:	83 c4 10             	add    $0x10,%esp
   11629:	8b 45 08             	mov    0x8(%ebp),%eax
   1162c:	83 c0 58             	add    $0x58,%eax
   1162f:	83 ec 0c             	sub    $0xc,%esp
   11632:	50                   	push   %eax
   11633:	e8 60 fb ff ff       	call   11198 <list_node_init>
   11638:	83 c4 10             	add    $0x10,%esp
   1163b:	8b 45 08             	mov    0x8(%ebp),%eax
   1163e:	05 d4 00 00 00       	add    $0xd4,%eax
   11643:	83 ec 04             	sub    $0x4,%esp
   11646:	68 00 02 00 00       	push   $0x200
   1164b:	6a 00                	push   $0x0
   1164d:	50                   	push   %eax
   1164e:	e8 0b 6e 00 00       	call   1845e <kernel_memset>
   11653:	83 c4 10             	add    $0x10,%esp
   11656:	e8 3e 1f 00 00       	call   13599 <irq_enter_protection>
   1165b:	89 45 f4             	mov    %eax,-0xc(%ebp)
   1165e:	8b 45 08             	mov    0x8(%ebp),%eax
   11661:	83 c0 50             	add    $0x50,%eax
   11664:	83 ec 08             	sub    $0x8,%esp
   11667:	50                   	push   %eax
   11668:	68 48 d0 01 00       	push   $0x1d048
   1166d:	e8 9d 72 00 00       	call   1890f <list_insert_last>
   11672:	83 c4 10             	add    $0x10,%esp
   11675:	83 ec 0c             	sub    $0xc,%esp
   11678:	ff 75 f4             	pushl  -0xc(%ebp)
   1167b:	e8 31 1f 00 00       	call   135b1 <irq_leave_protection>
   11680:	83 c4 10             	add    $0x10,%esp
   11683:	b8 00 00 00 00       	mov    $0x0,%eax
   11688:	c9                   	leave  
   11689:	c3                   	ret    

0001168a <task_start>:
   1168a:	55                   	push   %ebp
   1168b:	89 e5                	mov    %esp,%ebp
   1168d:	83 ec 18             	sub    $0x18,%esp
   11690:	e8 04 1f 00 00       	call   13599 <irq_enter_protection>
   11695:	89 45 f4             	mov    %eax,-0xc(%ebp)
   11698:	83 ec 0c             	sub    $0xc,%esp
   1169b:	ff 75 08             	pushl  0x8(%ebp)
   1169e:	e8 89 02 00 00       	call   1192c <task_set_ready>
   116a3:	83 c4 10             	add    $0x10,%esp
   116a6:	83 ec 0c             	sub    $0xc,%esp
   116a9:	ff 75 f4             	pushl  -0xc(%ebp)
   116ac:	e8 00 1f 00 00       	call   135b1 <irq_leave_protection>
   116b1:	83 c4 10             	add    $0x10,%esp
   116b4:	90                   	nop
   116b5:	c9                   	leave  
   116b6:	c3                   	ret    

000116b7 <idle_task_entry>:
   116b7:	55                   	push   %ebp
   116b8:	89 e5                	mov    %esp,%ebp
   116ba:	e8 31 fb ff ff       	call   111f0 <hlt>
   116bf:	eb f9                	jmp    116ba <idle_task_entry+0x3>

000116c1 <global_tss_init>:
   116c1:	55                   	push   %ebp
   116c2:	89 e5                	mov    %esp,%ebp
   116c4:	c7 05 04 d6 01 00 10 	movl   $0x10,0x1d604
   116cb:	00 00 00 
   116ce:	c7 05 00 d6 01 00 00 	movl   $0x0,0x1d600
   116d5:	00 00 00 
   116d8:	c7 05 48 d6 01 00 08 	movl   $0x8,0x1d648
   116df:	00 00 00 
   116e2:	c7 05 50 d6 01 00 10 	movl   $0x10,0x1d650
   116e9:	00 00 00 
   116ec:	c7 05 44 d6 01 00 10 	movl   $0x10,0x1d644
   116f3:	00 00 00 
   116f6:	c7 05 54 d6 01 00 10 	movl   $0x10,0x1d654
   116fd:	00 00 00 
   11700:	c7 05 58 d6 01 00 10 	movl   $0x10,0x1d658
   11707:	00 00 00 
   1170a:	90                   	nop
   1170b:	5d                   	pop    %ebp
   1170c:	c3                   	ret    

0001170d <task_gdt_init>:
   1170d:	55                   	push   %ebp
   1170e:	89 e5                	mov    %esp,%ebp
   11710:	83 ec 18             	sub    $0x18,%esp
   11713:	e8 2c 13 00 00       	call   12a44 <gdt_alloc_desc>
   11718:	89 45 f4             	mov    %eax,-0xc(%ebp)
   1171b:	68 fa 40 00 00       	push   $0x40fa
   11720:	6a ff                	push   $0xffffffff
   11722:	6a 00                	push   $0x0
   11724:	ff 75 f4             	pushl  -0xc(%ebp)
   11727:	e8 4e 12 00 00       	call   1297a <segment_desc_set>
   1172c:	83 c4 10             	add    $0x10,%esp
   1172f:	e8 10 13 00 00       	call   12a44 <gdt_alloc_desc>
   11734:	89 45 f4             	mov    %eax,-0xc(%ebp)
   11737:	68 f2 40 00 00       	push   $0x40f2
   1173c:	6a ff                	push   $0xffffffff
   1173e:	6a 00                	push   $0x0
   11740:	ff 75 f4             	pushl  -0xc(%ebp)
   11743:	e8 32 12 00 00       	call   1297a <segment_desc_set>
   11748:	83 c4 10             	add    $0x10,%esp
   1174b:	e8 f4 12 00 00       	call   12a44 <gdt_alloc_desc>
   11750:	89 45 f4             	mov    %eax,-0xc(%ebp)
   11753:	b8 fc d5 01 00       	mov    $0x1d5fc,%eax
   11758:	68 89 00 00 00       	push   $0x89
   1175d:	6a 68                	push   $0x68
   1175f:	50                   	push   %eax
   11760:	ff 75 f4             	pushl  -0xc(%ebp)
   11763:	e8 12 12 00 00       	call   1297a <segment_desc_set>
   11768:	83 c4 10             	add    $0x10,%esp
   1176b:	8b 45 f4             	mov    -0xc(%ebp),%eax
   1176e:	a3 64 d6 01 00       	mov    %eax,0x1d664
   11773:	90                   	nop
   11774:	c9                   	leave  
   11775:	c3                   	ret    

00011776 <task_manager_init>:
   11776:	55                   	push   %ebp
   11777:	89 e5                	mov    %esp,%ebp
   11779:	83 ec 08             	sub    $0x8,%esp
   1177c:	83 ec 04             	sub    $0x4,%esp
   1177f:	68 00 6a 01 00       	push   $0x16a00
   11784:	6a 00                	push   $0x0
   11786:	68 80 f6 01 00       	push   $0x1f680
   1178b:	e8 ce 6c 00 00       	call   1845e <kernel_memset>
   11790:	83 c4 10             	add    $0x10,%esp
   11793:	83 ec 0c             	sub    $0xc,%esp
   11796:	68 80 60 03 00       	push   $0x36080
   1179b:	e8 13 66 00 00       	call   17db3 <mutex_init>
   117a0:	83 c4 10             	add    $0x10,%esp
   117a3:	e8 65 ff ff ff       	call   1170d <task_gdt_init>
   117a8:	e8 14 ff ff ff       	call   116c1 <global_tss_init>
   117ad:	83 ec 0c             	sub    $0xc,%esp
   117b0:	68 30 d0 01 00       	push   $0x1d030
   117b5:	e8 d1 70 00 00       	call   1888b <list_init>
   117ba:	83 c4 10             	add    $0x10,%esp
   117bd:	83 ec 0c             	sub    $0xc,%esp
   117c0:	68 48 d0 01 00       	push   $0x1d048
   117c5:	e8 c1 70 00 00       	call   1888b <list_init>
   117ca:	83 c4 10             	add    $0x10,%esp
   117cd:	83 ec 0c             	sub    $0xc,%esp
   117d0:	68 3c d0 01 00       	push   $0x1d03c
   117d5:	e8 b1 70 00 00       	call   1888b <list_init>
   117da:	83 c4 10             	add    $0x10,%esp
   117dd:	c7 05 2c d0 01 00 00 	movl   $0x0,0x1d02c
   117e4:	00 00 00 
   117e7:	c7 05 24 d0 01 00 00 	movl   $0x0,0x1d024
   117ee:	00 00 00 
   117f1:	c7 05 28 d0 01 00 00 	movl   $0x0,0x1d028
   117f8:	00 00 00 
   117fb:	c7 05 20 d0 01 00 00 	movl   $0x0,0x1d020
   11802:	00 00 00 
   11805:	ba 80 e6 01 00       	mov    $0x1e680,%edx
   1180a:	b8 b7 16 01 00       	mov    $0x116b7,%eax
   1180f:	52                   	push   %edx
   11810:	50                   	push   %eax
   11811:	68 54 8d 01 00       	push   $0x18d54
   11816:	68 28 d3 01 00       	push   $0x1d328
   1181b:	e8 16 fc ff ff       	call   11436 <kernel_task_init>
   11820:	83 c4 10             	add    $0x10,%esp
   11823:	83 ec 0c             	sub    $0xc,%esp
   11826:	68 28 d3 01 00       	push   $0x1d328
   1182b:	e8 5a fe ff ff       	call   1168a <task_start>
   11830:	83 c4 10             	add    $0x10,%esp
   11833:	90                   	nop
   11834:	c9                   	leave  
   11835:	c3                   	ret    

00011836 <task_first_init>:
   11836:	55                   	push   %ebp
   11837:	89 e5                	mov    %esp,%ebp
   11839:	83 ec 18             	sub    $0x18,%esp
   1183c:	ba 4f 0c 06 00       	mov    $0x60c4f,%edx
   11841:	b8 f0 08 06 00       	mov    $0x608f0,%eax
   11846:	29 c2                	sub    %eax,%edx
   11848:	89 d0                	mov    %edx,%eax
   1184a:	89 45 f4             	mov    %eax,-0xc(%ebp)
   1184d:	c7 45 f0 00 a0 00 00 	movl   $0xa000,-0x10(%ebp)
   11854:	c7 45 ec 00 00 00 80 	movl   $0x80000000,-0x14(%ebp)
   1185b:	8b 55 ec             	mov    -0x14(%ebp),%edx
   1185e:	8b 45 f0             	mov    -0x10(%ebp),%eax
   11861:	01 d0                	add    %edx,%eax
   11863:	50                   	push   %eax
   11864:	ff 75 ec             	pushl  -0x14(%ebp)
   11867:	68 5e 8d 01 00       	push   $0x18d5e
   1186c:	68 54 d0 01 00       	push   $0x1d054
   11871:	e8 c0 fb ff ff       	call   11436 <kernel_task_init>
   11876:	83 c4 10             	add    $0x10,%esp
   11879:	a1 bc d0 01 00       	mov    0x1d0bc,%eax
   1187e:	a3 00 d6 01 00       	mov    %eax,0x1d600
   11883:	b8 4f 0c 06 00       	mov    $0x60c4f,%eax
   11888:	a3 60 d0 01 00       	mov    %eax,0x1d060
   1188d:	b8 4f 0c 06 00       	mov    $0x60c4f,%eax
   11892:	a3 64 d0 01 00       	mov    %eax,0x1d064
   11897:	a1 64 d6 01 00       	mov    0x1d664,%eax
   1189c:	0f b7 c0             	movzwl %ax,%eax
   1189f:	83 ec 0c             	sub    $0xc,%esp
   118a2:	50                   	push   %eax
   118a3:	e8 4f f9 ff ff       	call   111f7 <write_tr>
   118a8:	83 c4 10             	add    $0x10,%esp
   118ab:	c7 05 2c d0 01 00 54 	movl   $0x1d054,0x1d02c
   118b2:	d0 01 00 
   118b5:	a1 2c d0 01 00       	mov    0x1d02c,%eax
   118ba:	83 ec 0c             	sub    $0xc,%esp
   118bd:	50                   	push   %eax
   118be:	e8 18 05 00 00       	call   11ddb <mmu_set_page_dir_task>
   118c3:	83 c4 10             	add    $0x10,%esp
   118c6:	83 ec 04             	sub    $0x4,%esp
   118c9:	6a 07                	push   $0x7
   118cb:	ff 75 f0             	pushl  -0x10(%ebp)
   118ce:	ff 75 ec             	pushl  -0x14(%ebp)
   118d1:	e8 ba f3 ff ff       	call   10c90 <memory_alloc_page_for>
   118d6:	83 c4 10             	add    $0x10,%esp
   118d9:	8b 55 f4             	mov    -0xc(%ebp),%edx
   118dc:	8b 45 ec             	mov    -0x14(%ebp),%eax
   118df:	83 ec 04             	sub    $0x4,%esp
   118e2:	52                   	push   %edx
   118e3:	68 f0 08 06 00       	push   $0x608f0
   118e8:	50                   	push   %eax
   118e9:	e8 21 6b 00 00       	call   1840f <kernel_memcpy>
   118ee:	83 c4 10             	add    $0x10,%esp
   118f1:	83 ec 0c             	sub    $0xc,%esp
   118f4:	68 54 d0 01 00       	push   $0x1d054
   118f9:	e8 8c fd ff ff       	call   1168a <task_start>
   118fe:	83 c4 10             	add    $0x10,%esp
   11901:	90                   	nop
   11902:	c9                   	leave  
   11903:	c3                   	ret    

00011904 <get_from_task>:
   11904:	55                   	push   %ebp
   11905:	89 e5                	mov    %esp,%ebp
   11907:	a1 24 d0 01 00       	mov    0x1d024,%eax
   1190c:	5d                   	pop    %ebp
   1190d:	c3                   	ret    

0001190e <get_to_task>:
   1190e:	55                   	push   %ebp
   1190f:	89 e5                	mov    %esp,%ebp
   11911:	a1 28 d0 01 00       	mov    0x1d028,%eax
   11916:	5d                   	pop    %ebp
   11917:	c3                   	ret    

00011918 <task_is_need_reschedule>:
   11918:	55                   	push   %ebp
   11919:	89 e5                	mov    %esp,%ebp
   1191b:	a1 20 d0 01 00       	mov    0x1d020,%eax
   11920:	5d                   	pop    %ebp
   11921:	c3                   	ret    

00011922 <task_first_task>:
   11922:	55                   	push   %ebp
   11923:	89 e5                	mov    %esp,%ebp
   11925:	b8 54 d0 01 00       	mov    $0x1d054,%eax
   1192a:	5d                   	pop    %ebp
   1192b:	c3                   	ret    

0001192c <task_set_ready>:
   1192c:	55                   	push   %ebp
   1192d:	89 e5                	mov    %esp,%ebp
   1192f:	83 ec 08             	sub    $0x8,%esp
   11932:	81 7d 08 28 d3 01 00 	cmpl   $0x1d328,0x8(%ebp)
   11939:	74 23                	je     1195e <task_set_ready+0x32>
   1193b:	8b 45 08             	mov    0x8(%ebp),%eax
   1193e:	83 c0 48             	add    $0x48,%eax
   11941:	83 ec 08             	sub    $0x8,%esp
   11944:	50                   	push   %eax
   11945:	68 30 d0 01 00       	push   $0x1d030
   1194a:	e8 c0 6f 00 00       	call   1890f <list_insert_last>
   1194f:	83 c4 10             	add    $0x10,%esp
   11952:	8b 45 08             	mov    0x8(%ebp),%eax
   11955:	c7 40 04 02 00 00 00 	movl   $0x2,0x4(%eax)
   1195c:	eb 01                	jmp    1195f <task_set_ready+0x33>
   1195e:	90                   	nop
   1195f:	c9                   	leave  
   11960:	c3                   	ret    

00011961 <task_set_block>:
   11961:	55                   	push   %ebp
   11962:	89 e5                	mov    %esp,%ebp
   11964:	83 ec 08             	sub    $0x8,%esp
   11967:	81 7d 08 28 d3 01 00 	cmpl   $0x1d328,0x8(%ebp)
   1196e:	74 19                	je     11989 <task_set_block+0x28>
   11970:	8b 45 08             	mov    0x8(%ebp),%eax
   11973:	83 c0 48             	add    $0x48,%eax
   11976:	83 ec 08             	sub    $0x8,%esp
   11979:	50                   	push   %eax
   1197a:	68 30 d0 01 00       	push   $0x1d030
   1197f:	e8 66 70 00 00       	call   189ea <list_remove>
   11984:	83 c4 10             	add    $0x10,%esp
   11987:	eb 01                	jmp    1198a <task_set_block+0x29>
   11989:	90                   	nop
   1198a:	c9                   	leave  
   1198b:	c3                   	ret    

0001198c <task_current>:
   1198c:	55                   	push   %ebp
   1198d:	89 e5                	mov    %esp,%ebp
   1198f:	a1 2c d0 01 00       	mov    0x1d02c,%eax
   11994:	5d                   	pop    %ebp
   11995:	c3                   	ret    

00011996 <sys_sched_yield>:
   11996:	55                   	push   %ebp
   11997:	89 e5                	mov    %esp,%ebp
   11999:	83 ec 18             	sub    $0x18,%esp
   1199c:	e8 f8 1b 00 00       	call   13599 <irq_enter_protection>
   119a1:	89 45 f4             	mov    %eax,-0xc(%ebp)
   119a4:	83 ec 0c             	sub    $0xc,%esp
   119a7:	68 30 d0 01 00       	push   $0x1d030
   119ac:	e8 0d f8 ff ff       	call   111be <list_count>
   119b1:	83 c4 10             	add    $0x10,%esp
   119b4:	83 f8 01             	cmp    $0x1,%eax
   119b7:	7e 29                	jle    119e2 <sys_sched_yield+0x4c>
   119b9:	e8 ce ff ff ff       	call   1198c <task_current>
   119be:	89 45 f0             	mov    %eax,-0x10(%ebp)
   119c1:	83 ec 0c             	sub    $0xc,%esp
   119c4:	ff 75 f0             	pushl  -0x10(%ebp)
   119c7:	e8 95 ff ff ff       	call   11961 <task_set_block>
   119cc:	83 c4 10             	add    $0x10,%esp
   119cf:	83 ec 0c             	sub    $0xc,%esp
   119d2:	ff 75 f0             	pushl  -0x10(%ebp)
   119d5:	e8 52 ff ff ff       	call   1192c <task_set_ready>
   119da:	83 c4 10             	add    $0x10,%esp
   119dd:	e8 81 02 00 00       	call   11c63 <schedule_switch>
   119e2:	83 ec 0c             	sub    $0xc,%esp
   119e5:	ff 75 f4             	pushl  -0xc(%ebp)
   119e8:	e8 c4 1b 00 00       	call   135b1 <irq_leave_protection>
   119ed:	83 c4 10             	add    $0x10,%esp
   119f0:	b8 00 00 00 00       	mov    $0x0,%eax
   119f5:	c9                   	leave  
   119f6:	c3                   	ret    

000119f7 <sys_exit>:
   119f7:	55                   	push   %ebp
   119f8:	89 e5                	mov    %esp,%ebp
   119fa:	83 ec 28             	sub    $0x28,%esp
   119fd:	e8 8a ff ff ff       	call   1198c <task_current>
   11a02:	89 45 e8             	mov    %eax,-0x18(%ebp)
   11a05:	c7 45 f4 00 00 00 00 	movl   $0x0,-0xc(%ebp)
   11a0c:	eb 39                	jmp    11a47 <sys_exit+0x50>
   11a0e:	8b 45 e8             	mov    -0x18(%ebp),%eax
   11a11:	8b 55 f4             	mov    -0xc(%ebp),%edx
   11a14:	83 c2 34             	add    $0x34,%edx
   11a17:	8b 44 90 04          	mov    0x4(%eax,%edx,4),%eax
   11a1b:	89 45 dc             	mov    %eax,-0x24(%ebp)
   11a1e:	83 7d dc 00          	cmpl   $0x0,-0x24(%ebp)
   11a22:	74 1f                	je     11a43 <sys_exit+0x4c>
   11a24:	83 ec 0c             	sub    $0xc,%esp
   11a27:	ff 75 f4             	pushl  -0xc(%ebp)
   11a2a:	e8 4f 5c 00 00       	call   1767e <sys_close>
   11a2f:	83 c4 10             	add    $0x10,%esp
   11a32:	8b 45 e8             	mov    -0x18(%ebp),%eax
   11a35:	8b 55 f4             	mov    -0xc(%ebp),%edx
   11a38:	83 c2 34             	add    $0x34,%edx
   11a3b:	c7 44 90 04 00 00 00 	movl   $0x0,0x4(%eax,%edx,4)
   11a42:	00 
   11a43:	83 45 f4 01          	addl   $0x1,-0xc(%ebp)
   11a47:	83 7d f4 7f          	cmpl   $0x7f,-0xc(%ebp)
   11a4b:	7e c1                	jle    11a0e <sys_exit+0x17>
   11a4d:	c7 45 f0 00 00 00 00 	movl   $0x0,-0x10(%ebp)
   11a54:	83 ec 0c             	sub    $0xc,%esp
   11a57:	68 80 60 03 00       	push   $0x36080
   11a5c:	e8 7e 63 00 00       	call   17ddf <mutex_lock>
   11a61:	83 c4 10             	add    $0x10,%esp
   11a64:	c7 45 ec 00 00 00 00 	movl   $0x0,-0x14(%ebp)
   11a6b:	eb 3b                	jmp    11aa8 <sys_exit+0xb1>
   11a6d:	8b 45 ec             	mov    -0x14(%ebp),%eax
   11a70:	69 c0 d4 02 00 00    	imul   $0x2d4,%eax,%eax
   11a76:	05 80 f6 01 00       	add    $0x1f680,%eax
   11a7b:	89 45 e0             	mov    %eax,-0x20(%ebp)
   11a7e:	8b 45 e0             	mov    -0x20(%ebp),%eax
   11a81:	8b 40 18             	mov    0x18(%eax),%eax
   11a84:	39 45 e8             	cmp    %eax,-0x18(%ebp)
   11a87:	75 1b                	jne    11aa4 <sys_exit+0xad>
   11a89:	8b 45 e0             	mov    -0x20(%ebp),%eax
   11a8c:	c7 40 18 54 d0 01 00 	movl   $0x1d054,0x18(%eax)
   11a93:	8b 45 e0             	mov    -0x20(%ebp),%eax
   11a96:	c7 40 04 07 00 00 00 	movl   $0x7,0x4(%eax)
   11a9d:	c7 45 f0 01 00 00 00 	movl   $0x1,-0x10(%ebp)
   11aa4:	83 45 ec 01          	addl   $0x1,-0x14(%ebp)
   11aa8:	83 7d ec 7f          	cmpl   $0x7f,-0x14(%ebp)
   11aac:	7e bf                	jle    11a6d <sys_exit+0x76>
   11aae:	83 ec 0c             	sub    $0xc,%esp
   11ab1:	68 80 60 03 00       	push   $0x36080
   11ab6:	e8 b4 63 00 00       	call   17e6f <mutex_unlock>
   11abb:	83 c4 10             	add    $0x10,%esp
   11abe:	8b 45 e8             	mov    -0x18(%ebp),%eax
   11ac1:	8b 40 18             	mov    0x18(%eax),%eax
   11ac4:	89 45 e4             	mov    %eax,-0x1c(%ebp)
   11ac7:	83 7d f0 00          	cmpl   $0x0,-0x10(%ebp)
   11acb:	74 23                	je     11af0 <sys_exit+0xf9>
   11acd:	81 7d e4 54 d0 01 00 	cmpl   $0x1d054,-0x1c(%ebp)
   11ad4:	74 1a                	je     11af0 <sys_exit+0xf9>
   11ad6:	a1 58 d0 01 00       	mov    0x1d058,%eax
   11adb:	83 f8 05             	cmp    $0x5,%eax
   11ade:	75 10                	jne    11af0 <sys_exit+0xf9>
   11ae0:	83 ec 0c             	sub    $0xc,%esp
   11ae3:	68 54 d0 01 00       	push   $0x1d054
   11ae8:	e8 3f fe ff ff       	call   1192c <task_set_ready>
   11aed:	83 c4 10             	add    $0x10,%esp
   11af0:	83 7d e4 00          	cmpl   $0x0,-0x1c(%ebp)
   11af4:	74 1d                	je     11b13 <sys_exit+0x11c>
   11af6:	8b 45 e4             	mov    -0x1c(%ebp),%eax
   11af9:	8b 40 04             	mov    0x4(%eax),%eax
   11afc:	83 f8 05             	cmp    $0x5,%eax
   11aff:	75 12                	jne    11b13 <sys_exit+0x11c>
   11b01:	8b 45 e8             	mov    -0x18(%ebp),%eax
   11b04:	8b 40 18             	mov    0x18(%eax),%eax
   11b07:	83 ec 0c             	sub    $0xc,%esp
   11b0a:	50                   	push   %eax
   11b0b:	e8 1c fe ff ff       	call   1192c <task_set_ready>
   11b10:	83 c4 10             	add    $0x10,%esp
   11b13:	8b 45 e8             	mov    -0x18(%ebp),%eax
   11b16:	c7 40 04 07 00 00 00 	movl   $0x7,0x4(%eax)
   11b1d:	8b 45 e8             	mov    -0x18(%ebp),%eax
   11b20:	8b 55 08             	mov    0x8(%ebp),%edx
   11b23:	89 90 d0 00 00 00    	mov    %edx,0xd0(%eax)
   11b29:	83 ec 0c             	sub    $0xc,%esp
   11b2c:	ff 75 e8             	pushl  -0x18(%ebp)
   11b2f:	e8 2d fe ff ff       	call   11961 <task_set_block>
   11b34:	83 c4 10             	add    $0x10,%esp
   11b37:	e8 27 01 00 00       	call   11c63 <schedule_switch>
   11b3c:	e8 af f6 ff ff       	call   111f0 <hlt>
   11b41:	eb f9                	jmp    11b3c <sys_exit+0x145>

00011b43 <sys_wait>:
   11b43:	55                   	push   %ebp
   11b44:	89 e5                	mov    %esp,%ebp
   11b46:	83 ec 18             	sub    $0x18,%esp
   11b49:	e8 3e fe ff ff       	call   1198c <task_current>
   11b4e:	89 45 f0             	mov    %eax,-0x10(%ebp)
   11b51:	c7 45 f4 00 00 00 00 	movl   $0x0,-0xc(%ebp)
   11b58:	e9 88 00 00 00       	jmp    11be5 <sys_wait+0xa2>
   11b5d:	8b 45 f4             	mov    -0xc(%ebp),%eax
   11b60:	69 c0 d4 02 00 00    	imul   $0x2d4,%eax,%eax
   11b66:	05 80 f6 01 00       	add    $0x1f680,%eax
   11b6b:	89 45 ec             	mov    %eax,-0x14(%ebp)
   11b6e:	8b 45 ec             	mov    -0x14(%ebp),%eax
   11b71:	8b 40 18             	mov    0x18(%eax),%eax
   11b74:	39 45 f0             	cmp    %eax,-0x10(%ebp)
   11b77:	75 68                	jne    11be1 <sys_wait+0x9e>
   11b79:	8b 45 ec             	mov    -0x14(%ebp),%eax
   11b7c:	8b 40 04             	mov    0x4(%eax),%eax
   11b7f:	83 f8 07             	cmp    $0x7,%eax
   11b82:	75 5d                	jne    11be1 <sys_wait+0x9e>
   11b84:	8b 45 ec             	mov    -0x14(%ebp),%eax
   11b87:	8b 40 14             	mov    0x14(%eax),%eax
   11b8a:	89 45 e8             	mov    %eax,-0x18(%ebp)
   11b8d:	8b 45 ec             	mov    -0x14(%ebp),%eax
   11b90:	8b 90 d0 00 00 00    	mov    0xd0(%eax),%edx
   11b96:	8b 45 08             	mov    0x8(%ebp),%eax
   11b99:	89 10                	mov    %edx,(%eax)
   11b9b:	8b 45 ec             	mov    -0x14(%ebp),%eax
   11b9e:	8b 80 80 00 00 00    	mov    0x80(%eax),%eax
   11ba4:	83 ec 0c             	sub    $0xc,%esp
   11ba7:	50                   	push   %eax
   11ba8:	e8 b5 f2 ff ff       	call   10e62 <memory_destroy_uvm>
   11bad:	83 c4 10             	add    $0x10,%esp
   11bb0:	8b 45 ec             	mov    -0x14(%ebp),%eax
   11bb3:	8b 40 68             	mov    0x68(%eax),%eax
   11bb6:	2d 00 10 00 00       	sub    $0x1000,%eax
   11bbb:	83 ec 0c             	sub    $0xc,%esp
   11bbe:	50                   	push   %eax
   11bbf:	e8 c0 ef ff ff       	call   10b84 <memory_free_page>
   11bc4:	83 c4 10             	add    $0x10,%esp
   11bc7:	83 ec 04             	sub    $0x4,%esp
   11bca:	68 d4 02 00 00       	push   $0x2d4
   11bcf:	6a 00                	push   $0x0
   11bd1:	ff 75 ec             	pushl  -0x14(%ebp)
   11bd4:	e8 85 68 00 00       	call   1845e <kernel_memset>
   11bd9:	83 c4 10             	add    $0x10,%esp
   11bdc:	8b 45 e8             	mov    -0x18(%ebp),%eax
   11bdf:	eb 30                	jmp    11c11 <sys_wait+0xce>
   11be1:	83 45 f4 01          	addl   $0x1,-0xc(%ebp)
   11be5:	83 7d f4 7f          	cmpl   $0x7f,-0xc(%ebp)
   11be9:	0f 8e 6e ff ff ff    	jle    11b5d <sys_wait+0x1a>
   11bef:	83 ec 0c             	sub    $0xc,%esp
   11bf2:	ff 75 f0             	pushl  -0x10(%ebp)
   11bf5:	e8 67 fd ff ff       	call   11961 <task_set_block>
   11bfa:	83 c4 10             	add    $0x10,%esp
   11bfd:	8b 45 f0             	mov    -0x10(%ebp),%eax
   11c00:	c7 40 04 05 00 00 00 	movl   $0x5,0x4(%eax)
   11c07:	e8 57 00 00 00       	call   11c63 <schedule_switch>
   11c0c:	e9 40 ff ff ff       	jmp    11b51 <sys_wait+0xe>
   11c11:	c9                   	leave  
   11c12:	c3                   	ret    

00011c13 <task_next_run>:
   11c13:	55                   	push   %ebp
   11c14:	89 e5                	mov    %esp,%ebp
   11c16:	83 ec 10             	sub    $0x10,%esp
   11c19:	68 30 d0 01 00       	push   $0x1d030
   11c1e:	e8 9b f5 ff ff       	call   111be <list_count>
   11c23:	83 c4 04             	add    $0x4,%esp
   11c26:	85 c0                	test   %eax,%eax
   11c28:	75 07                	jne    11c31 <task_next_run+0x1e>
   11c2a:	b8 28 d3 01 00       	mov    $0x1d328,%eax
   11c2f:	eb 30                	jmp    11c61 <task_next_run+0x4e>
   11c31:	68 30 d0 01 00       	push   $0x1d030
   11c36:	e8 8e f5 ff ff       	call   111c9 <list_first>
   11c3b:	83 c4 04             	add    $0x4,%esp
   11c3e:	89 45 fc             	mov    %eax,-0x4(%ebp)
   11c41:	83 7d fc 00          	cmpl   $0x0,-0x4(%ebp)
   11c45:	74 15                	je     11c5c <task_next_run+0x49>
   11c47:	83 7d fc 00          	cmpl   $0x0,-0x4(%ebp)
   11c4b:	74 08                	je     11c55 <task_next_run+0x42>
   11c4d:	8b 45 fc             	mov    -0x4(%ebp),%eax
   11c50:	83 e8 48             	sub    $0x48,%eax
   11c53:	eb 0c                	jmp    11c61 <task_next_run+0x4e>
   11c55:	b8 00 00 00 00       	mov    $0x0,%eax
   11c5a:	eb 05                	jmp    11c61 <task_next_run+0x4e>
   11c5c:	b8 00 00 00 00       	mov    $0x0,%eax
   11c61:	c9                   	leave  
   11c62:	c3                   	ret    

00011c63 <schedule_switch>:
   11c63:	55                   	push   %ebp
   11c64:	89 e5                	mov    %esp,%ebp
   11c66:	83 ec 18             	sub    $0x18,%esp
   11c69:	e8 2b 19 00 00       	call   13599 <irq_enter_protection>
   11c6e:	89 45 f4             	mov    %eax,-0xc(%ebp)
   11c71:	e8 16 00 00 00       	call   11c8c <task_dispatch>
   11c76:	e8 c4 02 00 00       	call   11f3f <schedule_next_task>
   11c7b:	83 ec 0c             	sub    $0xc,%esp
   11c7e:	ff 75 f4             	pushl  -0xc(%ebp)
   11c81:	e8 2b 19 00 00       	call   135b1 <irq_leave_protection>
   11c86:	83 c4 10             	add    $0x10,%esp
   11c89:	90                   	nop
   11c8a:	c9                   	leave  
   11c8b:	c3                   	ret    

00011c8c <task_dispatch>:
   11c8c:	55                   	push   %ebp
   11c8d:	89 e5                	mov    %esp,%ebp
   11c8f:	83 ec 18             	sub    $0x18,%esp
   11c92:	e8 02 19 00 00       	call   13599 <irq_enter_protection>
   11c97:	89 45 f4             	mov    %eax,-0xc(%ebp)
   11c9a:	e8 74 ff ff ff       	call   11c13 <task_next_run>
   11c9f:	89 45 f0             	mov    %eax,-0x10(%ebp)
   11ca2:	e8 e5 fc ff ff       	call   1198c <task_current>
   11ca7:	39 45 f0             	cmp    %eax,-0x10(%ebp)
   11caa:	74 34                	je     11ce0 <task_dispatch+0x54>
   11cac:	e8 db fc ff ff       	call   1198c <task_current>
   11cb1:	89 45 ec             	mov    %eax,-0x14(%ebp)
   11cb4:	8b 45 f0             	mov    -0x10(%ebp),%eax
   11cb7:	a3 2c d0 01 00       	mov    %eax,0x1d02c
   11cbc:	8b 45 f0             	mov    -0x10(%ebp),%eax
   11cbf:	c7 40 04 01 00 00 00 	movl   $0x1,0x4(%eax)
   11cc6:	c7 05 20 d0 01 00 01 	movl   $0x1,0x1d020
   11ccd:	00 00 00 
   11cd0:	8b 45 ec             	mov    -0x14(%ebp),%eax
   11cd3:	a3 24 d0 01 00       	mov    %eax,0x1d024
   11cd8:	8b 45 f0             	mov    -0x10(%ebp),%eax
   11cdb:	a3 28 d0 01 00       	mov    %eax,0x1d028
   11ce0:	83 ec 0c             	sub    $0xc,%esp
   11ce3:	ff 75 f4             	pushl  -0xc(%ebp)
   11ce6:	e8 c6 18 00 00       	call   135b1 <irq_leave_protection>
   11ceb:	83 c4 10             	add    $0x10,%esp
   11cee:	90                   	nop
   11cef:	c9                   	leave  
   11cf0:	c3                   	ret    

00011cf1 <task_time_tick>:
   11cf1:	55                   	push   %ebp
   11cf2:	89 e5                	mov    %esp,%ebp
   11cf4:	83 ec 18             	sub    $0x18,%esp
   11cf7:	a1 20 d0 01 00       	mov    0x1d020,%eax
   11cfc:	85 c0                	test   %eax,%eax
   11cfe:	0f 85 d4 00 00 00    	jne    11dd8 <task_time_tick+0xe7>
   11d04:	e8 83 fc ff ff       	call   1198c <task_current>
   11d09:	85 c0                	test   %eax,%eax
   11d0b:	0f 84 c7 00 00 00    	je     11dd8 <task_time_tick+0xe7>
   11d11:	68 3c d0 01 00       	push   $0x1d03c
   11d16:	e8 ae f4 ff ff       	call   111c9 <list_first>
   11d1b:	83 c4 04             	add    $0x4,%esp
   11d1e:	89 45 f4             	mov    %eax,-0xc(%ebp)
   11d21:	eb 5f                	jmp    11d82 <task_time_tick+0x91>
   11d23:	ff 75 f4             	pushl  -0xc(%ebp)
   11d26:	e8 88 f4 ff ff       	call   111b3 <list_node_next>
   11d2b:	83 c4 04             	add    $0x4,%esp
   11d2e:	89 45 ec             	mov    %eax,-0x14(%ebp)
   11d31:	83 7d f4 00          	cmpl   $0x0,-0xc(%ebp)
   11d35:	74 08                	je     11d3f <task_time_tick+0x4e>
   11d37:	8b 45 f4             	mov    -0xc(%ebp),%eax
   11d3a:	83 e8 48             	sub    $0x48,%eax
   11d3d:	eb 05                	jmp    11d44 <task_time_tick+0x53>
   11d3f:	b8 00 00 00 00       	mov    $0x0,%eax
   11d44:	89 45 e8             	mov    %eax,-0x18(%ebp)
   11d47:	8b 45 e8             	mov    -0x18(%ebp),%eax
   11d4a:	8b 40 1c             	mov    0x1c(%eax),%eax
   11d4d:	8d 50 ff             	lea    -0x1(%eax),%edx
   11d50:	8b 45 e8             	mov    -0x18(%ebp),%eax
   11d53:	89 50 1c             	mov    %edx,0x1c(%eax)
   11d56:	8b 45 e8             	mov    -0x18(%ebp),%eax
   11d59:	8b 40 1c             	mov    0x1c(%eax),%eax
   11d5c:	85 c0                	test   %eax,%eax
   11d5e:	7f 1c                	jg     11d7c <task_time_tick+0x8b>
   11d60:	83 ec 0c             	sub    $0xc,%esp
   11d63:	ff 75 e8             	pushl  -0x18(%ebp)
   11d66:	e8 57 01 00 00       	call   11ec2 <task_set_wakeup>
   11d6b:	83 c4 10             	add    $0x10,%esp
   11d6e:	83 ec 0c             	sub    $0xc,%esp
   11d71:	ff 75 e8             	pushl  -0x18(%ebp)
   11d74:	e8 b3 fb ff ff       	call   1192c <task_set_ready>
   11d79:	83 c4 10             	add    $0x10,%esp
   11d7c:	8b 45 ec             	mov    -0x14(%ebp),%eax
   11d7f:	89 45 f4             	mov    %eax,-0xc(%ebp)
   11d82:	83 7d f4 00          	cmpl   $0x0,-0xc(%ebp)
   11d86:	75 9b                	jne    11d23 <task_time_tick+0x32>
   11d88:	e8 ff fb ff ff       	call   1198c <task_current>
   11d8d:	89 45 f0             	mov    %eax,-0x10(%ebp)
   11d90:	8b 45 f0             	mov    -0x10(%ebp),%eax
   11d93:	8b 40 20             	mov    0x20(%eax),%eax
   11d96:	8d 50 ff             	lea    -0x1(%eax),%edx
   11d99:	8b 45 f0             	mov    -0x10(%ebp),%eax
   11d9c:	89 50 20             	mov    %edx,0x20(%eax)
   11d9f:	8b 45 f0             	mov    -0x10(%ebp),%eax
   11da2:	8b 40 20             	mov    0x20(%eax),%eax
   11da5:	85 c0                	test   %eax,%eax
   11da7:	7f 30                	jg     11dd9 <task_time_tick+0xe8>
   11da9:	8b 45 f0             	mov    -0x10(%ebp),%eax
   11dac:	8b 50 24             	mov    0x24(%eax),%edx
   11daf:	8b 45 f0             	mov    -0x10(%ebp),%eax
   11db2:	89 50 20             	mov    %edx,0x20(%eax)
   11db5:	83 ec 0c             	sub    $0xc,%esp
   11db8:	ff 75 f0             	pushl  -0x10(%ebp)
   11dbb:	e8 a1 fb ff ff       	call   11961 <task_set_block>
   11dc0:	83 c4 10             	add    $0x10,%esp
   11dc3:	83 ec 0c             	sub    $0xc,%esp
   11dc6:	ff 75 f0             	pushl  -0x10(%ebp)
   11dc9:	e8 5e fb ff ff       	call   1192c <task_set_ready>
   11dce:	83 c4 10             	add    $0x10,%esp
   11dd1:	e8 8d fe ff ff       	call   11c63 <schedule_switch>
   11dd6:	eb 01                	jmp    11dd9 <task_time_tick+0xe8>
   11dd8:	90                   	nop
   11dd9:	c9                   	leave  
   11dda:	c3                   	ret    

00011ddb <mmu_set_page_dir_task>:
   11ddb:	55                   	push   %ebp
   11ddc:	89 e5                	mov    %esp,%ebp
   11dde:	53                   	push   %ebx
   11ddf:	83 7d 08 00          	cmpl   $0x0,0x8(%ebp)
   11de3:	74 33                	je     11e18 <mmu_set_page_dir_task+0x3d>
   11de5:	8b 45 08             	mov    0x8(%ebp),%eax
   11de8:	8b 98 80 00 00 00    	mov    0x80(%eax),%ebx
   11dee:	e8 e0 f3 ff ff       	call   111d3 <read_cr3>
   11df3:	39 c3                	cmp    %eax,%ebx
   11df5:	74 22                	je     11e19 <mmu_set_page_dir_task+0x3e>
   11df7:	8b 45 08             	mov    0x8(%ebp),%eax
   11dfa:	8b 80 80 00 00 00    	mov    0x80(%eax),%eax
   11e00:	85 c0                	test   %eax,%eax
   11e02:	74 15                	je     11e19 <mmu_set_page_dir_task+0x3e>
   11e04:	8b 45 08             	mov    0x8(%ebp),%eax
   11e07:	8b 80 80 00 00 00    	mov    0x80(%eax),%eax
   11e0d:	50                   	push   %eax
   11e0e:	e8 d1 f3 ff ff       	call   111e4 <write_cr3>
   11e13:	83 c4 04             	add    $0x4,%esp
   11e16:	eb 01                	jmp    11e19 <mmu_set_page_dir_task+0x3e>
   11e18:	90                   	nop
   11e19:	8b 5d fc             	mov    -0x4(%ebp),%ebx
   11e1c:	c9                   	leave  
   11e1d:	c3                   	ret    

00011e1e <sys_getpid>:
   11e1e:	55                   	push   %ebp
   11e1f:	89 e5                	mov    %esp,%ebp
   11e21:	e8 66 fb ff ff       	call   1198c <task_current>
   11e26:	8b 40 14             	mov    0x14(%eax),%eax
   11e29:	5d                   	pop    %ebp
   11e2a:	c3                   	ret    

00011e2b <do_schedule_switch>:
   11e2b:	55                   	push   %ebp
   11e2c:	89 e5                	mov    %esp,%ebp
   11e2e:	83 ec 08             	sub    $0x8,%esp
   11e31:	a1 20 d0 01 00       	mov    0x1d020,%eax
   11e36:	85 c0                	test   %eax,%eax
   11e38:	74 4a                	je     11e84 <do_schedule_switch+0x59>
   11e3a:	c7 05 20 d0 01 00 00 	movl   $0x0,0x1d020
   11e41:	00 00 00 
   11e44:	a1 24 d0 01 00       	mov    0x1d024,%eax
   11e49:	85 c0                	test   %eax,%eax
   11e4b:	74 37                	je     11e84 <do_schedule_switch+0x59>
   11e4d:	8b 15 24 d0 01 00    	mov    0x1d024,%edx
   11e53:	a1 28 d0 01 00       	mov    0x1d028,%eax
   11e58:	39 c2                	cmp    %eax,%edx
   11e5a:	74 28                	je     11e84 <do_schedule_switch+0x59>
   11e5c:	a1 28 d0 01 00       	mov    0x1d028,%eax
   11e61:	50                   	push   %eax
   11e62:	e8 74 ff ff ff       	call   11ddb <mmu_set_page_dir_task>
   11e67:	83 c4 04             	add    $0x4,%esp
   11e6a:	a1 28 d0 01 00       	mov    0x1d028,%eax
   11e6f:	8b 00                	mov    (%eax),%eax
   11e71:	8b 15 24 d0 01 00    	mov    0x1d024,%edx
   11e77:	83 ec 08             	sub    $0x8,%esp
   11e7a:	50                   	push   %eax
   11e7b:	52                   	push   %edx
   11e7c:	e8 a2 e5 ff ff       	call   10423 <simple_switch>
   11e81:	83 c4 10             	add    $0x10,%esp
   11e84:	90                   	nop
   11e85:	c9                   	leave  
   11e86:	c3                   	ret    

00011e87 <task_set_sleep>:
   11e87:	55                   	push   %ebp
   11e88:	89 e5                	mov    %esp,%ebp
   11e8a:	83 ec 08             	sub    $0x8,%esp
   11e8d:	83 7d 0c 00          	cmpl   $0x0,0xc(%ebp)
   11e91:	74 2c                	je     11ebf <task_set_sleep+0x38>
   11e93:	8b 55 0c             	mov    0xc(%ebp),%edx
   11e96:	8b 45 08             	mov    0x8(%ebp),%eax
   11e99:	89 50 1c             	mov    %edx,0x1c(%eax)
   11e9c:	8b 45 08             	mov    0x8(%ebp),%eax
   11e9f:	c7 40 04 03 00 00 00 	movl   $0x3,0x4(%eax)
   11ea6:	8b 45 08             	mov    0x8(%ebp),%eax
   11ea9:	83 c0 48             	add    $0x48,%eax
   11eac:	83 ec 08             	sub    $0x8,%esp
   11eaf:	50                   	push   %eax
   11eb0:	68 3c d0 01 00       	push   $0x1d03c
   11eb5:	e8 55 6a 00 00       	call   1890f <list_insert_last>
   11eba:	83 c4 10             	add    $0x10,%esp
   11ebd:	eb 01                	jmp    11ec0 <task_set_sleep+0x39>
   11ebf:	90                   	nop
   11ec0:	c9                   	leave  
   11ec1:	c3                   	ret    

00011ec2 <task_set_wakeup>:
   11ec2:	55                   	push   %ebp
   11ec3:	89 e5                	mov    %esp,%ebp
   11ec5:	83 ec 08             	sub    $0x8,%esp
   11ec8:	8b 45 08             	mov    0x8(%ebp),%eax
   11ecb:	83 c0 48             	add    $0x48,%eax
   11ece:	83 ec 08             	sub    $0x8,%esp
   11ed1:	50                   	push   %eax
   11ed2:	68 3c d0 01 00       	push   $0x1d03c
   11ed7:	e8 0e 6b 00 00       	call   189ea <list_remove>
   11edc:	83 c4 10             	add    $0x10,%esp
   11edf:	90                   	nop
   11ee0:	c9                   	leave  
   11ee1:	c3                   	ret    

00011ee2 <sys_sleep>:
   11ee2:	55                   	push   %ebp
   11ee3:	89 e5                	mov    %esp,%ebp
   11ee5:	53                   	push   %ebx
   11ee6:	83 ec 14             	sub    $0x14,%esp
   11ee9:	e8 ab 16 00 00       	call   13599 <irq_enter_protection>
   11eee:	89 45 f4             	mov    %eax,-0xc(%ebp)
   11ef1:	e8 96 fa ff ff       	call   1198c <task_current>
   11ef6:	83 ec 0c             	sub    $0xc,%esp
   11ef9:	50                   	push   %eax
   11efa:	e8 62 fa ff ff       	call   11961 <task_set_block>
   11eff:	83 c4 10             	add    $0x10,%esp
   11f02:	8b 45 08             	mov    0x8(%ebp),%eax
   11f05:	83 c0 13             	add    $0x13,%eax
   11f08:	ba cd cc cc cc       	mov    $0xcccccccd,%edx
   11f0d:	f7 e2                	mul    %edx
   11f0f:	89 d3                	mov    %edx,%ebx
   11f11:	c1 eb 04             	shr    $0x4,%ebx
   11f14:	e8 73 fa ff ff       	call   1198c <task_current>
   11f19:	83 ec 08             	sub    $0x8,%esp
   11f1c:	53                   	push   %ebx
   11f1d:	50                   	push   %eax
   11f1e:	e8 64 ff ff ff       	call   11e87 <task_set_sleep>
   11f23:	83 c4 10             	add    $0x10,%esp
   11f26:	e8 38 fd ff ff       	call   11c63 <schedule_switch>
   11f2b:	83 ec 0c             	sub    $0xc,%esp
   11f2e:	ff 75 f4             	pushl  -0xc(%ebp)
   11f31:	e8 7b 16 00 00       	call   135b1 <irq_leave_protection>
   11f36:	83 c4 10             	add    $0x10,%esp
   11f39:	90                   	nop
   11f3a:	8b 5d fc             	mov    -0x4(%ebp),%ebx
   11f3d:	c9                   	leave  
   11f3e:	c3                   	ret    

00011f3f <schedule_next_task>:
   11f3f:	55                   	push   %ebp
   11f40:	89 e5                	mov    %esp,%ebp
   11f42:	57                   	push   %edi
   11f43:	56                   	push   %esi
   11f44:	53                   	push   %ebx
   11f45:	83 ec 3c             	sub    $0x3c,%esp
   11f48:	a1 24 d0 01 00       	mov    0x1d024,%eax
   11f4d:	89 45 e0             	mov    %eax,-0x20(%ebp)
   11f50:	a1 28 d0 01 00       	mov    0x1d028,%eax
   11f55:	89 45 dc             	mov    %eax,-0x24(%ebp)
   11f58:	a1 20 d0 01 00       	mov    0x1d020,%eax
   11f5d:	83 f8 01             	cmp    $0x1,%eax
   11f60:	0f 85 7c 01 00 00    	jne    120e2 <schedule_next_task+0x1a3>
   11f66:	c7 05 20 d0 01 00 00 	movl   $0x0,0x1d020
   11f6d:	00 00 00 
   11f70:	83 7d dc 00          	cmpl   $0x0,-0x24(%ebp)
   11f74:	0f 84 69 01 00 00    	je     120e3 <schedule_next_task+0x1a4>
   11f7a:	8b 45 dc             	mov    -0x24(%ebp),%eax
   11f7d:	3b 45 e0             	cmp    -0x20(%ebp),%eax
   11f80:	0f 84 5d 01 00 00    	je     120e3 <schedule_next_task+0x1a4>
   11f86:	c7 45 e4 00 00 00 00 	movl   $0x0,-0x1c(%ebp)
   11f8d:	8b 45 dc             	mov    -0x24(%ebp),%eax
   11f90:	8b 40 08             	mov    0x8(%eax),%eax
   11f93:	83 f8 01             	cmp    $0x1,%eax
   11f96:	75 0e                	jne    11fa6 <schedule_next_task+0x67>
   11f98:	8b 45 dc             	mov    -0x24(%ebp),%eax
   11f9b:	8b 80 9c 00 00 00    	mov    0x9c(%eax),%eax
   11fa1:	89 45 e4             	mov    %eax,-0x1c(%ebp)
   11fa4:	eb 66                	jmp    1200c <schedule_next_task+0xcd>
   11fa6:	81 7d dc 28 d3 01 00 	cmpl   $0x1d328,-0x24(%ebp)
   11fad:	75 54                	jne    12003 <schedule_next_task+0xc4>
   11faf:	8b 45 dc             	mov    -0x24(%ebp),%eax
   11fb2:	8b 80 cc 00 00 00    	mov    0xcc(%eax),%eax
   11fb8:	83 f8 01             	cmp    $0x1,%eax
   11fbb:	75 46                	jne    12003 <schedule_next_task+0xc4>
   11fbd:	8b 45 dc             	mov    -0x24(%ebp),%eax
   11fc0:	c7 80 cc 00 00 00 00 	movl   $0x0,0xcc(%eax)
   11fc7:	00 00 00 
   11fca:	8b 45 dc             	mov    -0x24(%ebp),%eax
   11fcd:	8b 80 9c 00 00 00    	mov    0x9c(%eax),%eax
   11fd3:	8d 50 fc             	lea    -0x4(%eax),%edx
   11fd6:	8b 45 dc             	mov    -0x24(%ebp),%eax
   11fd9:	89 90 9c 00 00 00    	mov    %edx,0x9c(%eax)
   11fdf:	8b 45 dc             	mov    -0x24(%ebp),%eax
   11fe2:	8b 80 9c 00 00 00    	mov    0x9c(%eax),%eax
   11fe8:	89 c2                	mov    %eax,%edx
   11fea:	8b 45 dc             	mov    -0x24(%ebp),%eax
   11fed:	8b 80 84 00 00 00    	mov    0x84(%eax),%eax
   11ff3:	89 02                	mov    %eax,(%edx)
   11ff5:	8b 45 dc             	mov    -0x24(%ebp),%eax
   11ff8:	8b 80 9c 00 00 00    	mov    0x9c(%eax),%eax
   11ffe:	89 45 e4             	mov    %eax,-0x1c(%ebp)
   12001:	eb 09                	jmp    1200c <schedule_next_task+0xcd>
   12003:	8b 45 dc             	mov    -0x24(%ebp),%eax
   12006:	8b 40 68             	mov    0x68(%eax),%eax
   12009:	89 45 e4             	mov    %eax,-0x1c(%ebp)
   1200c:	8b 45 dc             	mov    -0x24(%ebp),%eax
   1200f:	8b 40 60             	mov    0x60(%eax),%eax
   12012:	a3 00 d6 01 00       	mov    %eax,0x1d600
   12017:	8b 45 dc             	mov    -0x24(%ebp),%eax
   1201a:	8b b0 a0 00 00 00    	mov    0xa0(%eax),%esi
   12020:	8b 45 dc             	mov    -0x24(%ebp),%eax
   12023:	8b 80 a8 00 00 00    	mov    0xa8(%eax),%eax
   12029:	89 45 d4             	mov    %eax,-0x2c(%ebp)
   1202c:	8b 45 dc             	mov    -0x24(%ebp),%eax
   1202f:	8b 80 a4 00 00 00    	mov    0xa4(%eax),%eax
   12035:	89 45 d0             	mov    %eax,-0x30(%ebp)
   12038:	8b 45 dc             	mov    -0x24(%ebp),%eax
   1203b:	8b 80 94 00 00 00    	mov    0x94(%eax),%eax
   12041:	89 45 cc             	mov    %eax,-0x34(%ebp)
   12044:	8b 45 dc             	mov    -0x24(%ebp),%eax
   12047:	8b 80 90 00 00 00    	mov    0x90(%eax),%eax
   1204d:	89 45 c8             	mov    %eax,-0x38(%ebp)
   12050:	8b 45 dc             	mov    -0x24(%ebp),%eax
   12053:	8b 80 98 00 00 00    	mov    0x98(%eax),%eax
   12059:	89 45 c4             	mov    %eax,-0x3c(%ebp)
   1205c:	8b 45 dc             	mov    -0x24(%ebp),%eax
   1205f:	8b 80 8c 00 00 00    	mov    0x8c(%eax),%eax
   12065:	89 45 c0             	mov    %eax,-0x40(%ebp)
   12068:	8b 45 dc             	mov    -0x24(%ebp),%eax
   1206b:	8b 80 b4 00 00 00    	mov    0xb4(%eax),%eax
   12071:	89 45 bc             	mov    %eax,-0x44(%ebp)
   12074:	8b 45 dc             	mov    -0x24(%ebp),%eax
   12077:	8b 80 88 00 00 00    	mov    0x88(%eax),%eax
   1207d:	89 45 b8             	mov    %eax,-0x48(%ebp)
   12080:	8b 45 dc             	mov    -0x24(%ebp),%eax
   12083:	8b b8 84 00 00 00    	mov    0x84(%eax),%edi
   12089:	8b 45 dc             	mov    -0x24(%ebp),%eax
   1208c:	8b 98 b0 00 00 00    	mov    0xb0(%eax),%ebx
   12092:	8b 45 dc             	mov    -0x24(%ebp),%eax
   12095:	8b 90 80 00 00 00    	mov    0x80(%eax),%edx
   1209b:	8b 45 dc             	mov    -0x24(%ebp),%eax
   1209e:	8d 48 08             	lea    0x8(%eax),%ecx
   120a1:	83 7d e0 00          	cmpl   $0x0,-0x20(%ebp)
   120a5:	74 08                	je     120af <schedule_next_task+0x170>
   120a7:	8b 45 e0             	mov    -0x20(%ebp),%eax
   120aa:	83 c0 64             	add    $0x64,%eax
   120ad:	eb 05                	jmp    120b4 <schedule_next_task+0x175>
   120af:	b8 00 00 00 00       	mov    $0x0,%eax
   120b4:	83 ec 04             	sub    $0x4,%esp
   120b7:	56                   	push   %esi
   120b8:	ff 75 d4             	pushl  -0x2c(%ebp)
   120bb:	ff 75 d0             	pushl  -0x30(%ebp)
   120be:	ff 75 cc             	pushl  -0x34(%ebp)
   120c1:	ff 75 c8             	pushl  -0x38(%ebp)
   120c4:	ff 75 c4             	pushl  -0x3c(%ebp)
   120c7:	ff 75 c0             	pushl  -0x40(%ebp)
   120ca:	ff 75 e4             	pushl  -0x1c(%ebp)
   120cd:	ff 75 bc             	pushl  -0x44(%ebp)
   120d0:	ff 75 b8             	pushl  -0x48(%ebp)
   120d3:	57                   	push   %edi
   120d4:	53                   	push   %ebx
   120d5:	52                   	push   %edx
   120d6:	51                   	push   %ecx
   120d7:	50                   	push   %eax
   120d8:	e8 5d e3 ff ff       	call   1043a <universal_task_switch>
   120dd:	83 c4 40             	add    $0x40,%esp
   120e0:	eb 01                	jmp    120e3 <schedule_next_task+0x1a4>
   120e2:	90                   	nop
   120e3:	8d 65 f4             	lea    -0xc(%ebp),%esp
   120e6:	5b                   	pop    %ebx
   120e7:	5e                   	pop    %esi
   120e8:	5f                   	pop    %edi
   120e9:	5d                   	pop    %ebp
   120ea:	c3                   	ret    

000120eb <task_alloc>:
   120eb:	55                   	push   %ebp
   120ec:	89 e5                	mov    %esp,%ebp
   120ee:	83 ec 18             	sub    $0x18,%esp
   120f1:	83 ec 0c             	sub    $0xc,%esp
   120f4:	68 80 60 03 00       	push   $0x36080
   120f9:	e8 e1 5c 00 00       	call   17ddf <mutex_lock>
   120fe:	83 c4 10             	add    $0x10,%esp
   12101:	c7 45 f4 00 00 00 00 	movl   $0x0,-0xc(%ebp)
   12108:	c7 45 f0 00 00 00 00 	movl   $0x0,-0x10(%ebp)
   1210f:	eb 28                	jmp    12139 <task_alloc+0x4e>
   12111:	8b 45 f0             	mov    -0x10(%ebp),%eax
   12114:	69 c0 d4 02 00 00    	imul   $0x2d4,%eax,%eax
   1211a:	05 80 f6 01 00       	add    $0x1f680,%eax
   1211f:	89 45 ec             	mov    %eax,-0x14(%ebp)
   12122:	8b 45 ec             	mov    -0x14(%ebp),%eax
   12125:	0f b6 40 28          	movzbl 0x28(%eax),%eax
   12129:	84 c0                	test   %al,%al
   1212b:	75 08                	jne    12135 <task_alloc+0x4a>
   1212d:	8b 45 ec             	mov    -0x14(%ebp),%eax
   12130:	89 45 f4             	mov    %eax,-0xc(%ebp)
   12133:	eb 0a                	jmp    1213f <task_alloc+0x54>
   12135:	83 45 f0 01          	addl   $0x1,-0x10(%ebp)
   12139:	83 7d f0 7f          	cmpl   $0x7f,-0x10(%ebp)
   1213d:	7e d2                	jle    12111 <task_alloc+0x26>
   1213f:	83 ec 0c             	sub    $0xc,%esp
   12142:	68 80 60 03 00       	push   $0x36080
   12147:	e8 23 5d 00 00       	call   17e6f <mutex_unlock>
   1214c:	83 c4 10             	add    $0x10,%esp
   1214f:	8b 45 f4             	mov    -0xc(%ebp),%eax
   12152:	c9                   	leave  
   12153:	c3                   	ret    

00012154 <task_free>:
   12154:	55                   	push   %ebp
   12155:	89 e5                	mov    %esp,%ebp
   12157:	83 ec 08             	sub    $0x8,%esp
   1215a:	83 ec 0c             	sub    $0xc,%esp
   1215d:	68 80 60 03 00       	push   $0x36080
   12162:	e8 78 5c 00 00       	call   17ddf <mutex_lock>
   12167:	83 c4 10             	add    $0x10,%esp
   1216a:	8b 45 08             	mov    0x8(%ebp),%eax
   1216d:	c6 40 28 00          	movb   $0x0,0x28(%eax)
   12171:	83 ec 0c             	sub    $0xc,%esp
   12174:	68 80 60 03 00       	push   $0x36080
   12179:	e8 f1 5c 00 00       	call   17e6f <mutex_unlock>
   1217e:	83 c4 10             	add    $0x10,%esp
   12181:	90                   	nop
   12182:	c9                   	leave  
   12183:	c3                   	ret    

00012184 <copy_opended_files>:
   12184:	55                   	push   %ebp
   12185:	89 e5                	mov    %esp,%ebp
   12187:	83 ec 18             	sub    $0x18,%esp
   1218a:	e8 fd f7 ff ff       	call   1198c <task_current>
   1218f:	89 45 f0             	mov    %eax,-0x10(%ebp)
   12192:	c7 45 f4 00 00 00 00 	movl   $0x0,-0xc(%ebp)
   12199:	eb 38                	jmp    121d3 <copy_opended_files+0x4f>
   1219b:	8b 45 f0             	mov    -0x10(%ebp),%eax
   1219e:	8b 55 f4             	mov    -0xc(%ebp),%edx
   121a1:	83 c2 34             	add    $0x34,%edx
   121a4:	8b 44 90 04          	mov    0x4(%eax,%edx,4),%eax
   121a8:	89 45 ec             	mov    %eax,-0x14(%ebp)
   121ab:	83 7d ec 00          	cmpl   $0x0,-0x14(%ebp)
   121af:	74 1e                	je     121cf <copy_opended_files+0x4b>
   121b1:	83 ec 0c             	sub    $0xc,%esp
   121b4:	ff 75 ec             	pushl  -0x14(%ebp)
   121b7:	e8 51 4e 00 00       	call   1700d <file_inc_ref>
   121bc:	83 c4 10             	add    $0x10,%esp
   121bf:	8b 45 08             	mov    0x8(%ebp),%eax
   121c2:	8b 55 f4             	mov    -0xc(%ebp),%edx
   121c5:	8d 4a 34             	lea    0x34(%edx),%ecx
   121c8:	8b 55 ec             	mov    -0x14(%ebp),%edx
   121cb:	89 54 88 04          	mov    %edx,0x4(%eax,%ecx,4)
   121cf:	83 45 f4 01          	addl   $0x1,-0xc(%ebp)
   121d3:	83 7d f4 7f          	cmpl   $0x7f,-0xc(%ebp)
   121d7:	7e c2                	jle    1219b <copy_opended_files+0x17>
   121d9:	90                   	nop
   121da:	c9                   	leave  
   121db:	c3                   	ret    

000121dc <sys_fork>:
   121dc:	55                   	push   %ebp
   121dd:	89 e5                	mov    %esp,%ebp
   121df:	83 ec 28             	sub    $0x28,%esp
   121e2:	e8 a5 f7 ff ff       	call   1198c <task_current>
   121e7:	89 45 f4             	mov    %eax,-0xc(%ebp)
   121ea:	e8 fc fe ff ff       	call   120eb <task_alloc>
   121ef:	89 45 f0             	mov    %eax,-0x10(%ebp)
   121f2:	83 7d f0 00          	cmpl   $0x0,-0x10(%ebp)
   121f6:	0f 84 40 01 00 00    	je     1233c <sys_fork+0x160>
   121fc:	a1 00 d6 01 00       	mov    0x1d600,%eax
   12201:	83 e8 58             	sub    $0x58,%eax
   12204:	89 45 ec             	mov    %eax,-0x14(%ebp)
   12207:	8b 45 ec             	mov    -0x14(%ebp),%eax
   1220a:	8b 40 50             	mov    0x50(%eax),%eax
   1220d:	8d 50 14             	lea    0x14(%eax),%edx
   12210:	8b 45 ec             	mov    -0x14(%ebp),%eax
   12213:	8b 40 34             	mov    0x34(%eax),%eax
   12216:	89 c1                	mov    %eax,%ecx
   12218:	8b 45 f4             	mov    -0xc(%ebp),%eax
   1221b:	83 c0 28             	add    $0x28,%eax
   1221e:	52                   	push   %edx
   1221f:	51                   	push   %ecx
   12220:	50                   	push   %eax
   12221:	ff 75 f0             	pushl  -0x10(%ebp)
   12224:	e8 37 f3 ff ff       	call   11560 <user_task_init>
   12229:	83 c4 10             	add    $0x10,%esp
   1222c:	89 45 e8             	mov    %eax,-0x18(%ebp)
   1222f:	83 ec 0c             	sub    $0xc,%esp
   12232:	ff 75 f0             	pushl  -0x10(%ebp)
   12235:	e8 4a ff ff ff       	call   12184 <copy_opended_files>
   1223a:	83 c4 10             	add    $0x10,%esp
   1223d:	83 7d e8 00          	cmpl   $0x0,-0x18(%ebp)
   12241:	0f 88 f8 00 00 00    	js     1233f <sys_fork+0x163>
   12247:	8b 45 f0             	mov    -0x10(%ebp),%eax
   1224a:	83 c0 64             	add    $0x64,%eax
   1224d:	89 45 e4             	mov    %eax,-0x1c(%ebp)
   12250:	8b 45 e4             	mov    -0x1c(%ebp),%eax
   12253:	c7 40 28 00 00 00 00 	movl   $0x0,0x28(%eax)
   1225a:	8b 45 ec             	mov    -0x14(%ebp),%eax
   1225d:	8b 40 24             	mov    0x24(%eax),%eax
   12260:	89 c2                	mov    %eax,%edx
   12262:	8b 45 e4             	mov    -0x1c(%ebp),%eax
   12265:	89 50 34             	mov    %edx,0x34(%eax)
   12268:	8b 45 ec             	mov    -0x14(%ebp),%eax
   1226b:	8b 40 2c             	mov    0x2c(%eax),%eax
   1226e:	89 c2                	mov    %eax,%edx
   12270:	8b 45 e4             	mov    -0x1c(%ebp),%eax
   12273:	89 50 2c             	mov    %edx,0x2c(%eax)
   12276:	8b 45 ec             	mov    -0x14(%ebp),%eax
   12279:	8b 40 28             	mov    0x28(%eax),%eax
   1227c:	89 c2                	mov    %eax,%edx
   1227e:	8b 45 e4             	mov    -0x1c(%ebp),%eax
   12281:	89 50 30             	mov    %edx,0x30(%eax)
   12284:	8b 45 ec             	mov    -0x14(%ebp),%eax
   12287:	8b 40 18             	mov    0x18(%eax),%eax
   1228a:	89 c2                	mov    %eax,%edx
   1228c:	8b 45 e4             	mov    -0x1c(%ebp),%eax
   1228f:	89 50 40             	mov    %edx,0x40(%eax)
   12292:	8b 45 ec             	mov    -0x14(%ebp),%eax
   12295:	8b 40 14             	mov    0x14(%eax),%eax
   12298:	89 c2                	mov    %eax,%edx
   1229a:	8b 45 e4             	mov    -0x1c(%ebp),%eax
   1229d:	89 50 44             	mov    %edx,0x44(%eax)
   122a0:	8b 45 ec             	mov    -0x14(%ebp),%eax
   122a3:	8b 40 1c             	mov    0x1c(%eax),%eax
   122a6:	89 c2                	mov    %eax,%edx
   122a8:	8b 45 e4             	mov    -0x1c(%ebp),%eax
   122ab:	89 50 3c             	mov    %edx,0x3c(%eax)
   122ae:	8b 45 ec             	mov    -0x14(%ebp),%eax
   122b1:	8b 40 38             	mov    0x38(%eax),%eax
   122b4:	89 c2                	mov    %eax,%edx
   122b6:	8b 45 e4             	mov    -0x1c(%ebp),%eax
   122b9:	89 50 4c             	mov    %edx,0x4c(%eax)
   122bc:	8b 45 ec             	mov    -0x14(%ebp),%eax
   122bf:	8b 40 10             	mov    0x10(%eax),%eax
   122c2:	89 c2                	mov    %eax,%edx
   122c4:	8b 45 e4             	mov    -0x1c(%ebp),%eax
   122c7:	89 50 54             	mov    %edx,0x54(%eax)
   122ca:	8b 45 ec             	mov    -0x14(%ebp),%eax
   122cd:	8b 40 0c             	mov    0xc(%eax),%eax
   122d0:	89 c2                	mov    %eax,%edx
   122d2:	8b 45 e4             	mov    -0x1c(%ebp),%eax
   122d5:	89 50 48             	mov    %edx,0x48(%eax)
   122d8:	8b 45 ec             	mov    -0x14(%ebp),%eax
   122db:	8b 40 08             	mov    0x8(%eax),%eax
   122de:	89 c2                	mov    %eax,%edx
   122e0:	8b 45 e4             	mov    -0x1c(%ebp),%eax
   122e3:	89 50 58             	mov    %edx,0x58(%eax)
   122e6:	8b 45 ec             	mov    -0x14(%ebp),%eax
   122e9:	8b 40 04             	mov    0x4(%eax),%eax
   122ec:	89 c2                	mov    %eax,%edx
   122ee:	8b 45 e4             	mov    -0x1c(%ebp),%eax
   122f1:	89 50 5c             	mov    %edx,0x5c(%eax)
   122f4:	8b 45 ec             	mov    -0x14(%ebp),%eax
   122f7:	8b 00                	mov    (%eax),%eax
   122f9:	89 c2                	mov    %eax,%edx
   122fb:	8b 45 e4             	mov    -0x1c(%ebp),%eax
   122fe:	89 50 24             	mov    %edx,0x24(%eax)
   12301:	8b 45 f0             	mov    -0x10(%ebp),%eax
   12304:	8b 90 80 00 00 00    	mov    0x80(%eax),%edx
   1230a:	8b 45 f4             	mov    -0xc(%ebp),%eax
   1230d:	8b 80 80 00 00 00    	mov    0x80(%eax),%eax
   12313:	83 ec 08             	sub    $0x8,%esp
   12316:	52                   	push   %edx
   12317:	50                   	push   %eax
   12318:	e8 1d ea ff ff       	call   10d3a <memory_copy_vum>
   1231d:	83 c4 10             	add    $0x10,%esp
   12320:	8b 45 f0             	mov    -0x10(%ebp),%eax
   12323:	8b 55 f4             	mov    -0xc(%ebp),%edx
   12326:	89 50 18             	mov    %edx,0x18(%eax)
   12329:	83 ec 0c             	sub    $0xc,%esp
   1232c:	ff 75 f0             	pushl  -0x10(%ebp)
   1232f:	e8 56 f3 ff ff       	call   1168a <task_start>
   12334:	83 c4 10             	add    $0x10,%esp
   12337:	8b 45 f0             	mov    -0x10(%ebp),%eax
   1233a:	eb 2b                	jmp    12367 <sys_fork+0x18b>
   1233c:	90                   	nop
   1233d:	eb 01                	jmp    12340 <sys_fork+0x164>
   1233f:	90                   	nop
   12340:	83 7d f0 00          	cmpl   $0x0,-0x10(%ebp)
   12344:	74 1c                	je     12362 <sys_fork+0x186>
   12346:	83 ec 0c             	sub    $0xc,%esp
   12349:	ff 75 f0             	pushl  -0x10(%ebp)
   1234c:	e8 a5 f0 ff ff       	call   113f6 <task_uninit>
   12351:	83 c4 10             	add    $0x10,%esp
   12354:	83 ec 0c             	sub    $0xc,%esp
   12357:	ff 75 f0             	pushl  -0x10(%ebp)
   1235a:	e8 f5 fd ff ff       	call   12154 <task_free>
   1235f:	83 c4 10             	add    $0x10,%esp
   12362:	b8 ff ff ff ff       	mov    $0xffffffff,%eax
   12367:	c9                   	leave  
   12368:	c3                   	ret    

00012369 <load_phdr>:
   12369:	55                   	push   %ebp
   1236a:	89 e5                	mov    %esp,%ebp
   1236c:	83 ec 28             	sub    $0x28,%esp
   1236f:	8b 45 0c             	mov    0xc(%ebp),%eax
   12372:	8b 50 14             	mov    0x14(%eax),%edx
   12375:	8b 45 0c             	mov    0xc(%ebp),%eax
   12378:	8b 40 08             	mov    0x8(%eax),%eax
   1237b:	6a 07                	push   $0x7
   1237d:	52                   	push   %edx
   1237e:	50                   	push   %eax
   1237f:	ff 75 10             	pushl  0x10(%ebp)
   12382:	e8 67 e8 ff ff       	call   10bee <memory_alloc_for_page_dir>
   12387:	83 c4 10             	add    $0x10,%esp
   1238a:	89 45 ec             	mov    %eax,-0x14(%ebp)
   1238d:	83 7d ec 00          	cmpl   $0x0,-0x14(%ebp)
   12391:	79 0a                	jns    1239d <load_phdr+0x34>
   12393:	b8 ff ff ff ff       	mov    $0xffffffff,%eax
   12398:	e9 95 00 00 00       	jmp    12432 <load_phdr+0xc9>
   1239d:	8b 45 0c             	mov    0xc(%ebp),%eax
   123a0:	8b 40 04             	mov    0x4(%eax),%eax
   123a3:	83 ec 04             	sub    $0x4,%esp
   123a6:	6a 00                	push   $0x0
   123a8:	50                   	push   %eax
   123a9:	ff 75 08             	pushl  0x8(%ebp)
   123ac:	e8 45 52 00 00       	call   175f6 <sys_lseek>
   123b1:	83 c4 10             	add    $0x10,%esp
   123b4:	85 c0                	test   %eax,%eax
   123b6:	79 07                	jns    123bf <load_phdr+0x56>
   123b8:	b8 ff ff ff ff       	mov    $0xffffffff,%eax
   123bd:	eb 73                	jmp    12432 <load_phdr+0xc9>
   123bf:	8b 45 0c             	mov    0xc(%ebp),%eax
   123c2:	8b 40 08             	mov    0x8(%eax),%eax
   123c5:	89 45 f4             	mov    %eax,-0xc(%ebp)
   123c8:	8b 45 0c             	mov    0xc(%ebp),%eax
   123cb:	8b 40 10             	mov    0x10(%eax),%eax
   123ce:	89 45 f0             	mov    %eax,-0x10(%ebp)
   123d1:	eb 54                	jmp    12427 <load_phdr+0xbe>
   123d3:	b8 00 10 00 00       	mov    $0x1000,%eax
   123d8:	81 7d f0 00 10 00 00 	cmpl   $0x1000,-0x10(%ebp)
   123df:	0f 46 45 f0          	cmovbe -0x10(%ebp),%eax
   123e3:	89 45 e8             	mov    %eax,-0x18(%ebp)
   123e6:	83 ec 08             	sub    $0x8,%esp
   123e9:	ff 75 f4             	pushl  -0xc(%ebp)
   123ec:	ff 75 10             	pushl  0x10(%ebp)
   123ef:	e8 55 eb ff ff       	call   10f49 <memory_get_paddr>
   123f4:	83 c4 10             	add    $0x10,%esp
   123f7:	89 45 e4             	mov    %eax,-0x1c(%ebp)
   123fa:	8b 45 e4             	mov    -0x1c(%ebp),%eax
   123fd:	83 ec 04             	sub    $0x4,%esp
   12400:	ff 75 e8             	pushl  -0x18(%ebp)
   12403:	50                   	push   %eax
   12404:	ff 75 08             	pushl  0x8(%ebp)
   12407:	e8 a1 50 00 00       	call   174ad <sys_read>
   1240c:	83 c4 10             	add    $0x10,%esp
   1240f:	39 45 e8             	cmp    %eax,-0x18(%ebp)
   12412:	7e 07                	jle    1241b <load_phdr+0xb2>
   12414:	b8 ff ff ff ff       	mov    $0xffffffff,%eax
   12419:	eb 17                	jmp    12432 <load_phdr+0xc9>
   1241b:	8b 45 e8             	mov    -0x18(%ebp),%eax
   1241e:	01 45 f4             	add    %eax,-0xc(%ebp)
   12421:	8b 45 e8             	mov    -0x18(%ebp),%eax
   12424:	29 45 f0             	sub    %eax,-0x10(%ebp)
   12427:	83 7d f0 00          	cmpl   $0x0,-0x10(%ebp)
   1242b:	75 a6                	jne    123d3 <load_phdr+0x6a>
   1242d:	b8 00 00 00 00       	mov    $0x0,%eax
   12432:	c9                   	leave  
   12433:	c3                   	ret    

00012434 <load_elf_file>:
   12434:	55                   	push   %ebp
   12435:	89 e5                	mov    %esp,%ebp
   12437:	53                   	push   %ebx
   12438:	83 ec 74             	sub    $0x74,%esp
   1243b:	83 ec 08             	sub    $0x8,%esp
   1243e:	6a 00                	push   $0x0
   12440:	ff 75 0c             	pushl  0xc(%ebp)
   12443:	e8 0a 4f 00 00       	call   17352 <sys_open>
   12448:	83 c4 10             	add    $0x10,%esp
   1244b:	89 45 ec             	mov    %eax,-0x14(%ebp)
   1244e:	83 7d ec 00          	cmpl   $0x0,-0x14(%ebp)
   12452:	79 0a                	jns    1245e <load_elf_file+0x2a>
   12454:	b8 00 00 00 00       	mov    $0x0,%eax
   12459:	e9 ab 01 00 00       	jmp    12609 <load_elf_file+0x1d5>
   1245e:	83 ec 04             	sub    $0x4,%esp
   12461:	6a 34                	push   $0x34
   12463:	8d 45 b0             	lea    -0x50(%ebp),%eax
   12466:	50                   	push   %eax
   12467:	ff 75 ec             	pushl  -0x14(%ebp)
   1246a:	e8 3e 50 00 00       	call   174ad <sys_read>
   1246f:	83 c4 10             	add    $0x10,%esp
   12472:	89 45 e8             	mov    %eax,-0x18(%ebp)
   12475:	8b 45 e8             	mov    -0x18(%ebp),%eax
   12478:	83 f8 33             	cmp    $0x33,%eax
   1247b:	77 18                	ja     12495 <load_elf_file+0x61>
   1247d:	83 ec 08             	sub    $0x8,%esp
   12480:	ff 75 e8             	pushl  -0x18(%ebp)
   12483:	68 6c 8d 01 00       	push   $0x18d6c
   12488:	e8 10 66 00 00       	call   18a9d <log_printf>
   1248d:	83 c4 10             	add    $0x10,%esp
   12490:	e9 5b 01 00 00       	jmp    125f0 <load_elf_file+0x1bc>
   12495:	0f b6 45 b0          	movzbl -0x50(%ebp),%eax
   12499:	3c 7f                	cmp    $0x7f,%al
   1249b:	75 18                	jne    124b5 <load_elf_file+0x81>
   1249d:	0f b6 45 b1          	movzbl -0x4f(%ebp),%eax
   124a1:	3c 45                	cmp    $0x45,%al
   124a3:	75 10                	jne    124b5 <load_elf_file+0x81>
   124a5:	0f b6 45 b2          	movzbl -0x4e(%ebp),%eax
   124a9:	3c 4c                	cmp    $0x4c,%al
   124ab:	75 08                	jne    124b5 <load_elf_file+0x81>
   124ad:	0f b6 45 b3          	movzbl -0x4d(%ebp),%eax
   124b1:	3c 46                	cmp    $0x46,%al
   124b3:	74 35                	je     124ea <load_elf_file+0xb6>
   124b5:	0f b6 45 b3          	movzbl -0x4d(%ebp),%eax
   124b9:	0f be d8             	movsbl %al,%ebx
   124bc:	0f b6 45 b2          	movzbl -0x4e(%ebp),%eax
   124c0:	0f be c8             	movsbl %al,%ecx
   124c3:	0f b6 45 b1          	movzbl -0x4f(%ebp),%eax
   124c7:	0f be d0             	movsbl %al,%edx
   124ca:	0f b6 45 b0          	movzbl -0x50(%ebp),%eax
   124ce:	0f be c0             	movsbl %al,%eax
   124d1:	83 ec 0c             	sub    $0xc,%esp
   124d4:	53                   	push   %ebx
   124d5:	51                   	push   %ecx
   124d6:	52                   	push   %edx
   124d7:	50                   	push   %eax
   124d8:	68 90 8d 01 00       	push   $0x18d90
   124dd:	e8 bb 65 00 00       	call   18a9d <log_printf>
   124e2:	83 c4 20             	add    $0x20,%esp
   124e5:	e9 06 01 00 00       	jmp    125f0 <load_elf_file+0x1bc>
   124ea:	8b 45 cc             	mov    -0x34(%ebp),%eax
   124ed:	89 45 f4             	mov    %eax,-0xc(%ebp)
   124f0:	c7 45 f0 00 00 00 00 	movl   $0x0,-0x10(%ebp)
   124f7:	e9 d1 00 00 00       	jmp    125cd <load_elf_file+0x199>
   124fc:	8b 45 f4             	mov    -0xc(%ebp),%eax
   124ff:	83 ec 04             	sub    $0x4,%esp
   12502:	6a 00                	push   $0x0
   12504:	50                   	push   %eax
   12505:	ff 75 ec             	pushl  -0x14(%ebp)
   12508:	e8 e9 50 00 00       	call   175f6 <sys_lseek>
   1250d:	83 c4 10             	add    $0x10,%esp
   12510:	85 c0                	test   %eax,%eax
   12512:	79 15                	jns    12529 <load_elf_file+0xf5>
   12514:	83 ec 0c             	sub    $0xc,%esp
   12517:	68 08 8e 01 00       	push   $0x18e08
   1251c:	e8 7c 65 00 00       	call   18a9d <log_printf>
   12521:	83 c4 10             	add    $0x10,%esp
   12524:	e9 c7 00 00 00       	jmp    125f0 <load_elf_file+0x1bc>
   12529:	83 ec 04             	sub    $0x4,%esp
   1252c:	6a 20                	push   $0x20
   1252e:	8d 45 90             	lea    -0x70(%ebp),%eax
   12531:	50                   	push   %eax
   12532:	ff 75 ec             	pushl  -0x14(%ebp)
   12535:	e8 73 4f 00 00       	call   174ad <sys_read>
   1253a:	83 c4 10             	add    $0x10,%esp
   1253d:	89 45 e8             	mov    %eax,-0x18(%ebp)
   12540:	8b 45 e8             	mov    -0x18(%ebp),%eax
   12543:	83 f8 1f             	cmp    $0x1f,%eax
   12546:	77 18                	ja     12560 <load_elf_file+0x12c>
   12548:	83 ec 08             	sub    $0x8,%esp
   1254b:	ff 75 e8             	pushl  -0x18(%ebp)
   1254e:	68 6c 8d 01 00       	push   $0x18d6c
   12553:	e8 45 65 00 00       	call   18a9d <log_printf>
   12558:	83 c4 10             	add    $0x10,%esp
   1255b:	e9 90 00 00 00       	jmp    125f0 <load_elf_file+0x1bc>
   12560:	8b 45 90             	mov    -0x70(%ebp),%eax
   12563:	83 f8 01             	cmp    $0x1,%eax
   12566:	75 56                	jne    125be <load_elf_file+0x18a>
   12568:	8b 45 98             	mov    -0x68(%ebp),%eax
   1256b:	3d ff 0f 00 00       	cmp    $0xfff,%eax
   12570:	76 4c                	jbe    125be <load_elf_file+0x18a>
   12572:	83 ec 04             	sub    $0x4,%esp
   12575:	ff 75 10             	pushl  0x10(%ebp)
   12578:	8d 45 90             	lea    -0x70(%ebp),%eax
   1257b:	50                   	push   %eax
   1257c:	ff 75 ec             	pushl  -0x14(%ebp)
   1257f:	e8 e5 fd ff ff       	call   12369 <load_phdr>
   12584:	83 c4 10             	add    $0x10,%esp
   12587:	89 45 e4             	mov    %eax,-0x1c(%ebp)
   1258a:	83 7d e4 00          	cmpl   $0x0,-0x1c(%ebp)
   1258e:	79 12                	jns    125a2 <load_elf_file+0x16e>
   12590:	83 ec 0c             	sub    $0xc,%esp
   12593:	68 30 8e 01 00       	push   $0x18e30
   12598:	e8 00 65 00 00       	call   18a9d <log_printf>
   1259d:	83 c4 10             	add    $0x10,%esp
   125a0:	eb 4e                	jmp    125f0 <load_elf_file+0x1bc>
   125a2:	8b 55 98             	mov    -0x68(%ebp),%edx
   125a5:	8b 45 a4             	mov    -0x5c(%ebp),%eax
   125a8:	01 c2                	add    %eax,%edx
   125aa:	8b 45 08             	mov    0x8(%ebp),%eax
   125ad:	89 50 0c             	mov    %edx,0xc(%eax)
   125b0:	8b 45 08             	mov    0x8(%ebp),%eax
   125b3:	8b 50 0c             	mov    0xc(%eax),%edx
   125b6:	8b 45 08             	mov    0x8(%ebp),%eax
   125b9:	89 50 10             	mov    %edx,0x10(%eax)
   125bc:	eb 01                	jmp    125bf <load_elf_file+0x18b>
   125be:	90                   	nop
   125bf:	83 45 f0 01          	addl   $0x1,-0x10(%ebp)
   125c3:	0f b7 45 da          	movzwl -0x26(%ebp),%eax
   125c7:	0f b7 c0             	movzwl %ax,%eax
   125ca:	01 45 f4             	add    %eax,-0xc(%ebp)
   125cd:	0f b7 45 dc          	movzwl -0x24(%ebp),%eax
   125d1:	0f b7 c0             	movzwl %ax,%eax
   125d4:	39 45 f0             	cmp    %eax,-0x10(%ebp)
   125d7:	0f 8c 1f ff ff ff    	jl     124fc <load_elf_file+0xc8>
   125dd:	83 ec 0c             	sub    $0xc,%esp
   125e0:	ff 75 ec             	pushl  -0x14(%ebp)
   125e3:	e8 96 50 00 00       	call   1767e <sys_close>
   125e8:	83 c4 10             	add    $0x10,%esp
   125eb:	8b 45 c8             	mov    -0x38(%ebp),%eax
   125ee:	eb 19                	jmp    12609 <load_elf_file+0x1d5>
   125f0:	83 7d ec 00          	cmpl   $0x0,-0x14(%ebp)
   125f4:	74 0e                	je     12604 <load_elf_file+0x1d0>
   125f6:	83 ec 0c             	sub    $0xc,%esp
   125f9:	ff 75 ec             	pushl  -0x14(%ebp)
   125fc:	e8 7d 50 00 00       	call   1767e <sys_close>
   12601:	83 c4 10             	add    $0x10,%esp
   12604:	b8 00 00 00 00       	mov    $0x0,%eax
   12609:	8b 5d fc             	mov    -0x4(%ebp),%ebx
   1260c:	c9                   	leave  
   1260d:	c3                   	ret    

0001260e <copy_args>:
   1260e:	55                   	push   %ebp
   1260f:	89 e5                	mov    %esp,%ebp
   12611:	83 ec 38             	sub    $0x38,%esp
   12614:	8b 45 10             	mov    0x10(%ebp),%eax
   12617:	89 45 d8             	mov    %eax,-0x28(%ebp)
   1261a:	8b 45 08             	mov    0x8(%ebp),%eax
   1261d:	83 c0 0c             	add    $0xc,%eax
   12620:	89 45 dc             	mov    %eax,-0x24(%ebp)
   12623:	8b 45 10             	mov    0x10(%ebp),%eax
   12626:	83 c0 04             	add    $0x4,%eax
   12629:	8d 14 85 00 00 00 00 	lea    0x0(,%eax,4),%edx
   12630:	8b 45 08             	mov    0x8(%ebp),%eax
   12633:	01 d0                	add    %edx,%eax
   12635:	89 45 f4             	mov    %eax,-0xc(%ebp)
   12638:	8b 45 08             	mov    0x8(%ebp),%eax
   1263b:	83 c0 0c             	add    $0xc,%eax
   1263e:	83 ec 08             	sub    $0x8,%esp
   12641:	50                   	push   %eax
   12642:	ff 75 0c             	pushl  0xc(%ebp)
   12645:	e8 ff e8 ff ff       	call   10f49 <memory_get_paddr>
   1264a:	83 c4 10             	add    $0x10,%esp
   1264d:	89 45 ec             	mov    %eax,-0x14(%ebp)
   12650:	c7 45 f0 00 00 00 00 	movl   $0x0,-0x10(%ebp)
   12657:	eb 60                	jmp    126b9 <copy_args+0xab>
   12659:	8b 45 f0             	mov    -0x10(%ebp),%eax
   1265c:	8d 14 85 00 00 00 00 	lea    0x0(,%eax,4),%edx
   12663:	8b 45 14             	mov    0x14(%ebp),%eax
   12666:	01 d0                	add    %edx,%eax
   12668:	8b 00                	mov    (%eax),%eax
   1266a:	89 45 e8             	mov    %eax,-0x18(%ebp)
   1266d:	83 ec 0c             	sub    $0xc,%esp
   12670:	ff 75 e8             	pushl  -0x18(%ebp)
   12673:	e8 5c 5d 00 00       	call   183d4 <kernel_strlen>
   12678:	83 c4 10             	add    $0x10,%esp
   1267b:	83 c0 01             	add    $0x1,%eax
   1267e:	89 45 e4             	mov    %eax,-0x1c(%ebp)
   12681:	8b 4d e4             	mov    -0x1c(%ebp),%ecx
   12684:	8b 55 e8             	mov    -0x18(%ebp),%edx
   12687:	8b 45 f4             	mov    -0xc(%ebp),%eax
   1268a:	51                   	push   %ecx
   1268b:	52                   	push   %edx
   1268c:	ff 75 0c             	pushl  0xc(%ebp)
   1268f:	50                   	push   %eax
   12690:	e8 fa e8 ff ff       	call   10f8f <memory_copy_uvm_data>
   12695:	83 c4 10             	add    $0x10,%esp
   12698:	89 45 e0             	mov    %eax,-0x20(%ebp)
   1269b:	8b 45 f0             	mov    -0x10(%ebp),%eax
   1269e:	8d 14 85 00 00 00 00 	lea    0x0(,%eax,4),%edx
   126a5:	8b 45 ec             	mov    -0x14(%ebp),%eax
   126a8:	01 c2                	add    %eax,%edx
   126aa:	8b 45 f4             	mov    -0xc(%ebp),%eax
   126ad:	89 02                	mov    %eax,(%edx)
   126af:	8b 45 e4             	mov    -0x1c(%ebp),%eax
   126b2:	01 45 f4             	add    %eax,-0xc(%ebp)
   126b5:	83 45 f0 01          	addl   $0x1,-0x10(%ebp)
   126b9:	8b 45 f0             	mov    -0x10(%ebp),%eax
   126bc:	3b 45 10             	cmp    0x10(%ebp),%eax
   126bf:	7c 98                	jl     12659 <copy_args+0x4b>
   126c1:	83 7d 10 00          	cmpl   $0x0,0x10(%ebp)
   126c5:	74 15                	je     126dc <copy_args+0xce>
   126c7:	8b 45 10             	mov    0x10(%ebp),%eax
   126ca:	8d 14 85 00 00 00 00 	lea    0x0(,%eax,4),%edx
   126d1:	8b 45 ec             	mov    -0x14(%ebp),%eax
   126d4:	01 d0                	add    %edx,%eax
   126d6:	c7 00 00 00 00 00    	movl   $0x0,(%eax)
   126dc:	8d 55 d4             	lea    -0x2c(%ebp),%edx
   126df:	8b 45 08             	mov    0x8(%ebp),%eax
   126e2:	6a 0c                	push   $0xc
   126e4:	52                   	push   %edx
   126e5:	ff 75 0c             	pushl  0xc(%ebp)
   126e8:	50                   	push   %eax
   126e9:	e8 a1 e8 ff ff       	call   10f8f <memory_copy_uvm_data>
   126ee:	83 c4 10             	add    $0x10,%esp
   126f1:	c9                   	leave  
   126f2:	c3                   	ret    

000126f3 <sys_execve>:
   126f3:	55                   	push   %ebp
   126f4:	89 e5                	mov    %esp,%ebp
   126f6:	83 ec 28             	sub    $0x28,%esp
   126f9:	e8 8e f2 ff ff       	call   1198c <task_current>
   126fe:	89 45 f4             	mov    %eax,-0xc(%ebp)
   12701:	83 ec 0c             	sub    $0xc,%esp
   12704:	ff 75 08             	pushl  0x8(%ebp)
   12707:	e8 26 61 00 00       	call   18832 <get_file_name>
   1270c:	83 c4 10             	add    $0x10,%esp
   1270f:	89 c2                	mov    %eax,%edx
   12711:	8b 45 f4             	mov    -0xc(%ebp),%eax
   12714:	83 c0 28             	add    $0x28,%eax
   12717:	83 ec 04             	sub    $0x4,%esp
   1271a:	6a 20                	push   $0x20
   1271c:	52                   	push   %edx
   1271d:	50                   	push   %eax
   1271e:	e8 cd 5b 00 00       	call   182f0 <kernel_strncpy>
   12723:	83 c4 10             	add    $0x10,%esp
   12726:	8b 45 f4             	mov    -0xc(%ebp),%eax
   12729:	8b 80 80 00 00 00    	mov    0x80(%eax),%eax
   1272f:	89 45 f0             	mov    %eax,-0x10(%ebp)
   12732:	e8 04 e3 ff ff       	call   10a3b <memory_create_user_space>
   12737:	89 45 ec             	mov    %eax,-0x14(%ebp)
   1273a:	83 7d ec 00          	cmpl   $0x0,-0x14(%ebp)
   1273e:	0f 84 5d 01 00 00    	je     128a1 <sys_execve+0x1ae>
   12744:	83 ec 04             	sub    $0x4,%esp
   12747:	ff 75 ec             	pushl  -0x14(%ebp)
   1274a:	ff 75 08             	pushl  0x8(%ebp)
   1274d:	ff 75 f4             	pushl  -0xc(%ebp)
   12750:	e8 df fc ff ff       	call   12434 <load_elf_file>
   12755:	83 c4 10             	add    $0x10,%esp
   12758:	89 45 e8             	mov    %eax,-0x18(%ebp)
   1275b:	83 7d e8 00          	cmpl   $0x0,-0x18(%ebp)
   1275f:	0f 84 3f 01 00 00    	je     128a4 <sys_execve+0x1b1>
   12765:	c7 45 e4 00 c0 ff df 	movl   $0xdfffc000,-0x1c(%ebp)
   1276c:	6a 07                	push   $0x7
   1276e:	68 00 40 06 00       	push   $0x64000
   12773:	68 00 c0 f9 df       	push   $0xdff9c000
   12778:	ff 75 ec             	pushl  -0x14(%ebp)
   1277b:	e8 6e e4 ff ff       	call   10bee <memory_alloc_for_page_dir>
   12780:	83 c4 10             	add    $0x10,%esp
   12783:	89 45 e0             	mov    %eax,-0x20(%ebp)
   12786:	83 7d e0 00          	cmpl   $0x0,-0x20(%ebp)
   1278a:	0f 88 17 01 00 00    	js     128a7 <sys_execve+0x1b4>
   12790:	83 ec 0c             	sub    $0xc,%esp
   12793:	ff 75 0c             	pushl  0xc(%ebp)
   12796:	e8 6a 60 00 00       	call   18805 <strings_count>
   1279b:	83 c4 10             	add    $0x10,%esp
   1279e:	89 45 dc             	mov    %eax,-0x24(%ebp)
   127a1:	8b 45 e4             	mov    -0x1c(%ebp),%eax
   127a4:	ff 75 0c             	pushl  0xc(%ebp)
   127a7:	ff 75 dc             	pushl  -0x24(%ebp)
   127aa:	ff 75 ec             	pushl  -0x14(%ebp)
   127ad:	50                   	push   %eax
   127ae:	e8 5b fe ff ff       	call   1260e <copy_args>
   127b3:	83 c4 10             	add    $0x10,%esp
   127b6:	89 45 e0             	mov    %eax,-0x20(%ebp)
   127b9:	83 7d e0 00          	cmpl   $0x0,-0x20(%ebp)
   127bd:	0f 88 e7 00 00 00    	js     128aa <sys_execve+0x1b7>
   127c3:	a1 00 d6 01 00       	mov    0x1d600,%eax
   127c8:	83 e8 58             	sub    $0x58,%eax
   127cb:	89 45 d8             	mov    %eax,-0x28(%ebp)
   127ce:	8b 55 e8             	mov    -0x18(%ebp),%edx
   127d1:	8b 45 d8             	mov    -0x28(%ebp),%eax
   127d4:	89 50 34             	mov    %edx,0x34(%eax)
   127d7:	8b 45 d8             	mov    -0x28(%ebp),%eax
   127da:	c7 40 1c 00 00 00 00 	movl   $0x0,0x1c(%eax)
   127e1:	8b 45 d8             	mov    -0x28(%ebp),%eax
   127e4:	8b 50 1c             	mov    0x1c(%eax),%edx
   127e7:	8b 45 d8             	mov    -0x28(%ebp),%eax
   127ea:	89 50 14             	mov    %edx,0x14(%eax)
   127ed:	8b 45 d8             	mov    -0x28(%ebp),%eax
   127f0:	8b 50 14             	mov    0x14(%eax),%edx
   127f3:	8b 45 d8             	mov    -0x28(%ebp),%eax
   127f6:	89 50 18             	mov    %edx,0x18(%eax)
   127f9:	8b 45 d8             	mov    -0x28(%ebp),%eax
   127fc:	8b 50 18             	mov    0x18(%eax),%edx
   127ff:	8b 45 d8             	mov    -0x28(%ebp),%eax
   12802:	89 50 28             	mov    %edx,0x28(%eax)
   12805:	8b 45 d8             	mov    -0x28(%ebp),%eax
   12808:	8b 50 28             	mov    0x28(%eax),%edx
   1280b:	8b 45 d8             	mov    -0x28(%ebp),%eax
   1280e:	89 50 2c             	mov    %edx,0x2c(%eax)
   12811:	8b 45 d8             	mov    -0x28(%ebp),%eax
   12814:	8b 50 2c             	mov    0x2c(%eax),%edx
   12817:	8b 45 d8             	mov    -0x28(%ebp),%eax
   1281a:	89 50 24             	mov    %edx,0x24(%eax)
   1281d:	8b 45 d8             	mov    -0x28(%ebp),%eax
   12820:	8b 50 24             	mov    0x24(%eax),%edx
   12823:	8b 45 d8             	mov    -0x28(%ebp),%eax
   12826:	89 50 30             	mov    %edx,0x30(%eax)
   12829:	8b 45 d8             	mov    -0x28(%ebp),%eax
   1282c:	c7 00 02 02 00 00    	movl   $0x202,(%eax)
   12832:	8b 45 e4             	mov    -0x1c(%ebp),%eax
   12835:	83 e8 14             	sub    $0x14,%eax
   12838:	89 c2                	mov    %eax,%edx
   1283a:	8b 45 d8             	mov    -0x28(%ebp),%eax
   1283d:	89 50 50             	mov    %edx,0x50(%eax)
   12840:	8b 45 d8             	mov    -0x28(%ebp),%eax
   12843:	c7 40 38 1b 00 00 00 	movl   $0x1b,0x38(%eax)
   1284a:	8b 45 d8             	mov    -0x28(%ebp),%eax
   1284d:	c7 40 10 23 00 00 00 	movl   $0x23,0x10(%eax)
   12854:	8b 45 d8             	mov    -0x28(%ebp),%eax
   12857:	c7 40 0c 23 00 00 00 	movl   $0x23,0xc(%eax)
   1285e:	8b 45 d8             	mov    -0x28(%ebp),%eax
   12861:	c7 40 08 23 00 00 00 	movl   $0x23,0x8(%eax)
   12868:	8b 45 d8             	mov    -0x28(%ebp),%eax
   1286b:	c7 40 04 23 00 00 00 	movl   $0x23,0x4(%eax)
   12872:	8b 45 f4             	mov    -0xc(%ebp),%eax
   12875:	8b 55 ec             	mov    -0x14(%ebp),%edx
   12878:	89 90 80 00 00 00    	mov    %edx,0x80(%eax)
   1287e:	83 ec 0c             	sub    $0xc,%esp
   12881:	ff 75 ec             	pushl  -0x14(%ebp)
   12884:	e8 85 e9 ff ff       	call   1120e <mmu_set_page_dir>
   12889:	83 c4 10             	add    $0x10,%esp
   1288c:	83 ec 0c             	sub    $0xc,%esp
   1288f:	ff 75 f0             	pushl  -0x10(%ebp)
   12892:	e8 cb e5 ff ff       	call   10e62 <memory_destroy_uvm>
   12897:	83 c4 10             	add    $0x10,%esp
   1289a:	b8 00 00 00 00       	mov    $0x0,%eax
   1289f:	eb 3d                	jmp    128de <sys_execve+0x1eb>
   128a1:	90                   	nop
   128a2:	eb 07                	jmp    128ab <sys_execve+0x1b8>
   128a4:	90                   	nop
   128a5:	eb 04                	jmp    128ab <sys_execve+0x1b8>
   128a7:	90                   	nop
   128a8:	eb 01                	jmp    128ab <sys_execve+0x1b8>
   128aa:	90                   	nop
   128ab:	83 7d ec 00          	cmpl   $0x0,-0x14(%ebp)
   128af:	74 28                	je     128d9 <sys_execve+0x1e6>
   128b1:	8b 45 f4             	mov    -0xc(%ebp),%eax
   128b4:	8b 55 f0             	mov    -0x10(%ebp),%edx
   128b7:	89 90 80 00 00 00    	mov    %edx,0x80(%eax)
   128bd:	83 ec 0c             	sub    $0xc,%esp
   128c0:	ff 75 f0             	pushl  -0x10(%ebp)
   128c3:	e8 46 e9 ff ff       	call   1120e <mmu_set_page_dir>
   128c8:	83 c4 10             	add    $0x10,%esp
   128cb:	83 ec 0c             	sub    $0xc,%esp
   128ce:	ff 75 ec             	pushl  -0x14(%ebp)
   128d1:	e8 8c e5 ff ff       	call   10e62 <memory_destroy_uvm>
   128d6:	83 c4 10             	add    $0x10,%esp
   128d9:	b8 ff ff ff ff       	mov    $0xffffffff,%eax
   128de:	c9                   	leave  
   128df:	c3                   	ret    

000128e0 <lgdt>:
   128e0:	55                   	push   %ebp
   128e1:	89 e5                	mov    %esp,%ebp
   128e3:	83 ec 10             	sub    $0x10,%esp
   128e6:	8b 45 08             	mov    0x8(%ebp),%eax
   128e9:	c1 e8 10             	shr    $0x10,%eax
   128ec:	66 89 45 fe          	mov    %ax,-0x2(%ebp)
   128f0:	8b 45 08             	mov    0x8(%ebp),%eax
   128f3:	66 89 45 fc          	mov    %ax,-0x4(%ebp)
   128f7:	8b 45 0c             	mov    0xc(%ebp),%eax
   128fa:	83 e8 01             	sub    $0x1,%eax
   128fd:	66 89 45 fa          	mov    %ax,-0x6(%ebp)
   12901:	0f 01 55 fa          	lgdtl  -0x6(%ebp)
   12905:	90                   	nop
   12906:	c9                   	leave  
   12907:	c3                   	ret    

00012908 <far_jump>:
   12908:	55                   	push   %ebp
   12909:	89 e5                	mov    %esp,%ebp
   1290b:	83 ec 10             	sub    $0x10,%esp
   1290e:	8b 45 0c             	mov    0xc(%ebp),%eax
   12911:	89 45 f8             	mov    %eax,-0x8(%ebp)
   12914:	8b 45 08             	mov    0x8(%ebp),%eax
   12917:	89 45 fc             	mov    %eax,-0x4(%ebp)
   1291a:	8d 45 f8             	lea    -0x8(%ebp),%eax
   1291d:	ff 28                	ljmp   *(%eax)
   1291f:	90                   	nop
   12920:	c9                   	leave  
   12921:	c3                   	ret    

00012922 <show_base>:
   12922:	55                   	push   %ebp
   12923:	89 e5                	mov    %esp,%ebp
   12925:	83 ec 18             	sub    $0x18,%esp
   12928:	8b 45 08             	mov    0x8(%ebp),%eax
   1292b:	c1 e0 03             	shl    $0x3,%eax
   1292e:	05 a0 60 03 00       	add    $0x360a0,%eax
   12933:	89 45 f4             	mov    %eax,-0xc(%ebp)
   12936:	8b 45 f4             	mov    -0xc(%ebp),%eax
   12939:	0f b7 40 02          	movzwl 0x2(%eax),%eax
   1293d:	0f b7 d0             	movzwl %ax,%edx
   12940:	8b 45 f4             	mov    -0xc(%ebp),%eax
   12943:	0f b6 40 04          	movzbl 0x4(%eax),%eax
   12947:	0f b6 c0             	movzbl %al,%eax
   1294a:	c1 e0 10             	shl    $0x10,%eax
   1294d:	09 c2                	or     %eax,%edx
   1294f:	8b 45 f4             	mov    -0xc(%ebp),%eax
   12952:	0f b6 40 07          	movzbl 0x7(%eax),%eax
   12956:	0f b6 c0             	movzbl %al,%eax
   12959:	c1 e0 18             	shl    $0x18,%eax
   1295c:	09 d0                	or     %edx,%eax
   1295e:	89 45 f0             	mov    %eax,-0x10(%ebp)
   12961:	83 ec 04             	sub    $0x4,%esp
   12964:	ff 75 f0             	pushl  -0x10(%ebp)
   12967:	ff 75 08             	pushl  0x8(%ebp)
   1296a:	68 56 8e 01 00       	push   $0x18e56
   1296f:	e8 29 61 00 00       	call   18a9d <log_printf>
   12974:	83 c4 10             	add    $0x10,%esp
   12977:	90                   	nop
   12978:	c9                   	leave  
   12979:	c3                   	ret    

0001297a <segment_desc_set>:
   1297a:	55                   	push   %ebp
   1297b:	89 e5                	mov    %esp,%ebp
   1297d:	83 ec 14             	sub    $0x14,%esp
   12980:	8b 45 14             	mov    0x14(%ebp),%eax
   12983:	66 89 45 ec          	mov    %ax,-0x14(%ebp)
   12987:	8b 45 08             	mov    0x8(%ebp),%eax
   1298a:	83 e0 f8             	and    $0xfffffff8,%eax
   1298d:	05 a0 60 03 00       	add    $0x360a0,%eax
   12992:	89 45 fc             	mov    %eax,-0x4(%ebp)
   12995:	81 7d 10 ff ff 0f 00 	cmpl   $0xfffff,0x10(%ebp)
   1299c:	76 0f                	jbe    129ad <segment_desc_set+0x33>
   1299e:	8b 45 10             	mov    0x10(%ebp),%eax
   129a1:	c1 e8 0c             	shr    $0xc,%eax
   129a4:	89 45 10             	mov    %eax,0x10(%ebp)
   129a7:	66 81 4d ec 00 80    	orw    $0x8000,-0x14(%ebp)
   129ad:	8b 45 10             	mov    0x10(%ebp),%eax
   129b0:	89 c2                	mov    %eax,%edx
   129b2:	8b 45 fc             	mov    -0x4(%ebp),%eax
   129b5:	66 89 10             	mov    %dx,(%eax)
   129b8:	8b 45 0c             	mov    0xc(%ebp),%eax
   129bb:	89 c2                	mov    %eax,%edx
   129bd:	8b 45 fc             	mov    -0x4(%ebp),%eax
   129c0:	66 89 50 02          	mov    %dx,0x2(%eax)
   129c4:	8b 45 0c             	mov    0xc(%ebp),%eax
   129c7:	c1 e8 10             	shr    $0x10,%eax
   129ca:	89 c2                	mov    %eax,%edx
   129cc:	8b 45 fc             	mov    -0x4(%ebp),%eax
   129cf:	88 50 04             	mov    %dl,0x4(%eax)
   129d2:	8b 45 10             	mov    0x10(%ebp),%eax
   129d5:	c1 e8 10             	shr    $0x10,%eax
   129d8:	c1 e0 08             	shl    $0x8,%eax
   129db:	66 25 00 0f          	and    $0xf00,%ax
   129df:	66 0b 45 ec          	or     -0x14(%ebp),%ax
   129e3:	89 c2                	mov    %eax,%edx
   129e5:	8b 45 fc             	mov    -0x4(%ebp),%eax
   129e8:	66 89 50 05          	mov    %dx,0x5(%eax)
   129ec:	8b 45 0c             	mov    0xc(%ebp),%eax
   129ef:	c1 e8 18             	shr    $0x18,%eax
   129f2:	89 c2                	mov    %eax,%edx
   129f4:	8b 45 fc             	mov    -0x4(%ebp),%eax
   129f7:	88 50 07             	mov    %dl,0x7(%eax)
   129fa:	90                   	nop
   129fb:	c9                   	leave  
   129fc:	c3                   	ret    

000129fd <gate_desc_set>:
   129fd:	55                   	push   %ebp
   129fe:	89 e5                	mov    %esp,%ebp
   12a00:	83 ec 08             	sub    $0x8,%esp
   12a03:	8b 55 0c             	mov    0xc(%ebp),%edx
   12a06:	8b 45 14             	mov    0x14(%ebp),%eax
   12a09:	66 89 55 fc          	mov    %dx,-0x4(%ebp)
   12a0d:	66 89 45 f8          	mov    %ax,-0x8(%ebp)
   12a11:	8b 45 08             	mov    0x8(%ebp),%eax
   12a14:	0f b7 55 fc          	movzwl -0x4(%ebp),%edx
   12a18:	66 89 50 02          	mov    %dx,0x2(%eax)
   12a1c:	8b 45 10             	mov    0x10(%ebp),%eax
   12a1f:	89 c2                	mov    %eax,%edx
   12a21:	8b 45 08             	mov    0x8(%ebp),%eax
   12a24:	66 89 10             	mov    %dx,(%eax)
   12a27:	8b 45 10             	mov    0x10(%ebp),%eax
   12a2a:	c1 e8 10             	shr    $0x10,%eax
   12a2d:	89 c2                	mov    %eax,%edx
   12a2f:	8b 45 08             	mov    0x8(%ebp),%eax
   12a32:	66 89 50 06          	mov    %dx,0x6(%eax)
   12a36:	8b 45 08             	mov    0x8(%ebp),%eax
   12a39:	0f b7 55 f8          	movzwl -0x8(%ebp),%edx
   12a3d:	66 89 50 04          	mov    %dx,0x4(%eax)
   12a41:	90                   	nop
   12a42:	c9                   	leave  
   12a43:	c3                   	ret    

00012a44 <gdt_alloc_desc>:
   12a44:	55                   	push   %ebp
   12a45:	89 e5                	mov    %esp,%ebp
   12a47:	83 ec 18             	sub    $0x18,%esp
   12a4a:	83 ec 0c             	sub    $0xc,%esp
   12a4d:	68 a0 68 03 00       	push   $0x368a0
   12a52:	e8 88 53 00 00       	call   17ddf <mutex_lock>
   12a57:	83 c4 10             	add    $0x10,%esp
   12a5a:	c7 45 f4 01 00 00 00 	movl   $0x1,-0xc(%ebp)
   12a61:	eb 2c                	jmp    12a8f <gdt_alloc_desc+0x4b>
   12a63:	8b 45 f4             	mov    -0xc(%ebp),%eax
   12a66:	0f b7 04 c5 a5 60 03 	movzwl 0x360a5(,%eax,8),%eax
   12a6d:	00 
   12a6e:	66 85 c0             	test   %ax,%ax
   12a71:	75 18                	jne    12a8b <gdt_alloc_desc+0x47>
   12a73:	83 ec 0c             	sub    $0xc,%esp
   12a76:	68 a0 68 03 00       	push   $0x368a0
   12a7b:	e8 ef 53 00 00       	call   17e6f <mutex_unlock>
   12a80:	83 c4 10             	add    $0x10,%esp
   12a83:	8b 45 f4             	mov    -0xc(%ebp),%eax
   12a86:	c1 e0 03             	shl    $0x3,%eax
   12a89:	eb 22                	jmp    12aad <gdt_alloc_desc+0x69>
   12a8b:	83 45 f4 01          	addl   $0x1,-0xc(%ebp)
   12a8f:	81 7d f4 ff 00 00 00 	cmpl   $0xff,-0xc(%ebp)
   12a96:	7e cb                	jle    12a63 <gdt_alloc_desc+0x1f>
   12a98:	83 ec 0c             	sub    $0xc,%esp
   12a9b:	68 a0 68 03 00       	push   $0x368a0
   12aa0:	e8 ca 53 00 00       	call   17e6f <mutex_unlock>
   12aa5:	83 c4 10             	add    $0x10,%esp
   12aa8:	b8 ff ff ff ff       	mov    $0xffffffff,%eax
   12aad:	c9                   	leave  
   12aae:	c3                   	ret    

00012aaf <gdt_free_desc>:
   12aaf:	55                   	push   %ebp
   12ab0:	89 e5                	mov    %esp,%ebp
   12ab2:	83 ec 08             	sub    $0x8,%esp
   12ab5:	83 ec 0c             	sub    $0xc,%esp
   12ab8:	68 a0 68 03 00       	push   $0x368a0
   12abd:	e8 1d 53 00 00       	call   17ddf <mutex_lock>
   12ac2:	83 c4 10             	add    $0x10,%esp
   12ac5:	8b 45 08             	mov    0x8(%ebp),%eax
   12ac8:	c1 e8 03             	shr    $0x3,%eax
   12acb:	66 c7 04 c5 a5 60 03 	movw   $0x0,0x360a5(,%eax,8)
   12ad2:	00 00 00 
   12ad5:	83 ec 0c             	sub    $0xc,%esp
   12ad8:	68 a0 68 03 00       	push   $0x368a0
   12add:	e8 8d 53 00 00       	call   17e6f <mutex_unlock>
   12ae2:	83 c4 10             	add    $0x10,%esp
   12ae5:	90                   	nop
   12ae6:	c9                   	leave  
   12ae7:	c3                   	ret    

00012ae8 <init_gdt>:
   12ae8:	55                   	push   %ebp
   12ae9:	89 e5                	mov    %esp,%ebp
   12aeb:	83 ec 10             	sub    $0x10,%esp
   12aee:	c7 45 fc 00 00 00 00 	movl   $0x0,-0x4(%ebp)
   12af5:	eb 19                	jmp    12b10 <init_gdt+0x28>
   12af7:	8b 45 fc             	mov    -0x4(%ebp),%eax
   12afa:	c1 e0 03             	shl    $0x3,%eax
   12afd:	6a 00                	push   $0x0
   12aff:	6a 00                	push   $0x0
   12b01:	6a 00                	push   $0x0
   12b03:	50                   	push   %eax
   12b04:	e8 71 fe ff ff       	call   1297a <segment_desc_set>
   12b09:	83 c4 10             	add    $0x10,%esp
   12b0c:	83 45 fc 01          	addl   $0x1,-0x4(%ebp)
   12b10:	81 7d fc ff 00 00 00 	cmpl   $0xff,-0x4(%ebp)
   12b17:	7e de                	jle    12af7 <init_gdt+0xf>
   12b19:	68 9a 40 00 00       	push   $0x409a
   12b1e:	6a ff                	push   $0xffffffff
   12b20:	6a 00                	push   $0x0
   12b22:	6a 08                	push   $0x8
   12b24:	e8 51 fe ff ff       	call   1297a <segment_desc_set>
   12b29:	83 c4 10             	add    $0x10,%esp
   12b2c:	68 92 40 00 00       	push   $0x4092
   12b31:	6a ff                	push   $0xffffffff
   12b33:	6a 00                	push   $0x0
   12b35:	6a 10                	push   $0x10
   12b37:	e8 3e fe ff ff       	call   1297a <segment_desc_set>
   12b3c:	83 c4 10             	add    $0x10,%esp
   12b3f:	ba 13 06 01 00       	mov    $0x10613,%edx
   12b44:	b8 c8 60 03 00       	mov    $0x360c8,%eax
   12b49:	68 05 ec 00 00       	push   $0xec05
   12b4e:	52                   	push   %edx
   12b4f:	6a 08                	push   $0x8
   12b51:	50                   	push   %eax
   12b52:	e8 a6 fe ff ff       	call   129fd <gate_desc_set>
   12b57:	83 c4 10             	add    $0x10,%esp
   12b5a:	b8 a0 60 03 00       	mov    $0x360a0,%eax
   12b5f:	68 00 08 00 00       	push   $0x800
   12b64:	50                   	push   %eax
   12b65:	e8 76 fd ff ff       	call   128e0 <lgdt>
   12b6a:	83 c4 08             	add    $0x8,%esp
   12b6d:	90                   	nop
   12b6e:	c9                   	leave  
   12b6f:	c3                   	ret    

00012b70 <cpu_init>:
   12b70:	55                   	push   %ebp
   12b71:	89 e5                	mov    %esp,%ebp
   12b73:	83 ec 08             	sub    $0x8,%esp
   12b76:	83 ec 0c             	sub    $0xc,%esp
   12b79:	68 a0 68 03 00       	push   $0x368a0
   12b7e:	e8 30 52 00 00       	call   17db3 <mutex_init>
   12b83:	83 c4 10             	add    $0x10,%esp
   12b86:	e8 5d ff ff ff       	call   12ae8 <init_gdt>
   12b8b:	90                   	nop
   12b8c:	c9                   	leave  
   12b8d:	c3                   	ret    

00012b8e <switch_to_tss>:
   12b8e:	55                   	push   %ebp
   12b8f:	89 e5                	mov    %esp,%ebp
   12b91:	8b 45 08             	mov    0x8(%ebp),%eax
   12b94:	6a 00                	push   $0x0
   12b96:	50                   	push   %eax
   12b97:	e8 6c fd ff ff       	call   12908 <far_jump>
   12b9c:	83 c4 08             	add    $0x8,%esp
   12b9f:	90                   	nop
   12ba0:	c9                   	leave  
   12ba1:	c3                   	ret    

00012ba2 <inb>:
   12ba2:	55                   	push   %ebp
   12ba3:	89 e5                	mov    %esp,%ebp
   12ba5:	83 ec 14             	sub    $0x14,%esp
   12ba8:	8b 45 08             	mov    0x8(%ebp),%eax
   12bab:	66 89 45 ec          	mov    %ax,-0x14(%ebp)
   12baf:	0f b7 45 ec          	movzwl -0x14(%ebp),%eax
   12bb3:	89 c2                	mov    %eax,%edx
   12bb5:	ec                   	in     (%dx),%al
   12bb6:	88 45 ff             	mov    %al,-0x1(%ebp)
   12bb9:	0f b6 45 ff          	movzbl -0x1(%ebp),%eax
   12bbd:	c9                   	leave  
   12bbe:	c3                   	ret    

00012bbf <outb>:
   12bbf:	55                   	push   %ebp
   12bc0:	89 e5                	mov    %esp,%ebp
   12bc2:	83 ec 08             	sub    $0x8,%esp
   12bc5:	8b 55 08             	mov    0x8(%ebp),%edx
   12bc8:	8b 45 0c             	mov    0xc(%ebp),%eax
   12bcb:	66 89 55 fc          	mov    %dx,-0x4(%ebp)
   12bcf:	88 45 f8             	mov    %al,-0x8(%ebp)
   12bd2:	0f b7 55 fc          	movzwl -0x4(%ebp),%edx
   12bd6:	0f b6 45 f8          	movzbl -0x8(%ebp),%eax
   12bda:	ee                   	out    %al,(%dx)
   12bdb:	90                   	nop
   12bdc:	c9                   	leave  
   12bdd:	c3                   	ret    

00012bde <cli>:
   12bde:	55                   	push   %ebp
   12bdf:	89 e5                	mov    %esp,%ebp
   12be1:	fa                   	cli    
   12be2:	90                   	nop
   12be3:	5d                   	pop    %ebp
   12be4:	c3                   	ret    

00012be5 <sti>:
   12be5:	55                   	push   %ebp
   12be6:	89 e5                	mov    %esp,%ebp
   12be8:	fb                   	sti    
   12be9:	90                   	nop
   12bea:	5d                   	pop    %ebp
   12beb:	c3                   	ret    

00012bec <lidt>:
   12bec:	55                   	push   %ebp
   12bed:	89 e5                	mov    %esp,%ebp
   12bef:	83 ec 10             	sub    $0x10,%esp
   12bf2:	8b 45 08             	mov    0x8(%ebp),%eax
   12bf5:	c1 e8 10             	shr    $0x10,%eax
   12bf8:	66 89 45 fe          	mov    %ax,-0x2(%ebp)
   12bfc:	8b 45 08             	mov    0x8(%ebp),%eax
   12bff:	66 89 45 fc          	mov    %ax,-0x4(%ebp)
   12c03:	8b 45 0c             	mov    0xc(%ebp),%eax
   12c06:	83 e8 01             	sub    $0x1,%eax
   12c09:	66 89 45 fa          	mov    %ax,-0x6(%ebp)
   12c0d:	0f 01 5d fa          	lidtl  -0x6(%ebp)
   12c11:	90                   	nop
   12c12:	c9                   	leave  
   12c13:	c3                   	ret    

00012c14 <read_cr2>:
   12c14:	55                   	push   %ebp
   12c15:	89 e5                	mov    %esp,%ebp
   12c17:	83 ec 10             	sub    $0x10,%esp
   12c1a:	0f 20 d0             	mov    %cr2,%eax
   12c1d:	89 45 fc             	mov    %eax,-0x4(%ebp)
   12c20:	8b 45 fc             	mov    -0x4(%ebp),%eax
   12c23:	c9                   	leave  
   12c24:	c3                   	ret    

00012c25 <hlt>:
   12c25:	55                   	push   %ebp
   12c26:	89 e5                	mov    %esp,%ebp
   12c28:	f4                   	hlt    
   12c29:	90                   	nop
   12c2a:	5d                   	pop    %ebp
   12c2b:	c3                   	ret    

00012c2c <read_eflags>:
   12c2c:	55                   	push   %ebp
   12c2d:	89 e5                	mov    %esp,%ebp
   12c2f:	83 ec 10             	sub    $0x10,%esp
   12c32:	9c                   	pushf  
   12c33:	58                   	pop    %eax
   12c34:	89 45 fc             	mov    %eax,-0x4(%ebp)
   12c37:	8b 45 fc             	mov    -0x4(%ebp),%eax
   12c3a:	c9                   	leave  
   12c3b:	c3                   	ret    

00012c3c <write_eflags>:
   12c3c:	55                   	push   %ebp
   12c3d:	89 e5                	mov    %esp,%ebp
   12c3f:	8b 45 08             	mov    0x8(%ebp),%eax
   12c42:	50                   	push   %eax
   12c43:	9d                   	popf   
   12c44:	90                   	nop
   12c45:	5d                   	pop    %ebp
   12c46:	c3                   	ret    

00012c47 <dump_core_regs>:
   12c47:	55                   	push   %ebp
   12c48:	89 e5                	mov    %esp,%ebp
   12c4a:	56                   	push   %esi
   12c4b:	53                   	push   %ebx
   12c4c:	83 ec 10             	sub    $0x10,%esp
   12c4f:	8b 45 08             	mov    0x8(%ebp),%eax
   12c52:	8b 40 3c             	mov    0x3c(%eax),%eax
   12c55:	83 e0 03             	and    $0x3,%eax
   12c58:	85 c0                	test   %eax,%eax
   12c5a:	74 14                	je     12c70 <dump_core_regs+0x29>
   12c5c:	8b 45 08             	mov    0x8(%ebp),%eax
   12c5f:	8b 40 48             	mov    0x48(%eax),%eax
   12c62:	89 45 f4             	mov    %eax,-0xc(%ebp)
   12c65:	8b 45 08             	mov    0x8(%ebp),%eax
   12c68:	8b 40 44             	mov    0x44(%eax),%eax
   12c6b:	89 45 f0             	mov    %eax,-0x10(%ebp)
   12c6e:	eb 12                	jmp    12c82 <dump_core_regs+0x3b>
   12c70:	8b 45 08             	mov    0x8(%ebp),%eax
   12c73:	8b 40 0c             	mov    0xc(%eax),%eax
   12c76:	89 45 f4             	mov    %eax,-0xc(%ebp)
   12c79:	8b 45 08             	mov    0x8(%ebp),%eax
   12c7c:	8b 40 1c             	mov    0x1c(%eax),%eax
   12c7f:	89 45 f0             	mov    %eax,-0x10(%ebp)
   12c82:	8b 45 08             	mov    0x8(%ebp),%eax
   12c85:	8b 50 34             	mov    0x34(%eax),%edx
   12c88:	8b 45 08             	mov    0x8(%ebp),%eax
   12c8b:	8b 40 30             	mov    0x30(%eax),%eax
   12c8e:	83 ec 04             	sub    $0x4,%esp
   12c91:	52                   	push   %edx
   12c92:	50                   	push   %eax
   12c93:	68 68 8e 01 00       	push   $0x18e68
   12c98:	e8 00 5e 00 00       	call   18a9d <log_printf>
   12c9d:	83 c4 10             	add    $0x10,%esp
   12ca0:	8b 45 08             	mov    0x8(%ebp),%eax
   12ca3:	8b 30                	mov    (%eax),%esi
   12ca5:	8b 45 08             	mov    0x8(%ebp),%eax
   12ca8:	8b 58 04             	mov    0x4(%eax),%ebx
   12cab:	8b 45 08             	mov    0x8(%ebp),%eax
   12cae:	8b 48 08             	mov    0x8(%eax),%ecx
   12cb1:	8b 45 08             	mov    0x8(%ebp),%eax
   12cb4:	8b 50 0c             	mov    0xc(%eax),%edx
   12cb7:	8b 45 08             	mov    0x8(%ebp),%eax
   12cba:	8b 40 3c             	mov    0x3c(%eax),%eax
   12cbd:	83 ec 04             	sub    $0x4,%esp
   12cc0:	56                   	push   %esi
   12cc1:	53                   	push   %ebx
   12cc2:	ff 75 f4             	pushl  -0xc(%ebp)
   12cc5:	51                   	push   %ecx
   12cc6:	52                   	push   %edx
   12cc7:	50                   	push   %eax
   12cc8:	68 84 8e 01 00       	push   $0x18e84
   12ccd:	e8 cb 5d 00 00       	call   18a9d <log_printf>
   12cd2:	83 c4 20             	add    $0x20,%esp
   12cd5:	8b 45 08             	mov    0x8(%ebp),%eax
   12cd8:	8b 58 24             	mov    0x24(%eax),%ebx
   12cdb:	8b 45 08             	mov    0x8(%ebp),%eax
   12cde:	8b 48 28             	mov    0x28(%eax),%ecx
   12ce1:	8b 45 08             	mov    0x8(%ebp),%eax
   12ce4:	8b 50 20             	mov    0x20(%eax),%edx
   12ce7:	8b 45 08             	mov    0x8(%ebp),%eax
   12cea:	8b 40 2c             	mov    0x2c(%eax),%eax
   12ced:	83 ec 0c             	sub    $0xc,%esp
   12cf0:	53                   	push   %ebx
   12cf1:	51                   	push   %ecx
   12cf2:	52                   	push   %edx
   12cf3:	50                   	push   %eax
   12cf4:	68 b0 8e 01 00       	push   $0x18eb0
   12cf9:	e8 9f 5d 00 00       	call   18a9d <log_printf>
   12cfe:	83 c4 20             	add    $0x20,%esp
   12d01:	8b 45 08             	mov    0x8(%ebp),%eax
   12d04:	8b 48 18             	mov    0x18(%eax),%ecx
   12d07:	8b 45 08             	mov    0x8(%ebp),%eax
   12d0a:	8b 50 40             	mov    0x40(%eax),%edx
   12d0d:	8b 45 08             	mov    0x8(%ebp),%eax
   12d10:	8b 40 38             	mov    0x38(%eax),%eax
   12d13:	83 ec 0c             	sub    $0xc,%esp
   12d16:	51                   	push   %ecx
   12d17:	ff 75 f0             	pushl  -0x10(%ebp)
   12d1a:	52                   	push   %edx
   12d1b:	50                   	push   %eax
   12d1c:	68 dc 8e 01 00       	push   $0x18edc
   12d21:	e8 77 5d 00 00       	call   18a9d <log_printf>
   12d26:	83 c4 20             	add    $0x20,%esp
   12d29:	8b 45 08             	mov    0x8(%ebp),%eax
   12d2c:	8b 48 10             	mov    0x10(%eax),%ecx
   12d2f:	8b 45 08             	mov    0x8(%ebp),%eax
   12d32:	8b 50 14             	mov    0x14(%eax),%edx
   12d35:	8b 45 08             	mov    0x8(%ebp),%eax
   12d38:	8b 40 10             	mov    0x10(%eax),%eax
   12d3b:	51                   	push   %ecx
   12d3c:	52                   	push   %edx
   12d3d:	50                   	push   %eax
   12d3e:	68 08 8f 01 00       	push   $0x18f08
   12d43:	e8 55 5d 00 00       	call   18a9d <log_printf>
   12d48:	83 c4 10             	add    $0x10,%esp
   12d4b:	90                   	nop
   12d4c:	8d 65 f8             	lea    -0x8(%ebp),%esp
   12d4f:	5b                   	pop    %ebx
   12d50:	5e                   	pop    %esi
   12d51:	5d                   	pop    %ebp
   12d52:	c3                   	ret    

00012d53 <do_default_handler>:
   12d53:	55                   	push   %ebp
   12d54:	89 e5                	mov    %esp,%ebp
   12d56:	83 ec 08             	sub    $0x8,%esp
   12d59:	83 ec 0c             	sub    $0xc,%esp
   12d5c:	68 27 8f 01 00       	push   $0x18f27
   12d61:	e8 37 5d 00 00       	call   18a9d <log_printf>
   12d66:	83 c4 10             	add    $0x10,%esp
   12d69:	83 ec 08             	sub    $0x8,%esp
   12d6c:	ff 75 0c             	pushl  0xc(%ebp)
   12d6f:	68 3e 8f 01 00       	push   $0x18f3e
   12d74:	e8 24 5d 00 00       	call   18a9d <log_printf>
   12d79:	83 c4 10             	add    $0x10,%esp
   12d7c:	83 ec 0c             	sub    $0xc,%esp
   12d7f:	ff 75 08             	pushl  0x8(%ebp)
   12d82:	e8 c0 fe ff ff       	call   12c47 <dump_core_regs>
   12d87:	83 c4 10             	add    $0x10,%esp
   12d8a:	8b 45 08             	mov    0x8(%ebp),%eax
   12d8d:	8b 40 3c             	mov    0x3c(%eax),%eax
   12d90:	83 e0 03             	and    $0x3,%eax
   12d93:	85 c0                	test   %eax,%eax
   12d95:	74 14                	je     12dab <do_default_handler+0x58>
   12d97:	8b 45 08             	mov    0x8(%ebp),%eax
   12d9a:	8b 40 34             	mov    0x34(%eax),%eax
   12d9d:	83 ec 0c             	sub    $0xc,%esp
   12da0:	50                   	push   %eax
   12da1:	e8 51 ec ff ff       	call   119f7 <sys_exit>
   12da6:	83 c4 10             	add    $0x10,%esp
   12da9:	eb 07                	jmp    12db2 <do_default_handler+0x5f>
   12dab:	e8 75 fe ff ff       	call   12c25 <hlt>
   12db0:	eb f9                	jmp    12dab <do_default_handler+0x58>
   12db2:	c9                   	leave  
   12db3:	c3                   	ret    

00012db4 <do_handler_unknown>:
   12db4:	55                   	push   %ebp
   12db5:	89 e5                	mov    %esp,%ebp
   12db7:	83 ec 08             	sub    $0x8,%esp
   12dba:	83 ec 08             	sub    $0x8,%esp
   12dbd:	68 59 8f 01 00       	push   $0x18f59
   12dc2:	ff 75 08             	pushl  0x8(%ebp)
   12dc5:	e8 89 ff ff ff       	call   12d53 <do_default_handler>
   12dca:	83 c4 10             	add    $0x10,%esp
   12dcd:	90                   	nop
   12dce:	c9                   	leave  
   12dcf:	c3                   	ret    

00012dd0 <do_handler_divider>:
   12dd0:	55                   	push   %ebp
   12dd1:	89 e5                	mov    %esp,%ebp
   12dd3:	83 ec 08             	sub    $0x8,%esp
   12dd6:	83 ec 08             	sub    $0x8,%esp
   12dd9:	68 6b 8f 01 00       	push   $0x18f6b
   12dde:	ff 75 08             	pushl  0x8(%ebp)
   12de1:	e8 6d ff ff ff       	call   12d53 <do_default_handler>
   12de6:	83 c4 10             	add    $0x10,%esp
   12de9:	90                   	nop
   12dea:	c9                   	leave  
   12deb:	c3                   	ret    

00012dec <do_handler_debug>:
   12dec:	55                   	push   %ebp
   12ded:	89 e5                	mov    %esp,%ebp
   12def:	83 ec 08             	sub    $0x8,%esp
   12df2:	83 ec 08             	sub    $0x8,%esp
   12df5:	68 7d 8f 01 00       	push   $0x18f7d
   12dfa:	ff 75 08             	pushl  0x8(%ebp)
   12dfd:	e8 51 ff ff ff       	call   12d53 <do_default_handler>
   12e02:	83 c4 10             	add    $0x10,%esp
   12e05:	90                   	nop
   12e06:	c9                   	leave  
   12e07:	c3                   	ret    

00012e08 <do_handler_nmi>:
   12e08:	55                   	push   %ebp
   12e09:	89 e5                	mov    %esp,%ebp
   12e0b:	83 ec 08             	sub    $0x8,%esp
   12e0e:	83 ec 08             	sub    $0x8,%esp
   12e11:	68 8d 8f 01 00       	push   $0x18f8d
   12e16:	ff 75 08             	pushl  0x8(%ebp)
   12e19:	e8 35 ff ff ff       	call   12d53 <do_default_handler>
   12e1e:	83 c4 10             	add    $0x10,%esp
   12e21:	90                   	nop
   12e22:	c9                   	leave  
   12e23:	c3                   	ret    

00012e24 <do_handler_breakpoint>:
   12e24:	55                   	push   %ebp
   12e25:	89 e5                	mov    %esp,%ebp
   12e27:	83 ec 08             	sub    $0x8,%esp
   12e2a:	83 ec 08             	sub    $0x8,%esp
   12e2d:	68 9b 8f 01 00       	push   $0x18f9b
   12e32:	ff 75 08             	pushl  0x8(%ebp)
   12e35:	e8 19 ff ff ff       	call   12d53 <do_default_handler>
   12e3a:	83 c4 10             	add    $0x10,%esp
   12e3d:	90                   	nop
   12e3e:	c9                   	leave  
   12e3f:	c3                   	ret    

00012e40 <do_handler_overflow>:
   12e40:	55                   	push   %ebp
   12e41:	89 e5                	mov    %esp,%ebp
   12e43:	83 ec 08             	sub    $0x8,%esp
   12e46:	83 ec 08             	sub    $0x8,%esp
   12e49:	68 b0 8f 01 00       	push   $0x18fb0
   12e4e:	ff 75 08             	pushl  0x8(%ebp)
   12e51:	e8 fd fe ff ff       	call   12d53 <do_default_handler>
   12e56:	83 c4 10             	add    $0x10,%esp
   12e59:	90                   	nop
   12e5a:	c9                   	leave  
   12e5b:	c3                   	ret    

00012e5c <do_handler_bounds>:
   12e5c:	55                   	push   %ebp
   12e5d:	89 e5                	mov    %esp,%ebp
   12e5f:	83 ec 08             	sub    $0x8,%esp
   12e62:	83 ec 08             	sub    $0x8,%esp
   12e65:	68 c3 8f 01 00       	push   $0x18fc3
   12e6a:	ff 75 08             	pushl  0x8(%ebp)
   12e6d:	e8 e1 fe ff ff       	call   12d53 <do_default_handler>
   12e72:	83 c4 10             	add    $0x10,%esp
   12e75:	90                   	nop
   12e76:	c9                   	leave  
   12e77:	c3                   	ret    

00012e78 <do_handler_invalid_op>:
   12e78:	55                   	push   %ebp
   12e79:	89 e5                	mov    %esp,%ebp
   12e7b:	83 ec 08             	sub    $0x8,%esp
   12e7e:	83 ec 08             	sub    $0x8,%esp
   12e81:	68 d4 8f 01 00       	push   $0x18fd4
   12e86:	ff 75 08             	pushl  0x8(%ebp)
   12e89:	e8 c5 fe ff ff       	call   12d53 <do_default_handler>
   12e8e:	83 c4 10             	add    $0x10,%esp
   12e91:	90                   	nop
   12e92:	c9                   	leave  
   12e93:	c3                   	ret    

00012e94 <do_handler_device_not_available>:
   12e94:	55                   	push   %ebp
   12e95:	89 e5                	mov    %esp,%ebp
   12e97:	83 ec 08             	sub    $0x8,%esp
   12e9a:	83 ec 08             	sub    $0x8,%esp
   12e9d:	68 f0 8f 01 00       	push   $0x18ff0
   12ea2:	ff 75 08             	pushl  0x8(%ebp)
   12ea5:	e8 a9 fe ff ff       	call   12d53 <do_default_handler>
   12eaa:	83 c4 10             	add    $0x10,%esp
   12ead:	90                   	nop
   12eae:	c9                   	leave  
   12eaf:	c3                   	ret    

00012eb0 <do_handler_double_fault>:
   12eb0:	55                   	push   %ebp
   12eb1:	89 e5                	mov    %esp,%ebp
   12eb3:	83 ec 08             	sub    $0x8,%esp
   12eb6:	83 ec 08             	sub    $0x8,%esp
   12eb9:	68 0f 90 01 00       	push   $0x1900f
   12ebe:	ff 75 08             	pushl  0x8(%ebp)
   12ec1:	e8 8d fe ff ff       	call   12d53 <do_default_handler>
   12ec6:	83 c4 10             	add    $0x10,%esp
   12ec9:	90                   	nop
   12eca:	c9                   	leave  
   12ecb:	c3                   	ret    

00012ecc <do_handler_invalid_tss>:
   12ecc:	55                   	push   %ebp
   12ecd:	89 e5                	mov    %esp,%ebp
   12ecf:	83 ec 08             	sub    $0x8,%esp
   12ed2:	83 ec 08             	sub    $0x8,%esp
   12ed5:	68 26 90 01 00       	push   $0x19026
   12eda:	ff 75 08             	pushl  0x8(%ebp)
   12edd:	e8 71 fe ff ff       	call   12d53 <do_default_handler>
   12ee2:	83 c4 10             	add    $0x10,%esp
   12ee5:	90                   	nop
   12ee6:	c9                   	leave  
   12ee7:	c3                   	ret    

00012ee8 <do_handler_segment_not_present>:
   12ee8:	55                   	push   %ebp
   12ee9:	89 e5                	mov    %esp,%ebp
   12eeb:	83 ec 08             	sub    $0x8,%esp
   12eee:	83 ec 08             	sub    $0x8,%esp
   12ef1:	68 3c 90 01 00       	push   $0x1903c
   12ef6:	ff 75 08             	pushl  0x8(%ebp)
   12ef9:	e8 55 fe ff ff       	call   12d53 <do_default_handler>
   12efe:	83 c4 10             	add    $0x10,%esp
   12f01:	90                   	nop
   12f02:	c9                   	leave  
   12f03:	c3                   	ret    

00012f04 <do_handler_stack_segment_fault>:
   12f04:	55                   	push   %ebp
   12f05:	89 e5                	mov    %esp,%ebp
   12f07:	83 ec 08             	sub    $0x8,%esp
   12f0a:	83 ec 08             	sub    $0x8,%esp
   12f0d:	68 5a 90 01 00       	push   $0x1905a
   12f12:	ff 75 08             	pushl  0x8(%ebp)
   12f15:	e8 39 fe ff ff       	call   12d53 <do_default_handler>
   12f1a:	83 c4 10             	add    $0x10,%esp
   12f1d:	90                   	nop
   12f1e:	c9                   	leave  
   12f1f:	c3                   	ret    

00012f20 <do_handler_general_protection>:
   12f20:	55                   	push   %ebp
   12f21:	89 e5                	mov    %esp,%ebp
   12f23:	83 ec 08             	sub    $0x8,%esp
   12f26:	83 ec 0c             	sub    $0xc,%esp
   12f29:	68 78 90 01 00       	push   $0x19078
   12f2e:	e8 6a 5b 00 00       	call   18a9d <log_printf>
   12f33:	83 c4 10             	add    $0x10,%esp
   12f36:	83 ec 0c             	sub    $0xc,%esp
   12f39:	68 9c 90 01 00       	push   $0x1909c
   12f3e:	e8 5a 5b 00 00       	call   18a9d <log_printf>
   12f43:	83 c4 10             	add    $0x10,%esp
   12f46:	8b 45 08             	mov    0x8(%ebp),%eax
   12f49:	8b 40 34             	mov    0x34(%eax),%eax
   12f4c:	83 e0 01             	and    $0x1,%eax
   12f4f:	85 c0                	test   %eax,%eax
   12f51:	74 12                	je     12f65 <do_handler_general_protection+0x45>
   12f53:	83 ec 0c             	sub    $0xc,%esp
   12f56:	68 c8 90 01 00       	push   $0x190c8
   12f5b:	e8 3d 5b 00 00       	call   18a9d <log_printf>
   12f60:	83 c4 10             	add    $0x10,%esp
   12f63:	eb 10                	jmp    12f75 <do_handler_general_protection+0x55>
   12f65:	83 ec 0c             	sub    $0xc,%esp
   12f68:	68 44 91 01 00       	push   $0x19144
   12f6d:	e8 2b 5b 00 00       	call   18a9d <log_printf>
   12f72:	83 c4 10             	add    $0x10,%esp
   12f75:	8b 45 08             	mov    0x8(%ebp),%eax
   12f78:	8b 40 34             	mov    0x34(%eax),%eax
   12f7b:	83 e0 02             	and    $0x2,%eax
   12f7e:	85 c0                	test   %eax,%eax
   12f80:	74 12                	je     12f94 <do_handler_general_protection+0x74>
   12f82:	83 ec 0c             	sub    $0xc,%esp
   12f85:	68 9c 91 01 00       	push   $0x1919c
   12f8a:	e8 0e 5b 00 00       	call   18a9d <log_printf>
   12f8f:	83 c4 10             	add    $0x10,%esp
   12f92:	eb 10                	jmp    12fa4 <do_handler_general_protection+0x84>
   12f94:	83 ec 0c             	sub    $0xc,%esp
   12f97:	68 e8 91 01 00       	push   $0x191e8
   12f9c:	e8 fc 5a 00 00       	call   18a9d <log_printf>
   12fa1:	83 c4 10             	add    $0x10,%esp
   12fa4:	8b 45 08             	mov    0x8(%ebp),%eax
   12fa7:	8b 40 34             	mov    0x34(%eax),%eax
   12faa:	25 f8 ff 00 00       	and    $0xfff8,%eax
   12faf:	83 ec 08             	sub    $0x8,%esp
   12fb2:	50                   	push   %eax
   12fb3:	68 14 92 01 00       	push   $0x19214
   12fb8:	e8 e0 5a 00 00       	call   18a9d <log_printf>
   12fbd:	83 c4 10             	add    $0x10,%esp
   12fc0:	83 ec 0c             	sub    $0xc,%esp
   12fc3:	ff 75 08             	pushl  0x8(%ebp)
   12fc6:	e8 7c fc ff ff       	call   12c47 <dump_core_regs>
   12fcb:	83 c4 10             	add    $0x10,%esp
   12fce:	8b 45 08             	mov    0x8(%ebp),%eax
   12fd1:	8b 40 3c             	mov    0x3c(%eax),%eax
   12fd4:	83 e0 03             	and    $0x3,%eax
   12fd7:	85 c0                	test   %eax,%eax
   12fd9:	74 14                	je     12fef <do_handler_general_protection+0xcf>
   12fdb:	8b 45 08             	mov    0x8(%ebp),%eax
   12fde:	8b 40 34             	mov    0x34(%eax),%eax
   12fe1:	83 ec 0c             	sub    $0xc,%esp
   12fe4:	50                   	push   %eax
   12fe5:	e8 0d ea ff ff       	call   119f7 <sys_exit>
   12fea:	83 c4 10             	add    $0x10,%esp
   12fed:	eb 07                	jmp    12ff6 <do_handler_general_protection+0xd6>
   12fef:	e8 31 fc ff ff       	call   12c25 <hlt>
   12ff4:	eb f9                	jmp    12fef <do_handler_general_protection+0xcf>
   12ff6:	c9                   	leave  
   12ff7:	c3                   	ret    

00012ff8 <do_handler_page_fault>:
   12ff8:	55                   	push   %ebp
   12ff9:	89 e5                	mov    %esp,%ebp
   12ffb:	83 ec 08             	sub    $0x8,%esp
   12ffe:	83 ec 0c             	sub    $0xc,%esp
   13001:	68 27 8f 01 00       	push   $0x18f27
   13006:	e8 92 5a 00 00       	call   18a9d <log_printf>
   1300b:	83 c4 10             	add    $0x10,%esp
   1300e:	83 ec 0c             	sub    $0xc,%esp
   13011:	68 26 92 01 00       	push   $0x19226
   13016:	e8 82 5a 00 00       	call   18a9d <log_printf>
   1301b:	83 c4 10             	add    $0x10,%esp
   1301e:	8b 45 08             	mov    0x8(%ebp),%eax
   13021:	8b 40 34             	mov    0x34(%eax),%eax
   13024:	83 e0 01             	and    $0x1,%eax
   13027:	85 c0                	test   %eax,%eax
   13029:	74 18                	je     13043 <do_handler_page_fault+0x4b>
   1302b:	e8 e4 fb ff ff       	call   12c14 <read_cr2>
   13030:	83 ec 08             	sub    $0x8,%esp
   13033:	50                   	push   %eax
   13034:	68 3c 92 01 00       	push   $0x1923c
   13039:	e8 5f 5a 00 00       	call   18a9d <log_printf>
   1303e:	83 c4 10             	add    $0x10,%esp
   13041:	eb 16                	jmp    13059 <do_handler_page_fault+0x61>
   13043:	e8 cc fb ff ff       	call   12c14 <read_cr2>
   13048:	83 ec 08             	sub    $0x8,%esp
   1304b:	50                   	push   %eax
   1304c:	68 70 92 01 00       	push   $0x19270
   13051:	e8 47 5a 00 00       	call   18a9d <log_printf>
   13056:	83 c4 10             	add    $0x10,%esp
   13059:	8b 45 08             	mov    0x8(%ebp),%eax
   1305c:	8b 40 34             	mov    0x34(%eax),%eax
   1305f:	83 e0 02             	and    $0x2,%eax
   13062:	85 c0                	test   %eax,%eax
   13064:	74 18                	je     1307e <do_handler_page_fault+0x86>
   13066:	e8 a9 fb ff ff       	call   12c14 <read_cr2>
   1306b:	83 ec 08             	sub    $0x8,%esp
   1306e:	50                   	push   %eax
   1306f:	68 a0 92 01 00       	push   $0x192a0
   13074:	e8 24 5a 00 00       	call   18a9d <log_printf>
   13079:	83 c4 10             	add    $0x10,%esp
   1307c:	eb 16                	jmp    13094 <do_handler_page_fault+0x9c>
   1307e:	e8 91 fb ff ff       	call   12c14 <read_cr2>
   13083:	83 ec 08             	sub    $0x8,%esp
   13086:	50                   	push   %eax
   13087:	68 cc 92 01 00       	push   $0x192cc
   1308c:	e8 0c 5a 00 00       	call   18a9d <log_printf>
   13091:	83 c4 10             	add    $0x10,%esp
   13094:	8b 45 08             	mov    0x8(%ebp),%eax
   13097:	8b 40 34             	mov    0x34(%eax),%eax
   1309a:	83 e0 04             	and    $0x4,%eax
   1309d:	85 c0                	test   %eax,%eax
   1309f:	74 18                	je     130b9 <do_handler_page_fault+0xc1>
   130a1:	e8 6e fb ff ff       	call   12c14 <read_cr2>
   130a6:	83 ec 08             	sub    $0x8,%esp
   130a9:	50                   	push   %eax
   130aa:	68 f8 92 01 00       	push   $0x192f8
   130af:	e8 e9 59 00 00       	call   18a9d <log_printf>
   130b4:	83 c4 10             	add    $0x10,%esp
   130b7:	eb 16                	jmp    130cf <do_handler_page_fault+0xd7>
   130b9:	e8 56 fb ff ff       	call   12c14 <read_cr2>
   130be:	83 ec 08             	sub    $0x8,%esp
   130c1:	50                   	push   %eax
   130c2:	68 24 93 01 00       	push   $0x19324
   130c7:	e8 d1 59 00 00       	call   18a9d <log_printf>
   130cc:	83 c4 10             	add    $0x10,%esp
   130cf:	83 ec 0c             	sub    $0xc,%esp
   130d2:	ff 75 08             	pushl  0x8(%ebp)
   130d5:	e8 6d fb ff ff       	call   12c47 <dump_core_regs>
   130da:	83 c4 10             	add    $0x10,%esp
   130dd:	8b 45 08             	mov    0x8(%ebp),%eax
   130e0:	8b 40 3c             	mov    0x3c(%eax),%eax
   130e3:	83 e0 03             	and    $0x3,%eax
   130e6:	85 c0                	test   %eax,%eax
   130e8:	74 14                	je     130fe <do_handler_page_fault+0x106>
   130ea:	8b 45 08             	mov    0x8(%ebp),%eax
   130ed:	8b 40 34             	mov    0x34(%eax),%eax
   130f0:	83 ec 0c             	sub    $0xc,%esp
   130f3:	50                   	push   %eax
   130f4:	e8 fe e8 ff ff       	call   119f7 <sys_exit>
   130f9:	83 c4 10             	add    $0x10,%esp
   130fc:	eb 07                	jmp    13105 <do_handler_page_fault+0x10d>
   130fe:	e8 22 fb ff ff       	call   12c25 <hlt>
   13103:	eb f9                	jmp    130fe <do_handler_page_fault+0x106>
   13105:	c9                   	leave  
   13106:	c3                   	ret    

00013107 <do_handler_x87_floating_point>:
   13107:	55                   	push   %ebp
   13108:	89 e5                	mov    %esp,%ebp
   1310a:	83 ec 08             	sub    $0x8,%esp
   1310d:	83 ec 08             	sub    $0x8,%esp
   13110:	68 53 93 01 00       	push   $0x19353
   13115:	ff 75 08             	pushl  0x8(%ebp)
   13118:	e8 36 fc ff ff       	call   12d53 <do_default_handler>
   1311d:	83 c4 10             	add    $0x10,%esp
   13120:	90                   	nop
   13121:	c9                   	leave  
   13122:	c3                   	ret    

00013123 <do_handler_alignment_check>:
   13123:	55                   	push   %ebp
   13124:	89 e5                	mov    %esp,%ebp
   13126:	83 ec 08             	sub    $0x8,%esp
   13129:	83 ec 08             	sub    $0x8,%esp
   1312c:	68 70 93 01 00       	push   $0x19370
   13131:	ff 75 08             	pushl  0x8(%ebp)
   13134:	e8 1a fc ff ff       	call   12d53 <do_default_handler>
   13139:	83 c4 10             	add    $0x10,%esp
   1313c:	90                   	nop
   1313d:	c9                   	leave  
   1313e:	c3                   	ret    

0001313f <do_handler_machine_check>:
   1313f:	55                   	push   %ebp
   13140:	89 e5                	mov    %esp,%ebp
   13142:	83 ec 08             	sub    $0x8,%esp
   13145:	83 ec 08             	sub    $0x8,%esp
   13148:	68 8a 93 01 00       	push   $0x1938a
   1314d:	ff 75 08             	pushl  0x8(%ebp)
   13150:	e8 fe fb ff ff       	call   12d53 <do_default_handler>
   13155:	83 c4 10             	add    $0x10,%esp
   13158:	90                   	nop
   13159:	c9                   	leave  
   1315a:	c3                   	ret    

0001315b <do_handler_simd_floating_point>:
   1315b:	55                   	push   %ebp
   1315c:	89 e5                	mov    %esp,%ebp
   1315e:	83 ec 08             	sub    $0x8,%esp
   13161:	83 ec 08             	sub    $0x8,%esp
   13164:	68 a2 93 01 00       	push   $0x193a2
   13169:	ff 75 08             	pushl  0x8(%ebp)
   1316c:	e8 e2 fb ff ff       	call   12d53 <do_default_handler>
   13171:	83 c4 10             	add    $0x10,%esp
   13174:	90                   	nop
   13175:	c9                   	leave  
   13176:	c3                   	ret    

00013177 <do_handler_virtualization>:
   13177:	55                   	push   %ebp
   13178:	89 e5                	mov    %esp,%ebp
   1317a:	83 ec 08             	sub    $0x8,%esp
   1317d:	83 ec 08             	sub    $0x8,%esp
   13180:	68 c0 93 01 00       	push   $0x193c0
   13185:	ff 75 08             	pushl  0x8(%ebp)
   13188:	e8 c6 fb ff ff       	call   12d53 <do_default_handler>
   1318d:	83 c4 10             	add    $0x10,%esp
   13190:	90                   	nop
   13191:	c9                   	leave  
   13192:	c3                   	ret    

00013193 <do_handler_security>:
   13193:	55                   	push   %ebp
   13194:	89 e5                	mov    %esp,%ebp
   13196:	83 ec 08             	sub    $0x8,%esp
   13199:	83 ec 08             	sub    $0x8,%esp
   1319c:	68 d9 93 01 00       	push   $0x193d9
   131a1:	ff 75 08             	pushl  0x8(%ebp)
   131a4:	e8 aa fb ff ff       	call   12d53 <do_default_handler>
   131a9:	83 c4 10             	add    $0x10,%esp
   131ac:	90                   	nop
   131ad:	c9                   	leave  
   131ae:	c3                   	ret    

000131af <init_pic>:
   131af:	55                   	push   %ebp
   131b0:	89 e5                	mov    %esp,%ebp
   131b2:	6a 11                	push   $0x11
   131b4:	6a 20                	push   $0x20
   131b6:	e8 04 fa ff ff       	call   12bbf <outb>
   131bb:	83 c4 08             	add    $0x8,%esp
   131be:	6a 20                	push   $0x20
   131c0:	6a 21                	push   $0x21
   131c2:	e8 f8 f9 ff ff       	call   12bbf <outb>
   131c7:	83 c4 08             	add    $0x8,%esp
   131ca:	6a 04                	push   $0x4
   131cc:	6a 21                	push   $0x21
   131ce:	e8 ec f9 ff ff       	call   12bbf <outb>
   131d3:	83 c4 08             	add    $0x8,%esp
   131d6:	6a 01                	push   $0x1
   131d8:	6a 21                	push   $0x21
   131da:	e8 e0 f9 ff ff       	call   12bbf <outb>
   131df:	83 c4 08             	add    $0x8,%esp
   131e2:	6a 11                	push   $0x11
   131e4:	68 a0 00 00 00       	push   $0xa0
   131e9:	e8 d1 f9 ff ff       	call   12bbf <outb>
   131ee:	83 c4 08             	add    $0x8,%esp
   131f1:	6a 28                	push   $0x28
   131f3:	68 a1 00 00 00       	push   $0xa1
   131f8:	e8 c2 f9 ff ff       	call   12bbf <outb>
   131fd:	83 c4 08             	add    $0x8,%esp
   13200:	6a 02                	push   $0x2
   13202:	68 a1 00 00 00       	push   $0xa1
   13207:	e8 b3 f9 ff ff       	call   12bbf <outb>
   1320c:	83 c4 08             	add    $0x8,%esp
   1320f:	6a 01                	push   $0x1
   13211:	68 a1 00 00 00       	push   $0xa1
   13216:	e8 a4 f9 ff ff       	call   12bbf <outb>
   1321b:	83 c4 08             	add    $0x8,%esp
   1321e:	68 fb 00 00 00       	push   $0xfb
   13223:	6a 21                	push   $0x21
   13225:	e8 95 f9 ff ff       	call   12bbf <outb>
   1322a:	83 c4 08             	add    $0x8,%esp
   1322d:	68 ff 00 00 00       	push   $0xff
   13232:	68 a1 00 00 00       	push   $0xa1
   13237:	e8 83 f9 ff ff       	call   12bbf <outb>
   1323c:	83 c4 08             	add    $0x8,%esp
   1323f:	90                   	nop
   13240:	c9                   	leave  
   13241:	c3                   	ret    

00013242 <irq_init>:
   13242:	55                   	push   %ebp
   13243:	89 e5                	mov    %esp,%ebp
   13245:	83 ec 18             	sub    $0x18,%esp
   13248:	c7 45 f4 00 00 00 00 	movl   $0x0,-0xc(%ebp)
   1324f:	eb 25                	jmp    13276 <irq_init+0x34>
   13251:	ba aa 00 01 00       	mov    $0x100aa,%edx
   13256:	8b 45 f4             	mov    -0xc(%ebp),%eax
   13259:	c1 e0 03             	shl    $0x3,%eax
   1325c:	05 c0 68 03 00       	add    $0x368c0,%eax
   13261:	68 00 8e 00 00       	push   $0x8e00
   13266:	52                   	push   %edx
   13267:	6a 08                	push   $0x8
   13269:	50                   	push   %eax
   1326a:	e8 8e f7 ff ff       	call   129fd <gate_desc_set>
   1326f:	83 c4 10             	add    $0x10,%esp
   13272:	83 45 f4 01          	addl   $0x1,-0xc(%ebp)
   13276:	83 7d f4 7f          	cmpl   $0x7f,-0xc(%ebp)
   1327a:	7e d5                	jle    13251 <irq_init+0xf>
   1327c:	83 ec 08             	sub    $0x8,%esp
   1327f:	68 d5 00 01 00       	push   $0x100d5
   13284:	6a 00                	push   $0x0
   13286:	e8 77 01 00 00       	call   13402 <irq_install>
   1328b:	83 c4 10             	add    $0x10,%esp
   1328e:	83 ec 08             	sub    $0x8,%esp
   13291:	68 00 01 01 00       	push   $0x10100
   13296:	6a 01                	push   $0x1
   13298:	e8 65 01 00 00       	call   13402 <irq_install>
   1329d:	83 c4 10             	add    $0x10,%esp
   132a0:	83 ec 08             	sub    $0x8,%esp
   132a3:	68 2b 01 01 00       	push   $0x1012b
   132a8:	6a 02                	push   $0x2
   132aa:	e8 53 01 00 00       	call   13402 <irq_install>
   132af:	83 c4 10             	add    $0x10,%esp
   132b2:	83 ec 08             	sub    $0x8,%esp
   132b5:	68 56 01 01 00       	push   $0x10156
   132ba:	6a 03                	push   $0x3
   132bc:	e8 41 01 00 00       	call   13402 <irq_install>
   132c1:	83 c4 10             	add    $0x10,%esp
   132c4:	83 ec 08             	sub    $0x8,%esp
   132c7:	68 81 01 01 00       	push   $0x10181
   132cc:	6a 04                	push   $0x4
   132ce:	e8 2f 01 00 00       	call   13402 <irq_install>
   132d3:	83 c4 10             	add    $0x10,%esp
   132d6:	83 ec 08             	sub    $0x8,%esp
   132d9:	68 ac 01 01 00       	push   $0x101ac
   132de:	6a 05                	push   $0x5
   132e0:	e8 1d 01 00 00       	call   13402 <irq_install>
   132e5:	83 c4 10             	add    $0x10,%esp
   132e8:	83 ec 08             	sub    $0x8,%esp
   132eb:	68 d7 01 01 00       	push   $0x101d7
   132f0:	6a 06                	push   $0x6
   132f2:	e8 0b 01 00 00       	call   13402 <irq_install>
   132f7:	83 c4 10             	add    $0x10,%esp
   132fa:	83 ec 08             	sub    $0x8,%esp
   132fd:	68 02 02 01 00       	push   $0x10202
   13302:	6a 07                	push   $0x7
   13304:	e8 f9 00 00 00       	call   13402 <irq_install>
   13309:	83 c4 10             	add    $0x10,%esp
   1330c:	83 ec 08             	sub    $0x8,%esp
   1330f:	68 2d 02 01 00       	push   $0x1022d
   13314:	6a 08                	push   $0x8
   13316:	e8 e7 00 00 00       	call   13402 <irq_install>
   1331b:	83 c4 10             	add    $0x10,%esp
   1331e:	83 ec 08             	sub    $0x8,%esp
   13321:	68 56 02 01 00       	push   $0x10256
   13326:	6a 0a                	push   $0xa
   13328:	e8 d5 00 00 00       	call   13402 <irq_install>
   1332d:	83 c4 10             	add    $0x10,%esp
   13330:	83 ec 08             	sub    $0x8,%esp
   13333:	68 7f 02 01 00       	push   $0x1027f
   13338:	6a 0b                	push   $0xb
   1333a:	e8 c3 00 00 00       	call   13402 <irq_install>
   1333f:	83 c4 10             	add    $0x10,%esp
   13342:	83 ec 08             	sub    $0x8,%esp
   13345:	68 a8 02 01 00       	push   $0x102a8
   1334a:	6a 0c                	push   $0xc
   1334c:	e8 b1 00 00 00       	call   13402 <irq_install>
   13351:	83 c4 10             	add    $0x10,%esp
   13354:	83 ec 08             	sub    $0x8,%esp
   13357:	68 d1 02 01 00       	push   $0x102d1
   1335c:	6a 0d                	push   $0xd
   1335e:	e8 9f 00 00 00       	call   13402 <irq_install>
   13363:	83 c4 10             	add    $0x10,%esp
   13366:	83 ec 08             	sub    $0x8,%esp
   13369:	68 56 00 01 00       	push   $0x10056
   1336e:	6a 0e                	push   $0xe
   13370:	e8 8d 00 00 00       	call   13402 <irq_install>
   13375:	83 c4 10             	add    $0x10,%esp
   13378:	83 ec 08             	sub    $0x8,%esp
   1337b:	68 fa 02 01 00       	push   $0x102fa
   13380:	6a 10                	push   $0x10
   13382:	e8 7b 00 00 00       	call   13402 <irq_install>
   13387:	83 c4 10             	add    $0x10,%esp
   1338a:	83 ec 08             	sub    $0x8,%esp
   1338d:	68 25 03 01 00       	push   $0x10325
   13392:	6a 11                	push   $0x11
   13394:	e8 69 00 00 00       	call   13402 <irq_install>
   13399:	83 c4 10             	add    $0x10,%esp
   1339c:	83 ec 08             	sub    $0x8,%esp
   1339f:	68 4e 03 01 00       	push   $0x1034e
   133a4:	6a 12                	push   $0x12
   133a6:	e8 57 00 00 00       	call   13402 <irq_install>
   133ab:	83 c4 10             	add    $0x10,%esp
   133ae:	83 ec 08             	sub    $0x8,%esp
   133b1:	68 79 03 01 00       	push   $0x10379
   133b6:	6a 13                	push   $0x13
   133b8:	e8 45 00 00 00       	call   13402 <irq_install>
   133bd:	83 c4 10             	add    $0x10,%esp
   133c0:	83 ec 08             	sub    $0x8,%esp
   133c3:	68 a4 03 01 00       	push   $0x103a4
   133c8:	6a 14                	push   $0x14
   133ca:	e8 33 00 00 00       	call   13402 <irq_install>
   133cf:	83 c4 10             	add    $0x10,%esp
   133d2:	83 ec 08             	sub    $0x8,%esp
   133d5:	68 cf 03 01 00       	push   $0x103cf
   133da:	6a 15                	push   $0x15
   133dc:	e8 21 00 00 00       	call   13402 <irq_install>
   133e1:	83 c4 10             	add    $0x10,%esp
   133e4:	b8 c0 68 03 00       	mov    $0x368c0,%eax
   133e9:	83 ec 08             	sub    $0x8,%esp
   133ec:	68 00 04 00 00       	push   $0x400
   133f1:	50                   	push   %eax
   133f2:	e8 f5 f7 ff ff       	call   12bec <lidt>
   133f7:	83 c4 10             	add    $0x10,%esp
   133fa:	e8 b0 fd ff ff       	call   131af <init_pic>
   133ff:	90                   	nop
   13400:	c9                   	leave  
   13401:	c3                   	ret    

00013402 <irq_install>:
   13402:	55                   	push   %ebp
   13403:	89 e5                	mov    %esp,%ebp
   13405:	83 ec 08             	sub    $0x8,%esp
   13408:	83 7d 08 00          	cmpl   $0x0,0x8(%ebp)
   1340c:	78 06                	js     13414 <irq_install+0x12>
   1340e:	83 7d 08 7f          	cmpl   $0x7f,0x8(%ebp)
   13412:	7e 07                	jle    1341b <irq_install+0x19>
   13414:	b8 ff ff ff ff       	mov    $0xffffffff,%eax
   13419:	eb 25                	jmp    13440 <irq_install+0x3e>
   1341b:	8b 45 0c             	mov    0xc(%ebp),%eax
   1341e:	8b 55 08             	mov    0x8(%ebp),%edx
   13421:	c1 e2 03             	shl    $0x3,%edx
   13424:	81 c2 c0 68 03 00    	add    $0x368c0,%edx
   1342a:	68 00 8e 00 00       	push   $0x8e00
   1342f:	50                   	push   %eax
   13430:	6a 08                	push   $0x8
   13432:	52                   	push   %edx
   13433:	e8 c5 f5 ff ff       	call   129fd <gate_desc_set>
   13438:	83 c4 10             	add    $0x10,%esp
   1343b:	b8 00 00 00 00       	mov    $0x0,%eax
   13440:	c9                   	leave  
   13441:	c3                   	ret    

00013442 <irq_enable>:
   13442:	55                   	push   %ebp
   13443:	89 e5                	mov    %esp,%ebp
   13445:	53                   	push   %ebx
   13446:	83 ec 10             	sub    $0x10,%esp
   13449:	83 7d 08 1f          	cmpl   $0x1f,0x8(%ebp)
   1344d:	7e 78                	jle    134c7 <irq_enable+0x85>
   1344f:	83 6d 08 20          	subl   $0x20,0x8(%ebp)
   13453:	83 7d 08 07          	cmpl   $0x7,0x8(%ebp)
   13457:	7f 32                	jg     1348b <irq_enable+0x49>
   13459:	6a 21                	push   $0x21
   1345b:	e8 42 f7 ff ff       	call   12ba2 <inb>
   13460:	83 c4 04             	add    $0x4,%esp
   13463:	89 c2                	mov    %eax,%edx
   13465:	8b 45 08             	mov    0x8(%ebp),%eax
   13468:	bb 01 00 00 00       	mov    $0x1,%ebx
   1346d:	89 c1                	mov    %eax,%ecx
   1346f:	d3 e3                	shl    %cl,%ebx
   13471:	89 d8                	mov    %ebx,%eax
   13473:	f7 d0                	not    %eax
   13475:	21 d0                	and    %edx,%eax
   13477:	88 45 fa             	mov    %al,-0x6(%ebp)
   1347a:	0f b6 45 fa          	movzbl -0x6(%ebp),%eax
   1347e:	50                   	push   %eax
   1347f:	6a 21                	push   $0x21
   13481:	e8 39 f7 ff ff       	call   12bbf <outb>
   13486:	83 c4 08             	add    $0x8,%esp
   13489:	eb 3d                	jmp    134c8 <irq_enable+0x86>
   1348b:	83 6d 08 08          	subl   $0x8,0x8(%ebp)
   1348f:	68 a1 00 00 00       	push   $0xa1
   13494:	e8 09 f7 ff ff       	call   12ba2 <inb>
   13499:	83 c4 04             	add    $0x4,%esp
   1349c:	89 c2                	mov    %eax,%edx
   1349e:	8b 45 08             	mov    0x8(%ebp),%eax
   134a1:	bb 01 00 00 00       	mov    $0x1,%ebx
   134a6:	89 c1                	mov    %eax,%ecx
   134a8:	d3 e3                	shl    %cl,%ebx
   134aa:	89 d8                	mov    %ebx,%eax
   134ac:	f7 d0                	not    %eax
   134ae:	21 d0                	and    %edx,%eax
   134b0:	88 45 fb             	mov    %al,-0x5(%ebp)
   134b3:	0f b6 45 fb          	movzbl -0x5(%ebp),%eax
   134b7:	50                   	push   %eax
   134b8:	68 a1 00 00 00       	push   $0xa1
   134bd:	e8 fd f6 ff ff       	call   12bbf <outb>
   134c2:	83 c4 08             	add    $0x8,%esp
   134c5:	eb 01                	jmp    134c8 <irq_enable+0x86>
   134c7:	90                   	nop
   134c8:	8b 5d fc             	mov    -0x4(%ebp),%ebx
   134cb:	c9                   	leave  
   134cc:	c3                   	ret    

000134cd <irq_disable>:
   134cd:	55                   	push   %ebp
   134ce:	89 e5                	mov    %esp,%ebp
   134d0:	53                   	push   %ebx
   134d1:	83 ec 10             	sub    $0x10,%esp
   134d4:	83 7d 08 1f          	cmpl   $0x1f,0x8(%ebp)
   134d8:	7e 78                	jle    13552 <irq_disable+0x85>
   134da:	83 6d 08 20          	subl   $0x20,0x8(%ebp)
   134de:	83 7d 08 07          	cmpl   $0x7,0x8(%ebp)
   134e2:	7f 32                	jg     13516 <irq_disable+0x49>
   134e4:	6a 21                	push   $0x21
   134e6:	e8 b7 f6 ff ff       	call   12ba2 <inb>
   134eb:	83 c4 04             	add    $0x4,%esp
   134ee:	89 c3                	mov    %eax,%ebx
   134f0:	8b 45 08             	mov    0x8(%ebp),%eax
   134f3:	ba 01 00 00 00       	mov    $0x1,%edx
   134f8:	89 c1                	mov    %eax,%ecx
   134fa:	d3 e2                	shl    %cl,%edx
   134fc:	89 d0                	mov    %edx,%eax
   134fe:	f7 d0                	not    %eax
   13500:	09 d8                	or     %ebx,%eax
   13502:	88 45 fa             	mov    %al,-0x6(%ebp)
   13505:	0f b6 45 fa          	movzbl -0x6(%ebp),%eax
   13509:	50                   	push   %eax
   1350a:	6a 21                	push   $0x21
   1350c:	e8 ae f6 ff ff       	call   12bbf <outb>
   13511:	83 c4 08             	add    $0x8,%esp
   13514:	eb 3d                	jmp    13553 <irq_disable+0x86>
   13516:	83 6d 08 08          	subl   $0x8,0x8(%ebp)
   1351a:	68 a1 00 00 00       	push   $0xa1
   1351f:	e8 7e f6 ff ff       	call   12ba2 <inb>
   13524:	83 c4 04             	add    $0x4,%esp
   13527:	89 c3                	mov    %eax,%ebx
   13529:	8b 45 08             	mov    0x8(%ebp),%eax
   1352c:	ba 01 00 00 00       	mov    $0x1,%edx
   13531:	89 c1                	mov    %eax,%ecx
   13533:	d3 e2                	shl    %cl,%edx
   13535:	89 d0                	mov    %edx,%eax
   13537:	f7 d0                	not    %eax
   13539:	09 d8                	or     %ebx,%eax
   1353b:	88 45 fb             	mov    %al,-0x5(%ebp)
   1353e:	0f b6 45 fb          	movzbl -0x5(%ebp),%eax
   13542:	50                   	push   %eax
   13543:	68 a1 00 00 00       	push   $0xa1
   13548:	e8 72 f6 ff ff       	call   12bbf <outb>
   1354d:	83 c4 08             	add    $0x8,%esp
   13550:	eb 01                	jmp    13553 <irq_disable+0x86>
   13552:	90                   	nop
   13553:	8b 5d fc             	mov    -0x4(%ebp),%ebx
   13556:	c9                   	leave  
   13557:	c3                   	ret    

00013558 <irq_disable_global>:
   13558:	55                   	push   %ebp
   13559:	89 e5                	mov    %esp,%ebp
   1355b:	e8 7e f6 ff ff       	call   12bde <cli>
   13560:	90                   	nop
   13561:	5d                   	pop    %ebp
   13562:	c3                   	ret    

00013563 <irq_enable_global>:
   13563:	55                   	push   %ebp
   13564:	89 e5                	mov    %esp,%ebp
   13566:	e8 7a f6 ff ff       	call   12be5 <sti>
   1356b:	90                   	nop
   1356c:	5d                   	pop    %ebp
   1356d:	c3                   	ret    

0001356e <pic_send_eoi>:
   1356e:	55                   	push   %ebp
   1356f:	89 e5                	mov    %esp,%ebp
   13571:	83 6d 08 20          	subl   $0x20,0x8(%ebp)
   13575:	83 7d 08 07          	cmpl   $0x7,0x8(%ebp)
   13579:	7e 0f                	jle    1358a <pic_send_eoi+0x1c>
   1357b:	6a 20                	push   $0x20
   1357d:	68 a0 00 00 00       	push   $0xa0
   13582:	e8 38 f6 ff ff       	call   12bbf <outb>
   13587:	83 c4 08             	add    $0x8,%esp
   1358a:	6a 20                	push   $0x20
   1358c:	6a 20                	push   $0x20
   1358e:	e8 2c f6 ff ff       	call   12bbf <outb>
   13593:	83 c4 08             	add    $0x8,%esp
   13596:	90                   	nop
   13597:	c9                   	leave  
   13598:	c3                   	ret    

00013599 <irq_enter_protection>:
   13599:	55                   	push   %ebp
   1359a:	89 e5                	mov    %esp,%ebp
   1359c:	83 ec 10             	sub    $0x10,%esp
   1359f:	e8 88 f6 ff ff       	call   12c2c <read_eflags>
   135a4:	89 45 fc             	mov    %eax,-0x4(%ebp)
   135a7:	e8 ac ff ff ff       	call   13558 <irq_disable_global>
   135ac:	8b 45 fc             	mov    -0x4(%ebp),%eax
   135af:	c9                   	leave  
   135b0:	c3                   	ret    

000135b1 <irq_leave_protection>:
   135b1:	55                   	push   %ebp
   135b2:	89 e5                	mov    %esp,%ebp
   135b4:	ff 75 08             	pushl  0x8(%ebp)
   135b7:	e8 80 f6 ff ff       	call   12c3c <write_eflags>
   135bc:	83 c4 04             	add    $0x4,%esp
   135bf:	90                   	nop
   135c0:	c9                   	leave  
   135c1:	c3                   	ret    

000135c2 <inb>:
   135c2:	55                   	push   %ebp
   135c3:	89 e5                	mov    %esp,%ebp
   135c5:	83 ec 14             	sub    $0x14,%esp
   135c8:	8b 45 08             	mov    0x8(%ebp),%eax
   135cb:	66 89 45 ec          	mov    %ax,-0x14(%ebp)
   135cf:	0f b7 45 ec          	movzwl -0x14(%ebp),%eax
   135d3:	89 c2                	mov    %eax,%edx
   135d5:	ec                   	in     (%dx),%al
   135d6:	88 45 ff             	mov    %al,-0x1(%ebp)
   135d9:	0f b6 45 ff          	movzbl -0x1(%ebp),%eax
   135dd:	c9                   	leave  
   135de:	c3                   	ret    

000135df <outb>:
   135df:	55                   	push   %ebp
   135e0:	89 e5                	mov    %esp,%ebp
   135e2:	83 ec 08             	sub    $0x8,%esp
   135e5:	8b 55 08             	mov    0x8(%ebp),%edx
   135e8:	8b 45 0c             	mov    0xc(%ebp),%eax
   135eb:	66 89 55 fc          	mov    %dx,-0x4(%ebp)
   135ef:	88 45 f8             	mov    %al,-0x8(%ebp)
   135f2:	0f b7 55 fc          	movzwl -0x4(%ebp),%edx
   135f6:	0f b6 45 f8          	movzbl -0x8(%ebp),%eax
   135fa:	ee                   	out    %al,(%dx)
   135fb:	90                   	nop
   135fc:	c9                   	leave  
   135fd:	c3                   	ret    

000135fe <read_cursor_pos>:
   135fe:	55                   	push   %ebp
   135ff:	89 e5                	mov    %esp,%ebp
   13601:	83 ec 18             	sub    $0x18,%esp
   13604:	e8 90 ff ff ff       	call   13599 <irq_enter_protection>
   13609:	89 45 f4             	mov    %eax,-0xc(%ebp)
   1360c:	83 ec 08             	sub    $0x8,%esp
   1360f:	6a 0f                	push   $0xf
   13611:	68 d4 03 00 00       	push   $0x3d4
   13616:	e8 c4 ff ff ff       	call   135df <outb>
   1361b:	83 c4 10             	add    $0x10,%esp
   1361e:	83 ec 0c             	sub    $0xc,%esp
   13621:	68 d5 03 00 00       	push   $0x3d5
   13626:	e8 97 ff ff ff       	call   135c2 <inb>
   1362b:	83 c4 10             	add    $0x10,%esp
   1362e:	0f b6 c0             	movzbl %al,%eax
   13631:	89 45 f0             	mov    %eax,-0x10(%ebp)
   13634:	83 ec 08             	sub    $0x8,%esp
   13637:	6a 0e                	push   $0xe
   13639:	68 d4 03 00 00       	push   $0x3d4
   1363e:	e8 9c ff ff ff       	call   135df <outb>
   13643:	83 c4 10             	add    $0x10,%esp
   13646:	83 ec 0c             	sub    $0xc,%esp
   13649:	68 d5 03 00 00       	push   $0x3d5
   1364e:	e8 6f ff ff ff       	call   135c2 <inb>
   13653:	83 c4 10             	add    $0x10,%esp
   13656:	0f b6 c0             	movzbl %al,%eax
   13659:	c1 e0 08             	shl    $0x8,%eax
   1365c:	09 45 f0             	or     %eax,-0x10(%ebp)
   1365f:	83 ec 0c             	sub    $0xc,%esp
   13662:	ff 75 f4             	pushl  -0xc(%ebp)
   13665:	e8 47 ff ff ff       	call   135b1 <irq_leave_protection>
   1366a:	83 c4 10             	add    $0x10,%esp
   1366d:	8b 45 f0             	mov    -0x10(%ebp),%eax
   13670:	c9                   	leave  
   13671:	c3                   	ret    

00013672 <update_cursor_pos>:
   13672:	55                   	push   %ebp
   13673:	89 e5                	mov    %esp,%ebp
   13675:	83 ec 18             	sub    $0x18,%esp
   13678:	8b 45 08             	mov    0x8(%ebp),%eax
   1367b:	ba c0 6c 03 00       	mov    $0x36cc0,%edx
   13680:	29 d0                	sub    %edx,%eax
   13682:	c1 f8 02             	sar    $0x2,%eax
   13685:	69 c0 13 da 4b 68    	imul   $0x684bda13,%eax,%eax
   1368b:	89 c2                	mov    %eax,%edx
   1368d:	8b 45 08             	mov    0x8(%ebp),%eax
   13690:	8b 40 0c             	mov    0xc(%eax),%eax
   13693:	0f af d0             	imul   %eax,%edx
   13696:	8b 45 08             	mov    0x8(%ebp),%eax
   13699:	8b 40 10             	mov    0x10(%eax),%eax
   1369c:	0f af c2             	imul   %edx,%eax
   1369f:	66 89 45 f6          	mov    %ax,-0xa(%ebp)
   136a3:	8b 45 08             	mov    0x8(%ebp),%eax
   136a6:	8b 40 14             	mov    0x14(%eax),%eax
   136a9:	89 c2                	mov    %eax,%edx
   136ab:	8b 45 08             	mov    0x8(%ebp),%eax
   136ae:	8b 40 10             	mov    0x10(%eax),%eax
   136b1:	0f af d0             	imul   %eax,%edx
   136b4:	8b 45 08             	mov    0x8(%ebp),%eax
   136b7:	8b 40 18             	mov    0x18(%eax),%eax
   136ba:	01 d0                	add    %edx,%eax
   136bc:	66 01 45 f6          	add    %ax,-0xa(%ebp)
   136c0:	e8 d4 fe ff ff       	call   13599 <irq_enter_protection>
   136c5:	89 45 f0             	mov    %eax,-0x10(%ebp)
   136c8:	83 ec 08             	sub    $0x8,%esp
   136cb:	6a 0f                	push   $0xf
   136cd:	68 d4 03 00 00       	push   $0x3d4
   136d2:	e8 08 ff ff ff       	call   135df <outb>
   136d7:	83 c4 10             	add    $0x10,%esp
   136da:	0f b7 45 f6          	movzwl -0xa(%ebp),%eax
   136de:	0f b6 c0             	movzbl %al,%eax
   136e1:	83 ec 08             	sub    $0x8,%esp
   136e4:	50                   	push   %eax
   136e5:	68 d5 03 00 00       	push   $0x3d5
   136ea:	e8 f0 fe ff ff       	call   135df <outb>
   136ef:	83 c4 10             	add    $0x10,%esp
   136f2:	83 ec 08             	sub    $0x8,%esp
   136f5:	6a 0e                	push   $0xe
   136f7:	68 d4 03 00 00       	push   $0x3d4
   136fc:	e8 de fe ff ff       	call   135df <outb>
   13701:	83 c4 10             	add    $0x10,%esp
   13704:	0f b7 45 f6          	movzwl -0xa(%ebp),%eax
   13708:	66 c1 e8 08          	shr    $0x8,%ax
   1370c:	0f b6 c0             	movzbl %al,%eax
   1370f:	83 ec 08             	sub    $0x8,%esp
   13712:	50                   	push   %eax
   13713:	68 d5 03 00 00       	push   $0x3d5
   13718:	e8 c2 fe ff ff       	call   135df <outb>
   1371d:	83 c4 10             	add    $0x10,%esp
   13720:	83 ec 0c             	sub    $0xc,%esp
   13723:	ff 75 f0             	pushl  -0x10(%ebp)
   13726:	e8 86 fe ff ff       	call   135b1 <irq_leave_protection>
   1372b:	83 c4 10             	add    $0x10,%esp
   1372e:	90                   	nop
   1372f:	c9                   	leave  
   13730:	c3                   	ret    

00013731 <move_dorward>:
   13731:	55                   	push   %ebp
   13732:	89 e5                	mov    %esp,%ebp
   13734:	83 ec 18             	sub    $0x18,%esp
   13737:	c7 45 f4 00 00 00 00 	movl   $0x0,-0xc(%ebp)
   1373e:	eb 5c                	jmp    1379c <move_dorward+0x6b>
   13740:	8b 45 08             	mov    0x8(%ebp),%eax
   13743:	8b 40 18             	mov    0x18(%eax),%eax
   13746:	8d 50 01             	lea    0x1(%eax),%edx
   13749:	8b 45 08             	mov    0x8(%ebp),%eax
   1374c:	89 50 18             	mov    %edx,0x18(%eax)
   1374f:	8b 45 08             	mov    0x8(%ebp),%eax
   13752:	8b 50 18             	mov    0x18(%eax),%edx
   13755:	8b 45 08             	mov    0x8(%ebp),%eax
   13758:	8b 40 10             	mov    0x10(%eax),%eax
   1375b:	39 c2                	cmp    %eax,%edx
   1375d:	7c 39                	jl     13798 <move_dorward+0x67>
   1375f:	8b 45 08             	mov    0x8(%ebp),%eax
   13762:	c7 40 18 00 00 00 00 	movl   $0x0,0x18(%eax)
   13769:	8b 45 08             	mov    0x8(%ebp),%eax
   1376c:	8b 40 14             	mov    0x14(%eax),%eax
   1376f:	8d 50 01             	lea    0x1(%eax),%edx
   13772:	8b 45 08             	mov    0x8(%ebp),%eax
   13775:	89 50 14             	mov    %edx,0x14(%eax)
   13778:	8b 45 08             	mov    0x8(%ebp),%eax
   1377b:	8b 50 14             	mov    0x14(%eax),%edx
   1377e:	8b 45 08             	mov    0x8(%ebp),%eax
   13781:	8b 40 0c             	mov    0xc(%eax),%eax
   13784:	39 c2                	cmp    %eax,%edx
   13786:	7c 10                	jl     13798 <move_dorward+0x67>
   13788:	83 ec 08             	sub    $0x8,%esp
   1378b:	6a 01                	push   $0x1
   1378d:	ff 75 08             	pushl  0x8(%ebp)
   13790:	e8 40 03 00 00       	call   13ad5 <scroll_up>
   13795:	83 c4 10             	add    $0x10,%esp
   13798:	83 45 f4 01          	addl   $0x1,-0xc(%ebp)
   1379c:	8b 45 f4             	mov    -0xc(%ebp),%eax
   1379f:	3b 45 0c             	cmp    0xc(%ebp),%eax
   137a2:	7c 9c                	jl     13740 <move_dorward+0xf>
   137a4:	90                   	nop
   137a5:	c9                   	leave  
   137a6:	c3                   	ret    

000137a7 <show_char>:
   137a7:	55                   	push   %ebp
   137a8:	89 e5                	mov    %esp,%ebp
   137aa:	83 ec 28             	sub    $0x28,%esp
   137ad:	8b 45 0c             	mov    0xc(%ebp),%eax
   137b0:	88 45 e4             	mov    %al,-0x1c(%ebp)
   137b3:	8b 45 08             	mov    0x8(%ebp),%eax
   137b6:	8b 50 18             	mov    0x18(%eax),%edx
   137b9:	8b 45 08             	mov    0x8(%ebp),%eax
   137bc:	8b 48 14             	mov    0x14(%eax),%ecx
   137bf:	8b 45 08             	mov    0x8(%ebp),%eax
   137c2:	8b 40 10             	mov    0x10(%eax),%eax
   137c5:	0f af c1             	imul   %ecx,%eax
   137c8:	01 d0                	add    %edx,%eax
   137ca:	89 45 f4             	mov    %eax,-0xc(%ebp)
   137cd:	8b 45 08             	mov    0x8(%ebp),%eax
   137d0:	8b 40 08             	mov    0x8(%eax),%eax
   137d3:	8b 55 f4             	mov    -0xc(%ebp),%edx
   137d6:	01 d2                	add    %edx,%edx
   137d8:	01 d0                	add    %edx,%eax
   137da:	89 45 f0             	mov    %eax,-0x10(%ebp)
   137dd:	8b 45 f0             	mov    -0x10(%ebp),%eax
   137e0:	0f b6 55 e4          	movzbl -0x1c(%ebp),%edx
   137e4:	88 10                	mov    %dl,(%eax)
   137e6:	8b 45 08             	mov    0x8(%ebp),%eax
   137e9:	8b 40 24             	mov    0x24(%eax),%eax
   137ec:	c1 e0 04             	shl    $0x4,%eax
   137ef:	c0 f8 04             	sar    $0x4,%al
   137f2:	8b 55 f0             	mov    -0x10(%ebp),%edx
   137f5:	83 e0 0f             	and    $0xf,%eax
   137f8:	89 c1                	mov    %eax,%ecx
   137fa:	0f b6 42 01          	movzbl 0x1(%edx),%eax
   137fe:	83 e0 f0             	and    $0xfffffff0,%eax
   13801:	09 c8                	or     %ecx,%eax
   13803:	88 42 01             	mov    %al,0x1(%edx)
   13806:	8b 45 08             	mov    0x8(%ebp),%eax
   13809:	8b 40 28             	mov    0x28(%eax),%eax
   1380c:	c1 e0 05             	shl    $0x5,%eax
   1380f:	c0 f8 05             	sar    $0x5,%al
   13812:	8b 55 f0             	mov    -0x10(%ebp),%edx
   13815:	83 e0 07             	and    $0x7,%eax
   13818:	c1 e0 04             	shl    $0x4,%eax
   1381b:	89 c1                	mov    %eax,%ecx
   1381d:	0f b6 42 01          	movzbl 0x1(%edx),%eax
   13821:	83 e0 8f             	and    $0xffffff8f,%eax
   13824:	09 c8                	or     %ecx,%eax
   13826:	88 42 01             	mov    %al,0x1(%edx)
   13829:	83 ec 08             	sub    $0x8,%esp
   1382c:	6a 01                	push   $0x1
   1382e:	ff 75 08             	pushl  0x8(%ebp)
   13831:	e8 fb fe ff ff       	call   13731 <move_dorward>
   13836:	83 c4 10             	add    $0x10,%esp
   13839:	90                   	nop
   1383a:	c9                   	leave  
   1383b:	c3                   	ret    

0001383c <erase_rows>:
   1383c:	55                   	push   %ebp
   1383d:	89 e5                	mov    %esp,%ebp
   1383f:	83 ec 10             	sub    $0x10,%esp
   13842:	8b 45 08             	mov    0x8(%ebp),%eax
   13845:	8b 50 08             	mov    0x8(%eax),%edx
   13848:	8b 45 08             	mov    0x8(%ebp),%eax
   1384b:	8b 40 10             	mov    0x10(%eax),%eax
   1384e:	0f af 45 0c          	imul   0xc(%ebp),%eax
   13852:	01 c0                	add    %eax,%eax
   13854:	01 d0                	add    %edx,%eax
   13856:	89 45 fc             	mov    %eax,-0x4(%ebp)
   13859:	8b 45 08             	mov    0x8(%ebp),%eax
   1385c:	8b 50 08             	mov    0x8(%eax),%edx
   1385f:	8b 45 10             	mov    0x10(%ebp),%eax
   13862:	8d 48 01             	lea    0x1(%eax),%ecx
   13865:	8b 45 08             	mov    0x8(%ebp),%eax
   13868:	8b 40 10             	mov    0x10(%eax),%eax
   1386b:	0f af c1             	imul   %ecx,%eax
   1386e:	01 c0                	add    %eax,%eax
   13870:	01 d0                	add    %edx,%eax
   13872:	89 45 f8             	mov    %eax,-0x8(%ebp)
   13875:	eb 4d                	jmp    138c4 <erase_rows+0x88>
   13877:	8b 45 fc             	mov    -0x4(%ebp),%eax
   1387a:	c6 00 20             	movb   $0x20,(%eax)
   1387d:	8b 45 08             	mov    0x8(%ebp),%eax
   13880:	8b 40 24             	mov    0x24(%eax),%eax
   13883:	c1 e0 04             	shl    $0x4,%eax
   13886:	c0 f8 04             	sar    $0x4,%al
   13889:	8b 55 fc             	mov    -0x4(%ebp),%edx
   1388c:	83 e0 0f             	and    $0xf,%eax
   1388f:	89 c1                	mov    %eax,%ecx
   13891:	0f b6 42 01          	movzbl 0x1(%edx),%eax
   13895:	83 e0 f0             	and    $0xfffffff0,%eax
   13898:	09 c8                	or     %ecx,%eax
   1389a:	88 42 01             	mov    %al,0x1(%edx)
   1389d:	8b 45 08             	mov    0x8(%ebp),%eax
   138a0:	8b 40 28             	mov    0x28(%eax),%eax
   138a3:	c1 e0 05             	shl    $0x5,%eax
   138a6:	c0 f8 05             	sar    $0x5,%al
   138a9:	8b 55 fc             	mov    -0x4(%ebp),%edx
   138ac:	83 e0 07             	and    $0x7,%eax
   138af:	c1 e0 04             	shl    $0x4,%eax
   138b2:	89 c1                	mov    %eax,%ecx
   138b4:	0f b6 42 01          	movzbl 0x1(%edx),%eax
   138b8:	83 e0 8f             	and    $0xffffff8f,%eax
   138bb:	09 c8                	or     %ecx,%eax
   138bd:	88 42 01             	mov    %al,0x1(%edx)
   138c0:	83 45 fc 02          	addl   $0x2,-0x4(%ebp)
   138c4:	8b 45 fc             	mov    -0x4(%ebp),%eax
   138c7:	3b 45 f8             	cmp    -0x8(%ebp),%eax
   138ca:	72 ab                	jb     13877 <erase_rows+0x3b>
   138cc:	90                   	nop
   138cd:	c9                   	leave  
   138ce:	c3                   	ret    

000138cf <clear_display>:
   138cf:	55                   	push   %ebp
   138d0:	89 e5                	mov    %esp,%ebp
   138d2:	83 ec 10             	sub    $0x10,%esp
   138d5:	8b 45 08             	mov    0x8(%ebp),%eax
   138d8:	8b 50 0c             	mov    0xc(%eax),%edx
   138db:	8b 45 08             	mov    0x8(%ebp),%eax
   138de:	8b 40 10             	mov    0x10(%eax),%eax
   138e1:	0f af c2             	imul   %edx,%eax
   138e4:	89 45 f8             	mov    %eax,-0x8(%ebp)
   138e7:	8b 45 08             	mov    0x8(%ebp),%eax
   138ea:	8b 40 08             	mov    0x8(%eax),%eax
   138ed:	89 45 f4             	mov    %eax,-0xc(%ebp)
   138f0:	c7 45 fc 00 00 00 00 	movl   $0x0,-0x4(%ebp)
   138f7:	eb 65                	jmp    1395e <clear_display+0x8f>
   138f9:	8b 45 fc             	mov    -0x4(%ebp),%eax
   138fc:	8d 14 00             	lea    (%eax,%eax,1),%edx
   138ff:	8b 45 f4             	mov    -0xc(%ebp),%eax
   13902:	01 d0                	add    %edx,%eax
   13904:	c6 00 20             	movb   $0x20,(%eax)
   13907:	8b 45 08             	mov    0x8(%ebp),%eax
   1390a:	8b 40 24             	mov    0x24(%eax),%eax
   1390d:	8b 55 fc             	mov    -0x4(%ebp),%edx
   13910:	8d 0c 12             	lea    (%edx,%edx,1),%ecx
   13913:	8b 55 f4             	mov    -0xc(%ebp),%edx
   13916:	01 ca                	add    %ecx,%edx
   13918:	c1 e0 04             	shl    $0x4,%eax
   1391b:	c0 f8 04             	sar    $0x4,%al
   1391e:	83 e0 0f             	and    $0xf,%eax
   13921:	89 c1                	mov    %eax,%ecx
   13923:	0f b6 42 01          	movzbl 0x1(%edx),%eax
   13927:	83 e0 f0             	and    $0xfffffff0,%eax
   1392a:	09 c8                	or     %ecx,%eax
   1392c:	88 42 01             	mov    %al,0x1(%edx)
   1392f:	8b 45 08             	mov    0x8(%ebp),%eax
   13932:	8b 40 28             	mov    0x28(%eax),%eax
   13935:	8b 55 fc             	mov    -0x4(%ebp),%edx
   13938:	8d 0c 12             	lea    (%edx,%edx,1),%ecx
   1393b:	8b 55 f4             	mov    -0xc(%ebp),%edx
   1393e:	01 ca                	add    %ecx,%edx
   13940:	c1 e0 05             	shl    $0x5,%eax
   13943:	c0 f8 05             	sar    $0x5,%al
   13946:	83 e0 07             	and    $0x7,%eax
   13949:	c1 e0 04             	shl    $0x4,%eax
   1394c:	89 c1                	mov    %eax,%ecx
   1394e:	0f b6 42 01          	movzbl 0x1(%edx),%eax
   13952:	83 e0 8f             	and    $0xffffff8f,%eax
   13955:	09 c8                	or     %ecx,%eax
   13957:	88 42 01             	mov    %al,0x1(%edx)
   1395a:	83 45 fc 01          	addl   $0x1,-0x4(%ebp)
   1395e:	8b 45 fc             	mov    -0x4(%ebp),%eax
   13961:	3b 45 f8             	cmp    -0x8(%ebp),%eax
   13964:	7c 93                	jl     138f9 <clear_display+0x2a>
   13966:	90                   	nop
   13967:	c9                   	leave  
   13968:	c3                   	ret    

00013969 <console_init>:
   13969:	55                   	push   %ebp
   1396a:	89 e5                	mov    %esp,%ebp
   1396c:	83 ec 18             	sub    $0x18,%esp
   1396f:	8b 45 08             	mov    0x8(%ebp),%eax
   13972:	69 c0 a0 0f 00 00    	imul   $0xfa0,%eax,%eax
   13978:	8d 90 00 80 0b 00    	lea    0xb8000(%eax),%edx
   1397e:	8b 45 08             	mov    0x8(%ebp),%eax
   13981:	6b c0 6c             	imul   $0x6c,%eax,%eax
   13984:	05 c8 6c 03 00       	add    $0x36cc8,%eax
   13989:	89 10                	mov    %edx,(%eax)
   1398b:	8b 45 08             	mov    0x8(%ebp),%eax
   1398e:	6b c0 6c             	imul   $0x6c,%eax,%eax
   13991:	05 cc 6c 03 00       	add    $0x36ccc,%eax
   13996:	c7 00 19 00 00 00    	movl   $0x19,(%eax)
   1399c:	8b 45 08             	mov    0x8(%ebp),%eax
   1399f:	6b c0 6c             	imul   $0x6c,%eax,%eax
   139a2:	05 d0 6c 03 00       	add    $0x36cd0,%eax
   139a7:	c7 00 50 00 00 00    	movl   $0x50,(%eax)
   139ad:	8b 45 08             	mov    0x8(%ebp),%eax
   139b0:	6b c0 6c             	imul   $0x6c,%eax,%eax
   139b3:	05 e4 6c 03 00       	add    $0x36ce4,%eax
   139b8:	c7 00 0f 00 00 00    	movl   $0xf,(%eax)
   139be:	8b 45 08             	mov    0x8(%ebp),%eax
   139c1:	6b c0 6c             	imul   $0x6c,%eax,%eax
   139c4:	05 e8 6c 03 00       	add    $0x36ce8,%eax
   139c9:	c7 00 00 00 00 00    	movl   $0x0,(%eax)
   139cf:	83 7d 08 00          	cmpl   $0x0,0x8(%ebp)
   139d3:	75 4c                	jne    13a21 <console_init+0xb8>
   139d5:	e8 24 fc ff ff       	call   135fe <read_cursor_pos>
   139da:	89 45 f4             	mov    %eax,-0xc(%ebp)
   139dd:	8b 45 08             	mov    0x8(%ebp),%eax
   139e0:	6b c0 6c             	imul   $0x6c,%eax,%eax
   139e3:	05 d0 6c 03 00       	add    $0x36cd0,%eax
   139e8:	8b 08                	mov    (%eax),%ecx
   139ea:	8b 45 f4             	mov    -0xc(%ebp),%eax
   139ed:	99                   	cltd   
   139ee:	f7 f9                	idiv   %ecx
   139f0:	89 c2                	mov    %eax,%edx
   139f2:	8b 45 08             	mov    0x8(%ebp),%eax
   139f5:	6b c0 6c             	imul   $0x6c,%eax,%eax
   139f8:	05 d4 6c 03 00       	add    $0x36cd4,%eax
   139fd:	89 10                	mov    %edx,(%eax)
   139ff:	8b 45 08             	mov    0x8(%ebp),%eax
   13a02:	6b c0 6c             	imul   $0x6c,%eax,%eax
   13a05:	05 d0 6c 03 00       	add    $0x36cd0,%eax
   13a0a:	8b 08                	mov    (%eax),%ecx
   13a0c:	8b 45 f4             	mov    -0xc(%ebp),%eax
   13a0f:	99                   	cltd   
   13a10:	f7 f9                	idiv   %ecx
   13a12:	8b 45 08             	mov    0x8(%ebp),%eax
   13a15:	6b c0 6c             	imul   $0x6c,%eax,%eax
   13a18:	05 d8 6c 03 00       	add    $0x36cd8,%eax
   13a1d:	89 10                	mov    %edx,(%eax)
   13a1f:	eb 39                	jmp    13a5a <console_init+0xf1>
   13a21:	8b 45 08             	mov    0x8(%ebp),%eax
   13a24:	6b c0 6c             	imul   $0x6c,%eax,%eax
   13a27:	05 d4 6c 03 00       	add    $0x36cd4,%eax
   13a2c:	c7 00 00 00 00 00    	movl   $0x0,(%eax)
   13a32:	8b 45 08             	mov    0x8(%ebp),%eax
   13a35:	6b c0 6c             	imul   $0x6c,%eax,%eax
   13a38:	05 d8 6c 03 00       	add    $0x36cd8,%eax
   13a3d:	c7 00 00 00 00 00    	movl   $0x0,(%eax)
   13a43:	8b 45 08             	mov    0x8(%ebp),%eax
   13a46:	6b c0 6c             	imul   $0x6c,%eax,%eax
   13a49:	05 c0 6c 03 00       	add    $0x36cc0,%eax
   13a4e:	83 ec 0c             	sub    $0xc,%esp
   13a51:	50                   	push   %eax
   13a52:	e8 78 fe ff ff       	call   138cf <clear_display>
   13a57:	83 c4 10             	add    $0x10,%esp
   13a5a:	8b 45 08             	mov    0x8(%ebp),%eax
   13a5d:	6b c0 6c             	imul   $0x6c,%eax,%eax
   13a60:	05 c0 6c 03 00       	add    $0x36cc0,%eax
   13a65:	c7 00 00 00 00 00    	movl   $0x0,(%eax)
   13a6b:	8b 45 08             	mov    0x8(%ebp),%eax
   13a6e:	6b c0 6c             	imul   $0x6c,%eax,%eax
   13a71:	05 d4 6c 03 00       	add    $0x36cd4,%eax
   13a76:	8b 00                	mov    (%eax),%eax
   13a78:	8b 55 08             	mov    0x8(%ebp),%edx
   13a7b:	6b d2 6c             	imul   $0x6c,%edx,%edx
   13a7e:	81 c2 dc 6c 03 00    	add    $0x36cdc,%edx
   13a84:	89 02                	mov    %eax,(%edx)
   13a86:	8b 45 08             	mov    0x8(%ebp),%eax
   13a89:	6b c0 6c             	imul   $0x6c,%eax,%eax
   13a8c:	05 d8 6c 03 00       	add    $0x36cd8,%eax
   13a91:	8b 00                	mov    (%eax),%eax
   13a93:	8b 55 08             	mov    0x8(%ebp),%edx
   13a96:	6b d2 6c             	imul   $0x6c,%edx,%edx
   13a99:	81 c2 e0 6c 03 00    	add    $0x36ce0,%edx
   13a9f:	89 02                	mov    %eax,(%edx)
   13aa1:	8b 45 08             	mov    0x8(%ebp),%eax
   13aa4:	6b c0 6c             	imul   $0x6c,%eax,%eax
   13aa7:	83 c0 50             	add    $0x50,%eax
   13aaa:	05 c0 6c 03 00       	add    $0x36cc0,%eax
   13aaf:	83 c0 08             	add    $0x8,%eax
   13ab2:	83 ec 0c             	sub    $0xc,%esp
   13ab5:	50                   	push   %eax
   13ab6:	e8 f8 42 00 00       	call   17db3 <mutex_init>
   13abb:	83 c4 10             	add    $0x10,%esp
   13abe:	b8 00 00 00 00       	mov    $0x0,%eax
   13ac3:	c9                   	leave  
   13ac4:	c3                   	ret    

00013ac5 <mov_to_col0>:
   13ac5:	55                   	push   %ebp
   13ac6:	89 e5                	mov    %esp,%ebp
   13ac8:	8b 45 08             	mov    0x8(%ebp),%eax
   13acb:	c7 40 18 00 00 00 00 	movl   $0x0,0x18(%eax)
   13ad2:	90                   	nop
   13ad3:	5d                   	pop    %ebp
   13ad4:	c3                   	ret    

00013ad5 <scroll_up>:
   13ad5:	55                   	push   %ebp
   13ad6:	89 e5                	mov    %esp,%ebp
   13ad8:	83 ec 18             	sub    $0x18,%esp
   13adb:	8b 45 08             	mov    0x8(%ebp),%eax
   13ade:	8b 40 08             	mov    0x8(%eax),%eax
   13ae1:	89 45 f4             	mov    %eax,-0xc(%ebp)
   13ae4:	8b 45 08             	mov    0x8(%ebp),%eax
   13ae7:	8b 50 08             	mov    0x8(%eax),%edx
   13aea:	8b 45 08             	mov    0x8(%ebp),%eax
   13aed:	8b 40 10             	mov    0x10(%eax),%eax
   13af0:	0f af 45 0c          	imul   0xc(%ebp),%eax
   13af4:	01 c0                	add    %eax,%eax
   13af6:	01 d0                	add    %edx,%eax
   13af8:	89 45 f0             	mov    %eax,-0x10(%ebp)
   13afb:	8b 45 08             	mov    0x8(%ebp),%eax
   13afe:	8b 40 0c             	mov    0xc(%eax),%eax
   13b01:	2b 45 0c             	sub    0xc(%ebp),%eax
   13b04:	89 c2                	mov    %eax,%edx
   13b06:	8b 45 08             	mov    0x8(%ebp),%eax
   13b09:	8b 40 10             	mov    0x10(%eax),%eax
   13b0c:	0f af c2             	imul   %edx,%eax
   13b0f:	01 c0                	add    %eax,%eax
   13b11:	89 45 ec             	mov    %eax,-0x14(%ebp)
   13b14:	8b 45 ec             	mov    -0x14(%ebp),%eax
   13b17:	83 ec 04             	sub    $0x4,%esp
   13b1a:	50                   	push   %eax
   13b1b:	ff 75 f0             	pushl  -0x10(%ebp)
   13b1e:	ff 75 f4             	pushl  -0xc(%ebp)
   13b21:	e8 e9 48 00 00       	call   1840f <kernel_memcpy>
   13b26:	83 c4 10             	add    $0x10,%esp
   13b29:	8b 45 08             	mov    0x8(%ebp),%eax
   13b2c:	8b 40 0c             	mov    0xc(%eax),%eax
   13b2f:	8d 50 ff             	lea    -0x1(%eax),%edx
   13b32:	8b 45 08             	mov    0x8(%ebp),%eax
   13b35:	8b 40 0c             	mov    0xc(%eax),%eax
   13b38:	2b 45 0c             	sub    0xc(%ebp),%eax
   13b3b:	83 ec 04             	sub    $0x4,%esp
   13b3e:	52                   	push   %edx
   13b3f:	50                   	push   %eax
   13b40:	ff 75 08             	pushl  0x8(%ebp)
   13b43:	e8 f4 fc ff ff       	call   1383c <erase_rows>
   13b48:	83 c4 10             	add    $0x10,%esp
   13b4b:	8b 45 08             	mov    0x8(%ebp),%eax
   13b4e:	8b 40 14             	mov    0x14(%eax),%eax
   13b51:	2b 45 0c             	sub    0xc(%ebp),%eax
   13b54:	89 c2                	mov    %eax,%edx
   13b56:	8b 45 08             	mov    0x8(%ebp),%eax
   13b59:	89 50 14             	mov    %edx,0x14(%eax)
   13b5c:	90                   	nop
   13b5d:	c9                   	leave  
   13b5e:	c3                   	ret    

00013b5f <mov_next_line>:
   13b5f:	55                   	push   %ebp
   13b60:	89 e5                	mov    %esp,%ebp
   13b62:	83 ec 08             	sub    $0x8,%esp
   13b65:	8b 45 08             	mov    0x8(%ebp),%eax
   13b68:	8b 40 14             	mov    0x14(%eax),%eax
   13b6b:	8d 50 01             	lea    0x1(%eax),%edx
   13b6e:	8b 45 08             	mov    0x8(%ebp),%eax
   13b71:	89 50 14             	mov    %edx,0x14(%eax)
   13b74:	8b 45 08             	mov    0x8(%ebp),%eax
   13b77:	8b 50 14             	mov    0x14(%eax),%edx
   13b7a:	8b 45 08             	mov    0x8(%ebp),%eax
   13b7d:	8b 40 0c             	mov    0xc(%eax),%eax
   13b80:	39 c2                	cmp    %eax,%edx
   13b82:	7c 10                	jl     13b94 <mov_next_line+0x35>
   13b84:	83 ec 08             	sub    $0x8,%esp
   13b87:	6a 01                	push   $0x1
   13b89:	ff 75 08             	pushl  0x8(%ebp)
   13b8c:	e8 44 ff ff ff       	call   13ad5 <scroll_up>
   13b91:	83 c4 10             	add    $0x10,%esp
   13b94:	90                   	nop
   13b95:	c9                   	leave  
   13b96:	c3                   	ret    

00013b97 <move_backword>:
   13b97:	55                   	push   %ebp
   13b98:	89 e5                	mov    %esp,%ebp
   13b9a:	83 ec 10             	sub    $0x10,%esp
   13b9d:	c7 45 fc ff ff ff ff 	movl   $0xffffffff,-0x4(%ebp)
   13ba4:	c7 45 f8 00 00 00 00 	movl   $0x0,-0x8(%ebp)
   13bab:	eb 55                	jmp    13c02 <move_backword+0x6b>
   13bad:	8b 45 08             	mov    0x8(%ebp),%eax
   13bb0:	8b 40 18             	mov    0x18(%eax),%eax
   13bb3:	85 c0                	test   %eax,%eax
   13bb5:	7e 18                	jle    13bcf <move_backword+0x38>
   13bb7:	8b 45 08             	mov    0x8(%ebp),%eax
   13bba:	8b 40 18             	mov    0x18(%eax),%eax
   13bbd:	8d 50 ff             	lea    -0x1(%eax),%edx
   13bc0:	8b 45 08             	mov    0x8(%ebp),%eax
   13bc3:	89 50 18             	mov    %edx,0x18(%eax)
   13bc6:	c7 45 fc 00 00 00 00 	movl   $0x0,-0x4(%ebp)
   13bcd:	eb 2f                	jmp    13bfe <move_backword+0x67>
   13bcf:	8b 45 08             	mov    0x8(%ebp),%eax
   13bd2:	8b 40 14             	mov    0x14(%eax),%eax
   13bd5:	85 c0                	test   %eax,%eax
   13bd7:	7e 25                	jle    13bfe <move_backword+0x67>
   13bd9:	8b 45 08             	mov    0x8(%ebp),%eax
   13bdc:	8b 40 14             	mov    0x14(%eax),%eax
   13bdf:	8d 50 ff             	lea    -0x1(%eax),%edx
   13be2:	8b 45 08             	mov    0x8(%ebp),%eax
   13be5:	89 50 14             	mov    %edx,0x14(%eax)
   13be8:	8b 45 08             	mov    0x8(%ebp),%eax
   13beb:	8b 40 10             	mov    0x10(%eax),%eax
   13bee:	8d 50 ff             	lea    -0x1(%eax),%edx
   13bf1:	8b 45 08             	mov    0x8(%ebp),%eax
   13bf4:	89 50 18             	mov    %edx,0x18(%eax)
   13bf7:	c7 45 fc 00 00 00 00 	movl   $0x0,-0x4(%ebp)
   13bfe:	83 45 f8 01          	addl   $0x1,-0x8(%ebp)
   13c02:	8b 45 f8             	mov    -0x8(%ebp),%eax
   13c05:	3b 45 0c             	cmp    0xc(%ebp),%eax
   13c08:	7c a3                	jl     13bad <move_backword+0x16>
   13c0a:	8b 45 fc             	mov    -0x4(%ebp),%eax
   13c0d:	c9                   	leave  
   13c0e:	c3                   	ret    

00013c0f <erase_backword>:
   13c0f:	55                   	push   %ebp
   13c10:	89 e5                	mov    %esp,%ebp
   13c12:	83 ec 08             	sub    $0x8,%esp
   13c15:	6a 01                	push   $0x1
   13c17:	ff 75 08             	pushl  0x8(%ebp)
   13c1a:	e8 78 ff ff ff       	call   13b97 <move_backword>
   13c1f:	83 c4 08             	add    $0x8,%esp
   13c22:	85 c0                	test   %eax,%eax
   13c24:	75 20                	jne    13c46 <erase_backword+0x37>
   13c26:	83 ec 08             	sub    $0x8,%esp
   13c29:	6a 20                	push   $0x20
   13c2b:	ff 75 08             	pushl  0x8(%ebp)
   13c2e:	e8 74 fb ff ff       	call   137a7 <show_char>
   13c33:	83 c4 10             	add    $0x10,%esp
   13c36:	83 ec 08             	sub    $0x8,%esp
   13c39:	6a 01                	push   $0x1
   13c3b:	ff 75 08             	pushl  0x8(%ebp)
   13c3e:	e8 54 ff ff ff       	call   13b97 <move_backword>
   13c43:	83 c4 10             	add    $0x10,%esp
   13c46:	90                   	nop
   13c47:	c9                   	leave  
   13c48:	c3                   	ret    

00013c49 <write_normal>:
   13c49:	55                   	push   %ebp
   13c4a:	89 e5                	mov    %esp,%ebp
   13c4c:	83 ec 18             	sub    $0x18,%esp
   13c4f:	8b 45 0c             	mov    0xc(%ebp),%eax
   13c52:	88 45 f4             	mov    %al,-0xc(%ebp)
   13c55:	0f be 45 f4          	movsbl -0xc(%ebp),%eax
   13c59:	83 f8 0d             	cmp    $0xd,%eax
   13c5c:	74 4a                	je     13ca8 <write_normal+0x5f>
   13c5e:	83 f8 0d             	cmp    $0xd,%eax
   13c61:	7f 0c                	jg     13c6f <write_normal+0x26>
   13c63:	83 f8 08             	cmp    $0x8,%eax
   13c66:	74 2e                	je     13c96 <write_normal+0x4d>
   13c68:	83 f8 0a             	cmp    $0xa,%eax
   13c6b:	74 4b                	je     13cb8 <write_normal+0x6f>
   13c6d:	eb 67                	jmp    13cd6 <write_normal+0x8d>
   13c6f:	83 f8 1b             	cmp    $0x1b,%eax
   13c72:	74 07                	je     13c7b <write_normal+0x32>
   13c74:	83 f8 7f             	cmp    $0x7f,%eax
   13c77:	74 0d                	je     13c86 <write_normal+0x3d>
   13c79:	eb 5b                	jmp    13cd6 <write_normal+0x8d>
   13c7b:	8b 45 08             	mov    0x8(%ebp),%eax
   13c7e:	c7 00 01 00 00 00    	movl   $0x1,(%eax)
   13c84:	eb 70                	jmp    13cf6 <write_normal+0xad>
   13c86:	83 ec 0c             	sub    $0xc,%esp
   13c89:	ff 75 08             	pushl  0x8(%ebp)
   13c8c:	e8 7e ff ff ff       	call   13c0f <erase_backword>
   13c91:	83 c4 10             	add    $0x10,%esp
   13c94:	eb 60                	jmp    13cf6 <write_normal+0xad>
   13c96:	83 ec 08             	sub    $0x8,%esp
   13c99:	6a 01                	push   $0x1
   13c9b:	ff 75 08             	pushl  0x8(%ebp)
   13c9e:	e8 f4 fe ff ff       	call   13b97 <move_backword>
   13ca3:	83 c4 10             	add    $0x10,%esp
   13ca6:	eb 4e                	jmp    13cf6 <write_normal+0xad>
   13ca8:	83 ec 0c             	sub    $0xc,%esp
   13cab:	ff 75 08             	pushl  0x8(%ebp)
   13cae:	e8 12 fe ff ff       	call   13ac5 <mov_to_col0>
   13cb3:	83 c4 10             	add    $0x10,%esp
   13cb6:	eb 3e                	jmp    13cf6 <write_normal+0xad>
   13cb8:	83 ec 0c             	sub    $0xc,%esp
   13cbb:	ff 75 08             	pushl  0x8(%ebp)
   13cbe:	e8 02 fe ff ff       	call   13ac5 <mov_to_col0>
   13cc3:	83 c4 10             	add    $0x10,%esp
   13cc6:	83 ec 0c             	sub    $0xc,%esp
   13cc9:	ff 75 08             	pushl  0x8(%ebp)
   13ccc:	e8 8e fe ff ff       	call   13b5f <mov_next_line>
   13cd1:	83 c4 10             	add    $0x10,%esp
   13cd4:	eb 20                	jmp    13cf6 <write_normal+0xad>
   13cd6:	80 7d f4 1f          	cmpb   $0x1f,-0xc(%ebp)
   13cda:	7e 19                	jle    13cf5 <write_normal+0xac>
   13cdc:	80 7d f4 7f          	cmpb   $0x7f,-0xc(%ebp)
   13ce0:	74 13                	je     13cf5 <write_normal+0xac>
   13ce2:	0f be 45 f4          	movsbl -0xc(%ebp),%eax
   13ce6:	83 ec 08             	sub    $0x8,%esp
   13ce9:	50                   	push   %eax
   13cea:	ff 75 08             	pushl  0x8(%ebp)
   13ced:	e8 b5 fa ff ff       	call   137a7 <show_char>
   13cf2:	83 c4 10             	add    $0x10,%esp
   13cf5:	90                   	nop
   13cf6:	90                   	nop
   13cf7:	c9                   	leave  
   13cf8:	c3                   	ret    

00013cf9 <save_cursor>:
   13cf9:	55                   	push   %ebp
   13cfa:	89 e5                	mov    %esp,%ebp
   13cfc:	8b 45 08             	mov    0x8(%ebp),%eax
   13cff:	8b 50 18             	mov    0x18(%eax),%edx
   13d02:	8b 45 08             	mov    0x8(%ebp),%eax
   13d05:	89 50 20             	mov    %edx,0x20(%eax)
   13d08:	8b 45 08             	mov    0x8(%ebp),%eax
   13d0b:	8b 50 14             	mov    0x14(%eax),%edx
   13d0e:	8b 45 08             	mov    0x8(%ebp),%eax
   13d11:	89 50 1c             	mov    %edx,0x1c(%eax)
   13d14:	90                   	nop
   13d15:	5d                   	pop    %ebp
   13d16:	c3                   	ret    

00013d17 <restore_cursor>:
   13d17:	55                   	push   %ebp
   13d18:	89 e5                	mov    %esp,%ebp
   13d1a:	8b 45 08             	mov    0x8(%ebp),%eax
   13d1d:	8b 50 20             	mov    0x20(%eax),%edx
   13d20:	8b 45 08             	mov    0x8(%ebp),%eax
   13d23:	89 50 18             	mov    %edx,0x18(%eax)
   13d26:	8b 45 08             	mov    0x8(%ebp),%eax
   13d29:	8b 50 1c             	mov    0x1c(%eax),%edx
   13d2c:	8b 45 08             	mov    0x8(%ebp),%eax
   13d2f:	89 50 14             	mov    %edx,0x14(%eax)
   13d32:	90                   	nop
   13d33:	5d                   	pop    %ebp
   13d34:	c3                   	ret    

00013d35 <clear_esc_param>:
   13d35:	55                   	push   %ebp
   13d36:	89 e5                	mov    %esp,%ebp
   13d38:	83 ec 08             	sub    $0x8,%esp
   13d3b:	8b 45 08             	mov    0x8(%ebp),%eax
   13d3e:	83 c0 2c             	add    $0x2c,%eax
   13d41:	83 ec 04             	sub    $0x4,%esp
   13d44:	6a 28                	push   $0x28
   13d46:	6a 00                	push   $0x0
   13d48:	50                   	push   %eax
   13d49:	e8 10 47 00 00       	call   1845e <kernel_memset>
   13d4e:	83 c4 10             	add    $0x10,%esp
   13d51:	8b 45 08             	mov    0x8(%ebp),%eax
   13d54:	c7 40 54 00 00 00 00 	movl   $0x0,0x54(%eax)
   13d5b:	90                   	nop
   13d5c:	c9                   	leave  
   13d5d:	c3                   	ret    

00013d5e <write_esc>:
   13d5e:	55                   	push   %ebp
   13d5f:	89 e5                	mov    %esp,%ebp
   13d61:	83 ec 18             	sub    $0x18,%esp
   13d64:	8b 45 0c             	mov    0xc(%ebp),%eax
   13d67:	88 45 f4             	mov    %al,-0xc(%ebp)
   13d6a:	0f be 45 f4          	movsbl -0xc(%ebp),%eax
   13d6e:	83 f8 38             	cmp    $0x38,%eax
   13d71:	74 20                	je     13d93 <write_esc+0x35>
   13d73:	83 f8 5b             	cmp    $0x5b,%eax
   13d76:	74 31                	je     13da9 <write_esc+0x4b>
   13d78:	83 f8 37             	cmp    $0x37,%eax
   13d7b:	75 45                	jne    13dc2 <write_esc+0x64>
   13d7d:	ff 75 08             	pushl  0x8(%ebp)
   13d80:	e8 74 ff ff ff       	call   13cf9 <save_cursor>
   13d85:	83 c4 04             	add    $0x4,%esp
   13d88:	8b 45 08             	mov    0x8(%ebp),%eax
   13d8b:	c7 00 00 00 00 00    	movl   $0x0,(%eax)
   13d91:	eb 39                	jmp    13dcc <write_esc+0x6e>
   13d93:	ff 75 08             	pushl  0x8(%ebp)
   13d96:	e8 7c ff ff ff       	call   13d17 <restore_cursor>
   13d9b:	83 c4 04             	add    $0x4,%esp
   13d9e:	8b 45 08             	mov    0x8(%ebp),%eax
   13da1:	c7 00 00 00 00 00    	movl   $0x0,(%eax)
   13da7:	eb 23                	jmp    13dcc <write_esc+0x6e>
   13da9:	83 ec 0c             	sub    $0xc,%esp
   13dac:	ff 75 08             	pushl  0x8(%ebp)
   13daf:	e8 81 ff ff ff       	call   13d35 <clear_esc_param>
   13db4:	83 c4 10             	add    $0x10,%esp
   13db7:	8b 45 08             	mov    0x8(%ebp),%eax
   13dba:	c7 00 02 00 00 00    	movl   $0x2,(%eax)
   13dc0:	eb 0a                	jmp    13dcc <write_esc+0x6e>
   13dc2:	8b 45 08             	mov    0x8(%ebp),%eax
   13dc5:	c7 00 00 00 00 00    	movl   $0x0,(%eax)
   13dcb:	90                   	nop
   13dcc:	90                   	nop
   13dcd:	c9                   	leave  
   13dce:	c3                   	ret    

00013dcf <set_font_style>:
   13dcf:	55                   	push   %ebp
   13dd0:	89 e5                	mov    %esp,%ebp
   13dd2:	83 ec 10             	sub    $0x10,%esp
   13dd5:	c7 45 fc 00 00 00 00 	movl   $0x0,-0x4(%ebp)
   13ddc:	eb 78                	jmp    13e56 <set_font_style+0x87>
   13dde:	8b 45 08             	mov    0x8(%ebp),%eax
   13de1:	8b 55 fc             	mov    -0x4(%ebp),%edx
   13de4:	83 c2 08             	add    $0x8,%edx
   13de7:	8b 44 90 0c          	mov    0xc(%eax,%edx,4),%eax
   13deb:	89 45 f8             	mov    %eax,-0x8(%ebp)
   13dee:	83 7d f8 1d          	cmpl   $0x1d,-0x8(%ebp)
   13df2:	7e 1b                	jle    13e0f <set_font_style+0x40>
   13df4:	83 7d f8 25          	cmpl   $0x25,-0x8(%ebp)
   13df8:	7f 15                	jg     13e0f <set_font_style+0x40>
   13dfa:	8b 45 f8             	mov    -0x8(%ebp),%eax
   13dfd:	83 e8 1e             	sub    $0x1e,%eax
   13e00:	8b 14 85 c0 94 01 00 	mov    0x194c0(,%eax,4),%edx
   13e07:	8b 45 08             	mov    0x8(%ebp),%eax
   13e0a:	89 50 24             	mov    %edx,0x24(%eax)
   13e0d:	eb 43                	jmp    13e52 <set_font_style+0x83>
   13e0f:	83 7d f8 27          	cmpl   $0x27,-0x8(%ebp)
   13e13:	7e 1b                	jle    13e30 <set_font_style+0x61>
   13e15:	83 7d f8 2f          	cmpl   $0x2f,-0x8(%ebp)
   13e19:	7f 15                	jg     13e30 <set_font_style+0x61>
   13e1b:	8b 45 f8             	mov    -0x8(%ebp),%eax
   13e1e:	83 e8 28             	sub    $0x28,%eax
   13e21:	8b 14 85 c0 94 01 00 	mov    0x194c0(,%eax,4),%edx
   13e28:	8b 45 08             	mov    0x8(%ebp),%eax
   13e2b:	89 50 28             	mov    %edx,0x28(%eax)
   13e2e:	eb 22                	jmp    13e52 <set_font_style+0x83>
   13e30:	83 7d f8 27          	cmpl   $0x27,-0x8(%ebp)
   13e34:	75 0c                	jne    13e42 <set_font_style+0x73>
   13e36:	8b 45 08             	mov    0x8(%ebp),%eax
   13e39:	c7 40 24 0f 00 00 00 	movl   $0xf,0x24(%eax)
   13e40:	eb 10                	jmp    13e52 <set_font_style+0x83>
   13e42:	83 7d f8 31          	cmpl   $0x31,-0x8(%ebp)
   13e46:	75 0a                	jne    13e52 <set_font_style+0x83>
   13e48:	8b 45 08             	mov    0x8(%ebp),%eax
   13e4b:	c7 40 28 00 00 00 00 	movl   $0x0,0x28(%eax)
   13e52:	83 45 fc 01          	addl   $0x1,-0x4(%ebp)
   13e56:	8b 45 08             	mov    0x8(%ebp),%eax
   13e59:	8b 40 54             	mov    0x54(%eax),%eax
   13e5c:	39 45 fc             	cmp    %eax,-0x4(%ebp)
   13e5f:	0f 8c 79 ff ff ff    	jl     13dde <set_font_style+0xf>
   13e65:	90                   	nop
   13e66:	c9                   	leave  
   13e67:	c3                   	ret    

00013e68 <move_left>:
   13e68:	55                   	push   %ebp
   13e69:	89 e5                	mov    %esp,%ebp
   13e6b:	83 ec 10             	sub    $0x10,%esp
   13e6e:	83 7d 0c 00          	cmpl   $0x0,0xc(%ebp)
   13e72:	75 07                	jne    13e7b <move_left+0x13>
   13e74:	c7 45 0c 01 00 00 00 	movl   $0x1,0xc(%ebp)
   13e7b:	8b 45 08             	mov    0x8(%ebp),%eax
   13e7e:	8b 40 18             	mov    0x18(%eax),%eax
   13e81:	2b 45 0c             	sub    0xc(%ebp),%eax
   13e84:	89 45 fc             	mov    %eax,-0x4(%ebp)
   13e87:	b8 00 00 00 00       	mov    $0x0,%eax
   13e8c:	83 7d fc 00          	cmpl   $0x0,-0x4(%ebp)
   13e90:	0f 49 45 fc          	cmovns -0x4(%ebp),%eax
   13e94:	89 c2                	mov    %eax,%edx
   13e96:	8b 45 08             	mov    0x8(%ebp),%eax
   13e99:	89 50 18             	mov    %edx,0x18(%eax)
   13e9c:	90                   	nop
   13e9d:	c9                   	leave  
   13e9e:	c3                   	ret    

00013e9f <move_right>:
   13e9f:	55                   	push   %ebp
   13ea0:	89 e5                	mov    %esp,%ebp
   13ea2:	83 ec 10             	sub    $0x10,%esp
   13ea5:	83 7d 0c 00          	cmpl   $0x0,0xc(%ebp)
   13ea9:	75 07                	jne    13eb2 <move_right+0x13>
   13eab:	c7 45 0c 01 00 00 00 	movl   $0x1,0xc(%ebp)
   13eb2:	8b 45 08             	mov    0x8(%ebp),%eax
   13eb5:	8b 50 18             	mov    0x18(%eax),%edx
   13eb8:	8b 45 0c             	mov    0xc(%ebp),%eax
   13ebb:	01 d0                	add    %edx,%eax
   13ebd:	89 45 fc             	mov    %eax,-0x4(%ebp)
   13ec0:	8b 45 08             	mov    0x8(%ebp),%eax
   13ec3:	8b 40 10             	mov    0x10(%eax),%eax
   13ec6:	39 45 fc             	cmp    %eax,-0x4(%ebp)
   13ec9:	7c 11                	jl     13edc <move_right+0x3d>
   13ecb:	8b 45 08             	mov    0x8(%ebp),%eax
   13ece:	8b 40 10             	mov    0x10(%eax),%eax
   13ed1:	8d 50 ff             	lea    -0x1(%eax),%edx
   13ed4:	8b 45 08             	mov    0x8(%ebp),%eax
   13ed7:	89 50 18             	mov    %edx,0x18(%eax)
   13eda:	eb 09                	jmp    13ee5 <move_right+0x46>
   13edc:	8b 45 08             	mov    0x8(%ebp),%eax
   13edf:	8b 55 fc             	mov    -0x4(%ebp),%edx
   13ee2:	89 50 18             	mov    %edx,0x18(%eax)
   13ee5:	90                   	nop
   13ee6:	c9                   	leave  
   13ee7:	c3                   	ret    

00013ee8 <move_cursor>:
   13ee8:	55                   	push   %ebp
   13ee9:	89 e5                	mov    %esp,%ebp
   13eeb:	8b 45 08             	mov    0x8(%ebp),%eax
   13eee:	8b 40 54             	mov    0x54(%eax),%eax
   13ef1:	85 c0                	test   %eax,%eax
   13ef3:	7e 0c                	jle    13f01 <move_cursor+0x19>
   13ef5:	8b 45 08             	mov    0x8(%ebp),%eax
   13ef8:	8b 50 2c             	mov    0x2c(%eax),%edx
   13efb:	8b 45 08             	mov    0x8(%ebp),%eax
   13efe:	89 50 14             	mov    %edx,0x14(%eax)
   13f01:	8b 45 08             	mov    0x8(%ebp),%eax
   13f04:	8b 40 54             	mov    0x54(%eax),%eax
   13f07:	83 f8 01             	cmp    $0x1,%eax
   13f0a:	7e 0c                	jle    13f18 <move_cursor+0x30>
   13f0c:	8b 45 08             	mov    0x8(%ebp),%eax
   13f0f:	8b 50 30             	mov    0x30(%eax),%edx
   13f12:	8b 45 08             	mov    0x8(%ebp),%eax
   13f15:	89 50 18             	mov    %edx,0x18(%eax)
   13f18:	90                   	nop
   13f19:	5d                   	pop    %ebp
   13f1a:	c3                   	ret    

00013f1b <erase_in_display>:
   13f1b:	55                   	push   %ebp
   13f1c:	89 e5                	mov    %esp,%ebp
   13f1e:	83 ec 10             	sub    $0x10,%esp
   13f21:	8b 45 08             	mov    0x8(%ebp),%eax
   13f24:	8b 40 54             	mov    0x54(%eax),%eax
   13f27:	85 c0                	test   %eax,%eax
   13f29:	7e 3e                	jle    13f69 <erase_in_display+0x4e>
   13f2b:	8b 45 08             	mov    0x8(%ebp),%eax
   13f2e:	8b 40 2c             	mov    0x2c(%eax),%eax
   13f31:	89 45 fc             	mov    %eax,-0x4(%ebp)
   13f34:	83 7d fc 02          	cmpl   $0x2,-0x4(%ebp)
   13f38:	75 30                	jne    13f6a <erase_in_display+0x4f>
   13f3a:	8b 45 08             	mov    0x8(%ebp),%eax
   13f3d:	8b 40 0c             	mov    0xc(%eax),%eax
   13f40:	83 e8 01             	sub    $0x1,%eax
   13f43:	50                   	push   %eax
   13f44:	6a 00                	push   $0x0
   13f46:	ff 75 08             	pushl  0x8(%ebp)
   13f49:	e8 ee f8 ff ff       	call   1383c <erase_rows>
   13f4e:	83 c4 0c             	add    $0xc,%esp
   13f51:	8b 45 08             	mov    0x8(%ebp),%eax
   13f54:	c7 40 14 00 00 00 00 	movl   $0x0,0x14(%eax)
   13f5b:	8b 45 08             	mov    0x8(%ebp),%eax
   13f5e:	8b 50 14             	mov    0x14(%eax),%edx
   13f61:	8b 45 08             	mov    0x8(%ebp),%eax
   13f64:	89 50 18             	mov    %edx,0x18(%eax)
   13f67:	eb 01                	jmp    13f6a <erase_in_display+0x4f>
   13f69:	90                   	nop
   13f6a:	c9                   	leave  
   13f6b:	c3                   	ret    

00013f6c <write_esc_square>:
   13f6c:	55                   	push   %ebp
   13f6d:	89 e5                	mov    %esp,%ebp
   13f6f:	83 ec 14             	sub    $0x14,%esp
   13f72:	8b 45 0c             	mov    0xc(%ebp),%eax
   13f75:	88 45 ec             	mov    %al,-0x14(%ebp)
   13f78:	80 7d ec 2f          	cmpb   $0x2f,-0x14(%ebp)
   13f7c:	7e 44                	jle    13fc2 <write_esc_square+0x56>
   13f7e:	80 7d ec 39          	cmpb   $0x39,-0x14(%ebp)
   13f82:	7f 3e                	jg     13fc2 <write_esc_square+0x56>
   13f84:	8b 45 08             	mov    0x8(%ebp),%eax
   13f87:	8b 40 54             	mov    0x54(%eax),%eax
   13f8a:	83 c0 08             	add    $0x8,%eax
   13f8d:	8d 14 85 00 00 00 00 	lea    0x0(,%eax,4),%edx
   13f94:	8b 45 08             	mov    0x8(%ebp),%eax
   13f97:	01 d0                	add    %edx,%eax
   13f99:	83 c0 0c             	add    $0xc,%eax
   13f9c:	89 45 fc             	mov    %eax,-0x4(%ebp)
   13f9f:	8b 45 fc             	mov    -0x4(%ebp),%eax
   13fa2:	8b 10                	mov    (%eax),%edx
   13fa4:	89 d0                	mov    %edx,%eax
   13fa6:	c1 e0 02             	shl    $0x2,%eax
   13fa9:	01 d0                	add    %edx,%eax
   13fab:	01 c0                	add    %eax,%eax
   13fad:	89 c2                	mov    %eax,%edx
   13faf:	0f be 45 ec          	movsbl -0x14(%ebp),%eax
   13fb3:	01 d0                	add    %edx,%eax
   13fb5:	8d 50 d0             	lea    -0x30(%eax),%edx
   13fb8:	8b 45 fc             	mov    -0x4(%ebp),%eax
   13fbb:	89 10                	mov    %edx,(%eax)
   13fbd:	e9 9d 00 00 00       	jmp    1405f <write_esc_square+0xf3>
   13fc2:	80 7d ec 3b          	cmpb   $0x3b,-0x14(%ebp)
   13fc6:	75 1c                	jne    13fe4 <write_esc_square+0x78>
   13fc8:	8b 45 08             	mov    0x8(%ebp),%eax
   13fcb:	8b 40 54             	mov    0x54(%eax),%eax
   13fce:	83 f8 09             	cmp    $0x9,%eax
   13fd1:	7f 11                	jg     13fe4 <write_esc_square+0x78>
   13fd3:	8b 45 08             	mov    0x8(%ebp),%eax
   13fd6:	8b 40 54             	mov    0x54(%eax),%eax
   13fd9:	8d 50 01             	lea    0x1(%eax),%edx
   13fdc:	8b 45 08             	mov    0x8(%ebp),%eax
   13fdf:	89 50 54             	mov    %edx,0x54(%eax)
   13fe2:	eb 7b                	jmp    1405f <write_esc_square+0xf3>
   13fe4:	8b 45 08             	mov    0x8(%ebp),%eax
   13fe7:	8b 40 54             	mov    0x54(%eax),%eax
   13fea:	8d 50 01             	lea    0x1(%eax),%edx
   13fed:	8b 45 08             	mov    0x8(%ebp),%eax
   13ff0:	89 50 54             	mov    %edx,0x54(%eax)
   13ff3:	0f be 45 ec          	movsbl -0x14(%ebp),%eax
   13ff7:	83 e8 43             	sub    $0x43,%eax
   13ffa:	83 f8 2a             	cmp    $0x2a,%eax
   13ffd:	77 57                	ja     14056 <write_esc_square+0xea>
   13fff:	8b 04 85 00 94 01 00 	mov    0x19400(,%eax,4),%eax
   14006:	ff e0                	jmp    *%eax
   14008:	ff 75 08             	pushl  0x8(%ebp)
   1400b:	e8 bf fd ff ff       	call   13dcf <set_font_style>
   14010:	83 c4 04             	add    $0x4,%esp
   14013:	eb 41                	jmp    14056 <write_esc_square+0xea>
   14015:	8b 45 08             	mov    0x8(%ebp),%eax
   14018:	8b 40 2c             	mov    0x2c(%eax),%eax
   1401b:	50                   	push   %eax
   1401c:	ff 75 08             	pushl  0x8(%ebp)
   1401f:	e8 44 fe ff ff       	call   13e68 <move_left>
   14024:	83 c4 08             	add    $0x8,%esp
   14027:	eb 2d                	jmp    14056 <write_esc_square+0xea>
   14029:	8b 45 08             	mov    0x8(%ebp),%eax
   1402c:	8b 40 2c             	mov    0x2c(%eax),%eax
   1402f:	50                   	push   %eax
   14030:	ff 75 08             	pushl  0x8(%ebp)
   14033:	e8 67 fe ff ff       	call   13e9f <move_right>
   14038:	83 c4 08             	add    $0x8,%esp
   1403b:	eb 19                	jmp    14056 <write_esc_square+0xea>
   1403d:	ff 75 08             	pushl  0x8(%ebp)
   14040:	e8 a3 fe ff ff       	call   13ee8 <move_cursor>
   14045:	83 c4 04             	add    $0x4,%esp
   14048:	eb 0c                	jmp    14056 <write_esc_square+0xea>
   1404a:	ff 75 08             	pushl  0x8(%ebp)
   1404d:	e8 c9 fe ff ff       	call   13f1b <erase_in_display>
   14052:	83 c4 04             	add    $0x4,%esp
   14055:	90                   	nop
   14056:	8b 45 08             	mov    0x8(%ebp),%eax
   14059:	c7 00 00 00 00 00    	movl   $0x0,(%eax)
   1405f:	90                   	nop
   14060:	c9                   	leave  
   14061:	c3                   	ret    

00014062 <console_write>:
   14062:	55                   	push   %ebp
   14063:	89 e5                	mov    %esp,%ebp
   14065:	83 ec 18             	sub    $0x18,%esp
   14068:	8b 45 08             	mov    0x8(%ebp),%eax
   1406b:	8b 80 50 04 00 00    	mov    0x450(%eax),%eax
   14071:	6b c0 6c             	imul   $0x6c,%eax,%eax
   14074:	05 c0 6c 03 00       	add    $0x36cc0,%eax
   14079:	89 45 f0             	mov    %eax,-0x10(%ebp)
   1407c:	8b 45 f0             	mov    -0x10(%ebp),%eax
   1407f:	83 c0 58             	add    $0x58,%eax
   14082:	83 ec 0c             	sub    $0xc,%esp
   14085:	50                   	push   %eax
   14086:	e8 54 3d 00 00       	call   17ddf <mutex_lock>
   1408b:	83 c4 10             	add    $0x10,%esp
   1408e:	8b 45 08             	mov    0x8(%ebp),%eax
   14091:	8d 90 00 04 00 00    	lea    0x400(%eax),%edx
   14097:	83 ec 08             	sub    $0x8,%esp
   1409a:	8d 45 eb             	lea    -0x15(%ebp),%eax
   1409d:	50                   	push   %eax
   1409e:	52                   	push   %edx
   1409f:	e8 2c 13 00 00       	call   153d0 <tty_fifo_get>
   140a4:	83 c4 10             	add    $0x10,%esp
   140a7:	89 45 ec             	mov    %eax,-0x14(%ebp)
   140aa:	83 7d ec 00          	cmpl   $0x0,-0x14(%ebp)
   140ae:	79 29                	jns    140d9 <console_write+0x77>
   140b0:	8b 45 f0             	mov    -0x10(%ebp),%eax
   140b3:	83 c0 58             	add    $0x58,%eax
   140b6:	83 ec 0c             	sub    $0xc,%esp
   140b9:	50                   	push   %eax
   140ba:	e8 b0 3d 00 00       	call   17e6f <mutex_unlock>
   140bf:	83 c4 10             	add    $0x10,%esp
   140c2:	8b 45 08             	mov    0x8(%ebp),%eax
   140c5:	8b 90 50 04 00 00    	mov    0x450(%eax),%edx
   140cb:	a1 20 70 03 00       	mov    0x37020,%eax
   140d0:	39 c2                	cmp    %eax,%edx
   140d2:	74 7f                	je     14153 <console_write+0xf1>
   140d4:	e9 88 00 00 00       	jmp    14161 <console_write+0xff>
   140d9:	8b 45 08             	mov    0x8(%ebp),%eax
   140dc:	05 28 04 00 00       	add    $0x428,%eax
   140e1:	83 ec 0c             	sub    $0xc,%esp
   140e4:	50                   	push   %eax
   140e5:	e8 d8 3e 00 00       	call   17fc2 <sem_notify>
   140ea:	83 c4 10             	add    $0x10,%esp
   140ed:	8b 45 f0             	mov    -0x10(%ebp),%eax
   140f0:	8b 00                	mov    (%eax),%eax
   140f2:	83 f8 01             	cmp    $0x1,%eax
   140f5:	74 24                	je     1411b <console_write+0xb9>
   140f7:	83 f8 01             	cmp    $0x1,%eax
   140fa:	72 07                	jb     14103 <console_write+0xa1>
   140fc:	83 f8 02             	cmp    $0x2,%eax
   140ff:	74 32                	je     14133 <console_write+0xd1>
   14101:	eb 47                	jmp    1414a <console_write+0xe8>
   14103:	0f b6 45 eb          	movzbl -0x15(%ebp),%eax
   14107:	0f be c0             	movsbl %al,%eax
   1410a:	83 ec 08             	sub    $0x8,%esp
   1410d:	50                   	push   %eax
   1410e:	ff 75 f0             	pushl  -0x10(%ebp)
   14111:	e8 33 fb ff ff       	call   13c49 <write_normal>
   14116:	83 c4 10             	add    $0x10,%esp
   14119:	eb 2f                	jmp    1414a <console_write+0xe8>
   1411b:	0f b6 45 eb          	movzbl -0x15(%ebp),%eax
   1411f:	0f be c0             	movsbl %al,%eax
   14122:	83 ec 08             	sub    $0x8,%esp
   14125:	50                   	push   %eax
   14126:	ff 75 f0             	pushl  -0x10(%ebp)
   14129:	e8 30 fc ff ff       	call   13d5e <write_esc>
   1412e:	83 c4 10             	add    $0x10,%esp
   14131:	eb 17                	jmp    1414a <console_write+0xe8>
   14133:	0f b6 45 eb          	movzbl -0x15(%ebp),%eax
   14137:	0f be c0             	movsbl %al,%eax
   1413a:	83 ec 08             	sub    $0x8,%esp
   1413d:	50                   	push   %eax
   1413e:	ff 75 f0             	pushl  -0x10(%ebp)
   14141:	e8 26 fe ff ff       	call   13f6c <write_esc_square>
   14146:	83 c4 10             	add    $0x10,%esp
   14149:	90                   	nop
   1414a:	83 45 f4 01          	addl   $0x1,-0xc(%ebp)
   1414e:	e9 3b ff ff ff       	jmp    1408e <console_write+0x2c>
   14153:	83 ec 0c             	sub    $0xc,%esp
   14156:	ff 75 f0             	pushl  -0x10(%ebp)
   14159:	e8 14 f5 ff ff       	call   13672 <update_cursor_pos>
   1415e:	83 c4 10             	add    $0x10,%esp
   14161:	8b 45 f4             	mov    -0xc(%ebp),%eax
   14164:	c9                   	leave  
   14165:	c3                   	ret    

00014166 <console_close>:
   14166:	55                   	push   %ebp
   14167:	89 e5                	mov    %esp,%ebp
   14169:	90                   	nop
   1416a:	5d                   	pop    %ebp
   1416b:	c3                   	ret    

0001416c <console_select>:
   1416c:	55                   	push   %ebp
   1416d:	89 e5                	mov    %esp,%ebp
   1416f:	83 ec 18             	sub    $0x18,%esp
   14172:	8b 45 08             	mov    0x8(%ebp),%eax
   14175:	6b c0 6c             	imul   $0x6c,%eax,%eax
   14178:	05 c0 6c 03 00       	add    $0x36cc0,%eax
   1417d:	89 45 f4             	mov    %eax,-0xc(%ebp)
   14180:	8b 45 f4             	mov    -0xc(%ebp),%eax
   14183:	8b 40 08             	mov    0x8(%eax),%eax
   14186:	85 c0                	test   %eax,%eax
   14188:	75 0e                	jne    14198 <console_select+0x2c>
   1418a:	83 ec 0c             	sub    $0xc,%esp
   1418d:	ff 75 08             	pushl  0x8(%ebp)
   14190:	e8 d4 f7 ff ff       	call   13969 <console_init>
   14195:	83 c4 10             	add    $0x10,%esp
   14198:	8b 45 f4             	mov    -0xc(%ebp),%eax
   1419b:	8b 40 0c             	mov    0xc(%eax),%eax
   1419e:	89 c2                	mov    %eax,%edx
   141a0:	8b 45 08             	mov    0x8(%ebp),%eax
   141a3:	0f af d0             	imul   %eax,%edx
   141a6:	8b 45 f4             	mov    -0xc(%ebp),%eax
   141a9:	8b 40 10             	mov    0x10(%eax),%eax
   141ac:	0f af c2             	imul   %edx,%eax
   141af:	66 89 45 f2          	mov    %ax,-0xe(%ebp)
   141b3:	83 ec 08             	sub    $0x8,%esp
   141b6:	6a 0c                	push   $0xc
   141b8:	68 d4 03 00 00       	push   $0x3d4
   141bd:	e8 1d f4 ff ff       	call   135df <outb>
   141c2:	83 c4 10             	add    $0x10,%esp
   141c5:	0f b7 45 f2          	movzwl -0xe(%ebp),%eax
   141c9:	66 c1 e8 08          	shr    $0x8,%ax
   141cd:	0f b6 c0             	movzbl %al,%eax
   141d0:	83 ec 08             	sub    $0x8,%esp
   141d3:	50                   	push   %eax
   141d4:	68 d5 03 00 00       	push   $0x3d5
   141d9:	e8 01 f4 ff ff       	call   135df <outb>
   141de:	83 c4 10             	add    $0x10,%esp
   141e1:	83 ec 08             	sub    $0x8,%esp
   141e4:	6a 0d                	push   $0xd
   141e6:	68 d4 03 00 00       	push   $0x3d4
   141eb:	e8 ef f3 ff ff       	call   135df <outb>
   141f0:	83 c4 10             	add    $0x10,%esp
   141f3:	0f b7 45 f2          	movzwl -0xe(%ebp),%eax
   141f7:	0f b6 c0             	movzbl %al,%eax
   141fa:	83 ec 08             	sub    $0x8,%esp
   141fd:	50                   	push   %eax
   141fe:	68 d5 03 00 00       	push   $0x3d5
   14203:	e8 d7 f3 ff ff       	call   135df <outb>
   14208:	83 c4 10             	add    $0x10,%esp
   1420b:	8b 45 08             	mov    0x8(%ebp),%eax
   1420e:	a3 20 70 03 00       	mov    %eax,0x37020
   14213:	83 ec 0c             	sub    $0xc,%esp
   14216:	ff 75 f4             	pushl  -0xc(%ebp)
   14219:	e8 54 f4 ff ff       	call   13672 <update_cursor_pos>
   1421e:	83 c4 10             	add    $0x10,%esp
   14221:	90                   	nop
   14222:	c9                   	leave  
   14223:	c3                   	ret    

00014224 <is_devid_valid>:
   14224:	55                   	push   %ebp
   14225:	89 e5                	mov    %esp,%ebp
   14227:	83 7d 08 00          	cmpl   $0x0,0x8(%ebp)
   1422b:	78 1e                	js     1424b <is_devid_valid+0x27>
   1422d:	83 7d 08 7f          	cmpl   $0x7f,0x8(%ebp)
   14231:	7f 18                	jg     1424b <is_devid_valid+0x27>
   14233:	8b 55 08             	mov    0x8(%ebp),%edx
   14236:	89 d0                	mov    %edx,%eax
   14238:	c1 e0 02             	shl    $0x2,%eax
   1423b:	01 d0                	add    %edx,%eax
   1423d:	c1 e0 02             	shl    $0x2,%eax
   14240:	05 40 70 03 00       	add    $0x37040,%eax
   14245:	8b 00                	mov    (%eax),%eax
   14247:	85 c0                	test   %eax,%eax
   14249:	75 07                	jne    14252 <is_devid_valid+0x2e>
   1424b:	b8 01 00 00 00       	mov    $0x1,%eax
   14250:	eb 05                	jmp    14257 <is_devid_valid+0x33>
   14252:	b8 00 00 00 00       	mov    $0x0,%eax
   14257:	5d                   	pop    %ebp
   14258:	c3                   	ret    

00014259 <dev_open>:
   14259:	55                   	push   %ebp
   1425a:	89 e5                	mov    %esp,%ebp
   1425c:	83 ec 28             	sub    $0x28,%esp
   1425f:	e8 35 f3 ff ff       	call   13599 <irq_enter_protection>
   14264:	89 45 e4             	mov    %eax,-0x1c(%ebp)
   14267:	c7 45 f4 00 00 00 00 	movl   $0x0,-0xc(%ebp)
   1426e:	c7 45 f0 00 00 00 00 	movl   $0x0,-0x10(%ebp)
   14275:	eb 68                	jmp    142df <dev_open+0x86>
   14277:	8b 55 f0             	mov    -0x10(%ebp),%edx
   1427a:	89 d0                	mov    %edx,%eax
   1427c:	c1 e0 02             	shl    $0x2,%eax
   1427f:	01 d0                	add    %edx,%eax
   14281:	c1 e0 02             	shl    $0x2,%eax
   14284:	05 40 70 03 00       	add    $0x37040,%eax
   14289:	89 45 d8             	mov    %eax,-0x28(%ebp)
   1428c:	8b 45 d8             	mov    -0x28(%ebp),%eax
   1428f:	8b 40 10             	mov    0x10(%eax),%eax
   14292:	85 c0                	test   %eax,%eax
   14294:	75 08                	jne    1429e <dev_open+0x45>
   14296:	8b 45 d8             	mov    -0x28(%ebp),%eax
   14299:	89 45 f4             	mov    %eax,-0xc(%ebp)
   1429c:	eb 3d                	jmp    142db <dev_open+0x82>
   1429e:	8b 45 d8             	mov    -0x28(%ebp),%eax
   142a1:	8b 00                	mov    (%eax),%eax
   142a3:	8b 40 20             	mov    0x20(%eax),%eax
   142a6:	39 45 08             	cmp    %eax,0x8(%ebp)
   142a9:	75 30                	jne    142db <dev_open+0x82>
   142ab:	8b 45 d8             	mov    -0x28(%ebp),%eax
   142ae:	8b 40 08             	mov    0x8(%eax),%eax
   142b1:	39 45 0c             	cmp    %eax,0xc(%ebp)
   142b4:	75 25                	jne    142db <dev_open+0x82>
   142b6:	8b 45 d8             	mov    -0x28(%ebp),%eax
   142b9:	8b 40 10             	mov    0x10(%eax),%eax
   142bc:	8d 50 01             	lea    0x1(%eax),%edx
   142bf:	8b 45 d8             	mov    -0x28(%ebp),%eax
   142c2:	89 50 10             	mov    %edx,0x10(%eax)
   142c5:	83 ec 0c             	sub    $0xc,%esp
   142c8:	ff 75 e4             	pushl  -0x1c(%ebp)
   142cb:	e8 e1 f2 ff ff       	call   135b1 <irq_leave_protection>
   142d0:	83 c4 10             	add    $0x10,%esp
   142d3:	8b 45 f0             	mov    -0x10(%ebp),%eax
   142d6:	e9 c8 00 00 00       	jmp    143a3 <dev_open+0x14a>
   142db:	83 45 f0 01          	addl   $0x1,-0x10(%ebp)
   142df:	8b 45 f0             	mov    -0x10(%ebp),%eax
   142e2:	83 f8 7f             	cmp    $0x7f,%eax
   142e5:	76 90                	jbe    14277 <dev_open+0x1e>
   142e7:	c7 45 ec 00 00 00 00 	movl   $0x0,-0x14(%ebp)
   142ee:	c7 45 e8 00 00 00 00 	movl   $0x0,-0x18(%ebp)
   142f5:	eb 24                	jmp    1431b <dev_open+0xc2>
   142f7:	8b 45 e8             	mov    -0x18(%ebp),%eax
   142fa:	8b 04 85 50 a0 01 00 	mov    0x1a050(,%eax,4),%eax
   14301:	89 45 e0             	mov    %eax,-0x20(%ebp)
   14304:	8b 45 e0             	mov    -0x20(%ebp),%eax
   14307:	8b 40 20             	mov    0x20(%eax),%eax
   1430a:	39 45 08             	cmp    %eax,0x8(%ebp)
   1430d:	75 08                	jne    14317 <dev_open+0xbe>
   1430f:	8b 45 e0             	mov    -0x20(%ebp),%eax
   14312:	89 45 ec             	mov    %eax,-0x14(%ebp)
   14315:	eb 0c                	jmp    14323 <dev_open+0xca>
   14317:	83 45 e8 01          	addl   $0x1,-0x18(%ebp)
   1431b:	8b 45 e8             	mov    -0x18(%ebp),%eax
   1431e:	83 f8 01             	cmp    $0x1,%eax
   14321:	76 d4                	jbe    142f7 <dev_open+0x9e>
   14323:	83 7d ec 00          	cmpl   $0x0,-0x14(%ebp)
   14327:	74 67                	je     14390 <dev_open+0x137>
   14329:	83 7d f4 00          	cmpl   $0x0,-0xc(%ebp)
   1432d:	74 61                	je     14390 <dev_open+0x137>
   1432f:	8b 45 f4             	mov    -0xc(%ebp),%eax
   14332:	8b 55 0c             	mov    0xc(%ebp),%edx
   14335:	89 50 08             	mov    %edx,0x8(%eax)
   14338:	8b 45 f4             	mov    -0xc(%ebp),%eax
   1433b:	8b 55 10             	mov    0x10(%ebp),%edx
   1433e:	89 50 0c             	mov    %edx,0xc(%eax)
   14341:	8b 45 f4             	mov    -0xc(%ebp),%eax
   14344:	8b 55 ec             	mov    -0x14(%ebp),%edx
   14347:	89 10                	mov    %edx,(%eax)
   14349:	8b 45 ec             	mov    -0x14(%ebp),%eax
   1434c:	8b 40 24             	mov    0x24(%eax),%eax
   1434f:	83 ec 0c             	sub    $0xc,%esp
   14352:	ff 75 f4             	pushl  -0xc(%ebp)
   14355:	ff d0                	call   *%eax
   14357:	83 c4 10             	add    $0x10,%esp
   1435a:	89 45 dc             	mov    %eax,-0x24(%ebp)
   1435d:	83 7d dc 00          	cmpl   $0x0,-0x24(%ebp)
   14361:	75 2d                	jne    14390 <dev_open+0x137>
   14363:	8b 45 f4             	mov    -0xc(%ebp),%eax
   14366:	c7 40 10 01 00 00 00 	movl   $0x1,0x10(%eax)
   1436d:	83 ec 0c             	sub    $0xc,%esp
   14370:	ff 75 e4             	pushl  -0x1c(%ebp)
   14373:	e8 39 f2 ff ff       	call   135b1 <irq_leave_protection>
   14378:	83 c4 10             	add    $0x10,%esp
   1437b:	8b 45 f4             	mov    -0xc(%ebp),%eax
   1437e:	ba 40 70 03 00       	mov    $0x37040,%edx
   14383:	29 d0                	sub    %edx,%eax
   14385:	c1 f8 02             	sar    $0x2,%eax
   14388:	69 c0 cd cc cc cc    	imul   $0xcccccccd,%eax,%eax
   1438e:	eb 13                	jmp    143a3 <dev_open+0x14a>
   14390:	83 ec 0c             	sub    $0xc,%esp
   14393:	ff 75 e4             	pushl  -0x1c(%ebp)
   14396:	e8 16 f2 ff ff       	call   135b1 <irq_leave_protection>
   1439b:	83 c4 10             	add    $0x10,%esp
   1439e:	b8 ff ff ff ff       	mov    $0xffffffff,%eax
   143a3:	c9                   	leave  
   143a4:	c3                   	ret    

000143a5 <dev_close>:
   143a5:	55                   	push   %ebp
   143a6:	89 e5                	mov    %esp,%ebp
   143a8:	83 ec 18             	sub    $0x18,%esp
   143ab:	ff 75 08             	pushl  0x8(%ebp)
   143ae:	e8 71 fe ff ff       	call   14224 <is_devid_valid>
   143b3:	83 c4 04             	add    $0x4,%esp
   143b6:	85 c0                	test   %eax,%eax
   143b8:	75 59                	jne    14413 <dev_close+0x6e>
   143ba:	8b 55 08             	mov    0x8(%ebp),%edx
   143bd:	89 d0                	mov    %edx,%eax
   143bf:	c1 e0 02             	shl    $0x2,%eax
   143c2:	01 d0                	add    %edx,%eax
   143c4:	c1 e0 02             	shl    $0x2,%eax
   143c7:	05 40 70 03 00       	add    $0x37040,%eax
   143cc:	89 45 f4             	mov    %eax,-0xc(%ebp)
   143cf:	e8 c5 f1 ff ff       	call   13599 <irq_enter_protection>
   143d4:	89 45 f0             	mov    %eax,-0x10(%ebp)
   143d7:	8b 45 f4             	mov    -0xc(%ebp),%eax
   143da:	8b 40 10             	mov    0x10(%eax),%eax
   143dd:	8d 50 ff             	lea    -0x1(%eax),%edx
   143e0:	8b 45 f4             	mov    -0xc(%ebp),%eax
   143e3:	89 50 10             	mov    %edx,0x10(%eax)
   143e6:	8b 45 f4             	mov    -0xc(%ebp),%eax
   143e9:	8b 40 10             	mov    0x10(%eax),%eax
   143ec:	85 c0                	test   %eax,%eax
   143ee:	75 12                	jne    14402 <dev_close+0x5d>
   143f0:	83 ec 04             	sub    $0x4,%esp
   143f3:	6a 14                	push   $0x14
   143f5:	6a 00                	push   $0x0
   143f7:	ff 75 f4             	pushl  -0xc(%ebp)
   143fa:	e8 5f 40 00 00       	call   1845e <kernel_memset>
   143ff:	83 c4 10             	add    $0x10,%esp
   14402:	83 ec 0c             	sub    $0xc,%esp
   14405:	ff 75 f0             	pushl  -0x10(%ebp)
   14408:	e8 a4 f1 ff ff       	call   135b1 <irq_leave_protection>
   1440d:	83 c4 10             	add    $0x10,%esp
   14410:	90                   	nop
   14411:	eb 01                	jmp    14414 <dev_close+0x6f>
   14413:	90                   	nop
   14414:	c9                   	leave  
   14415:	c3                   	ret    

00014416 <dev_read>:
   14416:	55                   	push   %ebp
   14417:	89 e5                	mov    %esp,%ebp
   14419:	83 ec 18             	sub    $0x18,%esp
   1441c:	ff 75 08             	pushl  0x8(%ebp)
   1441f:	e8 00 fe ff ff       	call   14224 <is_devid_valid>
   14424:	83 c4 04             	add    $0x4,%esp
   14427:	85 c0                	test   %eax,%eax
   14429:	74 07                	je     14432 <dev_read+0x1c>
   1442b:	b8 ff ff ff ff       	mov    $0xffffffff,%eax
   14430:	eb 2e                	jmp    14460 <dev_read+0x4a>
   14432:	8b 55 08             	mov    0x8(%ebp),%edx
   14435:	89 d0                	mov    %edx,%eax
   14437:	c1 e0 02             	shl    $0x2,%eax
   1443a:	01 d0                	add    %edx,%eax
   1443c:	c1 e0 02             	shl    $0x2,%eax
   1443f:	05 40 70 03 00       	add    $0x37040,%eax
   14444:	89 45 f4             	mov    %eax,-0xc(%ebp)
   14447:	8b 45 f4             	mov    -0xc(%ebp),%eax
   1444a:	8b 00                	mov    (%eax),%eax
   1444c:	8b 40 2c             	mov    0x2c(%eax),%eax
   1444f:	ff 75 14             	pushl  0x14(%ebp)
   14452:	ff 75 10             	pushl  0x10(%ebp)
   14455:	ff 75 0c             	pushl  0xc(%ebp)
   14458:	ff 75 f4             	pushl  -0xc(%ebp)
   1445b:	ff d0                	call   *%eax
   1445d:	83 c4 10             	add    $0x10,%esp
   14460:	c9                   	leave  
   14461:	c3                   	ret    

00014462 <dev_write>:
   14462:	55                   	push   %ebp
   14463:	89 e5                	mov    %esp,%ebp
   14465:	83 ec 18             	sub    $0x18,%esp
   14468:	ff 75 08             	pushl  0x8(%ebp)
   1446b:	e8 b4 fd ff ff       	call   14224 <is_devid_valid>
   14470:	83 c4 04             	add    $0x4,%esp
   14473:	85 c0                	test   %eax,%eax
   14475:	74 07                	je     1447e <dev_write+0x1c>
   14477:	b8 ff ff ff ff       	mov    $0xffffffff,%eax
   1447c:	eb 2e                	jmp    144ac <dev_write+0x4a>
   1447e:	8b 55 08             	mov    0x8(%ebp),%edx
   14481:	89 d0                	mov    %edx,%eax
   14483:	c1 e0 02             	shl    $0x2,%eax
   14486:	01 d0                	add    %edx,%eax
   14488:	c1 e0 02             	shl    $0x2,%eax
   1448b:	05 40 70 03 00       	add    $0x37040,%eax
   14490:	89 45 f4             	mov    %eax,-0xc(%ebp)
   14493:	8b 45 f4             	mov    -0xc(%ebp),%eax
   14496:	8b 00                	mov    (%eax),%eax
   14498:	8b 40 30             	mov    0x30(%eax),%eax
   1449b:	ff 75 14             	pushl  0x14(%ebp)
   1449e:	ff 75 10             	pushl  0x10(%ebp)
   144a1:	ff 75 0c             	pushl  0xc(%ebp)
   144a4:	ff 75 f4             	pushl  -0xc(%ebp)
   144a7:	ff d0                	call   *%eax
   144a9:	83 c4 10             	add    $0x10,%esp
   144ac:	c9                   	leave  
   144ad:	c3                   	ret    

000144ae <dev_control>:
   144ae:	55                   	push   %ebp
   144af:	89 e5                	mov    %esp,%ebp
   144b1:	83 ec 18             	sub    $0x18,%esp
   144b4:	ff 75 08             	pushl  0x8(%ebp)
   144b7:	e8 68 fd ff ff       	call   14224 <is_devid_valid>
   144bc:	83 c4 04             	add    $0x4,%esp
   144bf:	85 c0                	test   %eax,%eax
   144c1:	74 07                	je     144ca <dev_control+0x1c>
   144c3:	b8 ff ff ff ff       	mov    $0xffffffff,%eax
   144c8:	eb 2e                	jmp    144f8 <dev_control+0x4a>
   144ca:	8b 55 08             	mov    0x8(%ebp),%edx
   144cd:	89 d0                	mov    %edx,%eax
   144cf:	c1 e0 02             	shl    $0x2,%eax
   144d2:	01 d0                	add    %edx,%eax
   144d4:	c1 e0 02             	shl    $0x2,%eax
   144d7:	05 40 70 03 00       	add    $0x37040,%eax
   144dc:	89 45 f4             	mov    %eax,-0xc(%ebp)
   144df:	8b 45 f4             	mov    -0xc(%ebp),%eax
   144e2:	8b 00                	mov    (%eax),%eax
   144e4:	8b 40 34             	mov    0x34(%eax),%eax
   144e7:	ff 75 14             	pushl  0x14(%ebp)
   144ea:	ff 75 10             	pushl  0x10(%ebp)
   144ed:	ff 75 0c             	pushl  0xc(%ebp)
   144f0:	ff 75 f4             	pushl  -0xc(%ebp)
   144f3:	ff d0                	call   *%eax
   144f5:	83 c4 10             	add    $0x10,%esp
   144f8:	c9                   	leave  
   144f9:	c3                   	ret    

000144fa <inb>:
   144fa:	55                   	push   %ebp
   144fb:	89 e5                	mov    %esp,%ebp
   144fd:	83 ec 14             	sub    $0x14,%esp
   14500:	8b 45 08             	mov    0x8(%ebp),%eax
   14503:	66 89 45 ec          	mov    %ax,-0x14(%ebp)
   14507:	0f b7 45 ec          	movzwl -0x14(%ebp),%eax
   1450b:	89 c2                	mov    %eax,%edx
   1450d:	ec                   	in     (%dx),%al
   1450e:	88 45 ff             	mov    %al,-0x1(%ebp)
   14511:	0f b6 45 ff          	movzbl -0x1(%ebp),%eax
   14515:	c9                   	leave  
   14516:	c3                   	ret    

00014517 <inw>:
   14517:	55                   	push   %ebp
   14518:	89 e5                	mov    %esp,%ebp
   1451a:	83 ec 14             	sub    $0x14,%esp
   1451d:	8b 45 08             	mov    0x8(%ebp),%eax
   14520:	66 89 45 ec          	mov    %ax,-0x14(%ebp)
   14524:	0f b7 45 ec          	movzwl -0x14(%ebp),%eax
   14528:	89 c2                	mov    %eax,%edx
   1452a:	66 ed                	in     (%dx),%ax
   1452c:	66 89 45 fe          	mov    %ax,-0x2(%ebp)
   14530:	0f b7 45 fe          	movzwl -0x2(%ebp),%eax
   14534:	c9                   	leave  
   14535:	c3                   	ret    

00014536 <outb>:
   14536:	55                   	push   %ebp
   14537:	89 e5                	mov    %esp,%ebp
   14539:	83 ec 08             	sub    $0x8,%esp
   1453c:	8b 55 08             	mov    0x8(%ebp),%edx
   1453f:	8b 45 0c             	mov    0xc(%ebp),%eax
   14542:	66 89 55 fc          	mov    %dx,-0x4(%ebp)
   14546:	88 45 f8             	mov    %al,-0x8(%ebp)
   14549:	0f b7 55 fc          	movzwl -0x4(%ebp),%edx
   1454d:	0f b6 45 f8          	movzbl -0x8(%ebp),%eax
   14551:	ee                   	out    %al,(%dx)
   14552:	90                   	nop
   14553:	c9                   	leave  
   14554:	c3                   	ret    

00014555 <outw>:
   14555:	55                   	push   %ebp
   14556:	89 e5                	mov    %esp,%ebp
   14558:	83 ec 08             	sub    $0x8,%esp
   1455b:	8b 55 08             	mov    0x8(%ebp),%edx
   1455e:	8b 45 0c             	mov    0xc(%ebp),%eax
   14561:	66 89 55 fc          	mov    %dx,-0x4(%ebp)
   14565:	66 89 45 f8          	mov    %ax,-0x8(%ebp)
   14569:	0f b7 55 fc          	movzwl -0x4(%ebp),%edx
   1456d:	0f b7 45 f8          	movzwl -0x8(%ebp),%eax
   14571:	66 ef                	out    %ax,(%dx)
   14573:	90                   	nop
   14574:	c9                   	leave  
   14575:	c3                   	ret    

00014576 <disk_send_cmd>:
   14576:	55                   	push   %ebp
   14577:	89 e5                	mov    %esp,%ebp
   14579:	8b 45 08             	mov    0x8(%ebp),%eax
   1457c:	8b 40 20             	mov    0x20(%eax),%eax
   1457f:	83 c8 e0             	or     $0xffffffe0,%eax
   14582:	0f b6 d0             	movzbl %al,%edx
   14585:	8b 45 08             	mov    0x8(%ebp),%eax
   14588:	0f b7 40 24          	movzwl 0x24(%eax),%eax
   1458c:	83 c0 06             	add    $0x6,%eax
   1458f:	0f b7 c0             	movzwl %ax,%eax
   14592:	52                   	push   %edx
   14593:	50                   	push   %eax
   14594:	e8 9d ff ff ff       	call   14536 <outb>
   14599:	83 c4 08             	add    $0x8,%esp
   1459c:	8b 45 10             	mov    0x10(%ebp),%eax
   1459f:	c1 e8 08             	shr    $0x8,%eax
   145a2:	0f b6 d0             	movzbl %al,%edx
   145a5:	8b 45 08             	mov    0x8(%ebp),%eax
   145a8:	0f b7 40 24          	movzwl 0x24(%eax),%eax
   145ac:	83 c0 02             	add    $0x2,%eax
   145af:	0f b7 c0             	movzwl %ax,%eax
   145b2:	52                   	push   %edx
   145b3:	50                   	push   %eax
   145b4:	e8 7d ff ff ff       	call   14536 <outb>
   145b9:	83 c4 08             	add    $0x8,%esp
   145bc:	8b 45 0c             	mov    0xc(%ebp),%eax
   145bf:	c1 e8 18             	shr    $0x18,%eax
   145c2:	0f b6 d0             	movzbl %al,%edx
   145c5:	8b 45 08             	mov    0x8(%ebp),%eax
   145c8:	0f b7 40 24          	movzwl 0x24(%eax),%eax
   145cc:	83 c0 03             	add    $0x3,%eax
   145cf:	0f b7 c0             	movzwl %ax,%eax
   145d2:	52                   	push   %edx
   145d3:	50                   	push   %eax
   145d4:	e8 5d ff ff ff       	call   14536 <outb>
   145d9:	83 c4 08             	add    $0x8,%esp
   145dc:	8b 45 08             	mov    0x8(%ebp),%eax
   145df:	0f b7 40 24          	movzwl 0x24(%eax),%eax
   145e3:	83 c0 04             	add    $0x4,%eax
   145e6:	0f b7 c0             	movzwl %ax,%eax
   145e9:	6a 00                	push   $0x0
   145eb:	50                   	push   %eax
   145ec:	e8 45 ff ff ff       	call   14536 <outb>
   145f1:	83 c4 08             	add    $0x8,%esp
   145f4:	8b 45 08             	mov    0x8(%ebp),%eax
   145f7:	0f b7 40 24          	movzwl 0x24(%eax),%eax
   145fb:	83 c0 05             	add    $0x5,%eax
   145fe:	0f b7 c0             	movzwl %ax,%eax
   14601:	6a 00                	push   $0x0
   14603:	50                   	push   %eax
   14604:	e8 2d ff ff ff       	call   14536 <outb>
   14609:	83 c4 08             	add    $0x8,%esp
   1460c:	8b 45 10             	mov    0x10(%ebp),%eax
   1460f:	0f b6 d0             	movzbl %al,%edx
   14612:	8b 45 08             	mov    0x8(%ebp),%eax
   14615:	0f b7 40 24          	movzwl 0x24(%eax),%eax
   14619:	83 c0 02             	add    $0x2,%eax
   1461c:	0f b7 c0             	movzwl %ax,%eax
   1461f:	52                   	push   %edx
   14620:	50                   	push   %eax
   14621:	e8 10 ff ff ff       	call   14536 <outb>
   14626:	83 c4 08             	add    $0x8,%esp
   14629:	8b 45 0c             	mov    0xc(%ebp),%eax
   1462c:	0f b6 d0             	movzbl %al,%edx
   1462f:	8b 45 08             	mov    0x8(%ebp),%eax
   14632:	0f b7 40 24          	movzwl 0x24(%eax),%eax
   14636:	83 c0 03             	add    $0x3,%eax
   14639:	0f b7 c0             	movzwl %ax,%eax
   1463c:	52                   	push   %edx
   1463d:	50                   	push   %eax
   1463e:	e8 f3 fe ff ff       	call   14536 <outb>
   14643:	83 c4 08             	add    $0x8,%esp
   14646:	8b 45 0c             	mov    0xc(%ebp),%eax
   14649:	c1 e8 08             	shr    $0x8,%eax
   1464c:	0f b6 d0             	movzbl %al,%edx
   1464f:	8b 45 08             	mov    0x8(%ebp),%eax
   14652:	0f b7 40 24          	movzwl 0x24(%eax),%eax
   14656:	83 c0 04             	add    $0x4,%eax
   14659:	0f b7 c0             	movzwl %ax,%eax
   1465c:	52                   	push   %edx
   1465d:	50                   	push   %eax
   1465e:	e8 d3 fe ff ff       	call   14536 <outb>
   14663:	83 c4 08             	add    $0x8,%esp
   14666:	8b 45 0c             	mov    0xc(%ebp),%eax
   14669:	c1 e8 10             	shr    $0x10,%eax
   1466c:	0f b6 d0             	movzbl %al,%edx
   1466f:	8b 45 08             	mov    0x8(%ebp),%eax
   14672:	0f b7 40 24          	movzwl 0x24(%eax),%eax
   14676:	83 c0 05             	add    $0x5,%eax
   14679:	0f b7 c0             	movzwl %ax,%eax
   1467c:	52                   	push   %edx
   1467d:	50                   	push   %eax
   1467e:	e8 b3 fe ff ff       	call   14536 <outb>
   14683:	83 c4 08             	add    $0x8,%esp
   14686:	8b 45 14             	mov    0x14(%ebp),%eax
   14689:	0f b6 d0             	movzbl %al,%edx
   1468c:	8b 45 08             	mov    0x8(%ebp),%eax
   1468f:	0f b7 40 24          	movzwl 0x24(%eax),%eax
   14693:	83 c0 07             	add    $0x7,%eax
   14696:	0f b7 c0             	movzwl %ax,%eax
   14699:	52                   	push   %edx
   1469a:	50                   	push   %eax
   1469b:	e8 96 fe ff ff       	call   14536 <outb>
   146a0:	83 c4 08             	add    $0x8,%esp
   146a3:	90                   	nop
   146a4:	c9                   	leave  
   146a5:	c3                   	ret    

000146a6 <disk_read_data>:
   146a6:	55                   	push   %ebp
   146a7:	89 e5                	mov    %esp,%ebp
   146a9:	53                   	push   %ebx
   146aa:	83 ec 10             	sub    $0x10,%esp
   146ad:	8b 45 0c             	mov    0xc(%ebp),%eax
   146b0:	89 45 f8             	mov    %eax,-0x8(%ebp)
   146b3:	c7 45 f4 00 00 00 00 	movl   $0x0,-0xc(%ebp)
   146ba:	eb 23                	jmp    146df <disk_read_data+0x39>
   146bc:	8b 45 08             	mov    0x8(%ebp),%eax
   146bf:	0f b7 40 24          	movzwl 0x24(%eax),%eax
   146c3:	0f b7 c0             	movzwl %ax,%eax
   146c6:	8b 5d f8             	mov    -0x8(%ebp),%ebx
   146c9:	8d 53 02             	lea    0x2(%ebx),%edx
   146cc:	89 55 f8             	mov    %edx,-0x8(%ebp)
   146cf:	50                   	push   %eax
   146d0:	e8 42 fe ff ff       	call   14517 <inw>
   146d5:	83 c4 04             	add    $0x4,%esp
   146d8:	66 89 03             	mov    %ax,(%ebx)
   146db:	83 45 f4 01          	addl   $0x1,-0xc(%ebp)
   146df:	8b 45 10             	mov    0x10(%ebp),%eax
   146e2:	89 c2                	mov    %eax,%edx
   146e4:	c1 ea 1f             	shr    $0x1f,%edx
   146e7:	01 d0                	add    %edx,%eax
   146e9:	d1 f8                	sar    %eax
   146eb:	39 45 f4             	cmp    %eax,-0xc(%ebp)
   146ee:	7c cc                	jl     146bc <disk_read_data+0x16>
   146f0:	90                   	nop
   146f1:	8b 5d fc             	mov    -0x4(%ebp),%ebx
   146f4:	c9                   	leave  
   146f5:	c3                   	ret    

000146f6 <disk_wait_data>:
   146f6:	55                   	push   %ebp
   146f7:	89 e5                	mov    %esp,%ebp
   146f9:	83 ec 10             	sub    $0x10,%esp
   146fc:	8b 45 08             	mov    0x8(%ebp),%eax
   146ff:	0f b7 40 24          	movzwl 0x24(%eax),%eax
   14703:	83 c0 07             	add    $0x7,%eax
   14706:	0f b7 c0             	movzwl %ax,%eax
   14709:	50                   	push   %eax
   1470a:	e8 eb fd ff ff       	call   144fa <inb>
   1470f:	83 c4 04             	add    $0x4,%esp
   14712:	88 45 ff             	mov    %al,-0x1(%ebp)
   14715:	0f b6 45 ff          	movzbl -0x1(%ebp),%eax
   14719:	25 89 00 00 00       	and    $0x89,%eax
   1471e:	3d 80 00 00 00       	cmp    $0x80,%eax
   14723:	75 02                	jne    14727 <disk_wait_data+0x31>
   14725:	eb d5                	jmp    146fc <disk_wait_data+0x6>
   14727:	90                   	nop
   14728:	0f b6 45 ff          	movzbl -0x1(%ebp),%eax
   1472c:	83 e0 01             	and    $0x1,%eax
   1472f:	85 c0                	test   %eax,%eax
   14731:	74 07                	je     1473a <disk_wait_data+0x44>
   14733:	b8 ff ff ff ff       	mov    $0xffffffff,%eax
   14738:	eb 05                	jmp    1473f <disk_wait_data+0x49>
   1473a:	b8 00 00 00 00       	mov    $0x0,%eax
   1473f:	c9                   	leave  
   14740:	c3                   	ret    

00014741 <disk_write_data>:
   14741:	55                   	push   %ebp
   14742:	89 e5                	mov    %esp,%ebp
   14744:	83 ec 10             	sub    $0x10,%esp
   14747:	8b 45 0c             	mov    0xc(%ebp),%eax
   1474a:	89 45 fc             	mov    %eax,-0x4(%ebp)
   1474d:	c7 45 f8 00 00 00 00 	movl   $0x0,-0x8(%ebp)
   14754:	eb 27                	jmp    1477d <disk_write_data+0x3c>
   14756:	8b 45 fc             	mov    -0x4(%ebp),%eax
   14759:	8d 50 02             	lea    0x2(%eax),%edx
   1475c:	89 55 fc             	mov    %edx,-0x4(%ebp)
   1475f:	0f b7 00             	movzwl (%eax),%eax
   14762:	0f b7 d0             	movzwl %ax,%edx
   14765:	8b 45 08             	mov    0x8(%ebp),%eax
   14768:	0f b7 40 24          	movzwl 0x24(%eax),%eax
   1476c:	0f b7 c0             	movzwl %ax,%eax
   1476f:	52                   	push   %edx
   14770:	50                   	push   %eax
   14771:	e8 df fd ff ff       	call   14555 <outw>
   14776:	83 c4 08             	add    $0x8,%esp
   14779:	83 45 f8 01          	addl   $0x1,-0x8(%ebp)
   1477d:	8b 45 10             	mov    0x10(%ebp),%eax
   14780:	89 c2                	mov    %eax,%edx
   14782:	c1 ea 1f             	shr    $0x1f,%edx
   14785:	01 d0                	add    %edx,%eax
   14787:	d1 f8                	sar    %eax
   14789:	39 45 f8             	cmp    %eax,-0x8(%ebp)
   1478c:	7c c8                	jl     14756 <disk_write_data+0x15>
   1478e:	90                   	nop
   1478f:	c9                   	leave  
   14790:	c3                   	ret    

00014791 <printf_disk_info>:
   14791:	55                   	push   %ebp
   14792:	89 e5                	mov    %esp,%ebp
   14794:	53                   	push   %ebx
   14795:	83 ec 14             	sub    $0x14,%esp
   14798:	8b 45 08             	mov    0x8(%ebp),%eax
   1479b:	83 ec 08             	sub    $0x8,%esp
   1479e:	50                   	push   %eax
   1479f:	68 e0 94 01 00       	push   $0x194e0
   147a4:	e8 f4 42 00 00       	call   18a9d <log_printf>
   147a9:	83 c4 10             	add    $0x10,%esp
   147ac:	8b 45 08             	mov    0x8(%ebp),%eax
   147af:	0f b7 40 24          	movzwl 0x24(%eax),%eax
   147b3:	0f b7 c0             	movzwl %ax,%eax
   147b6:	83 ec 08             	sub    $0x8,%esp
   147b9:	50                   	push   %eax
   147ba:	68 e4 94 01 00       	push   $0x194e4
   147bf:	e8 d9 42 00 00       	call   18a9d <log_printf>
   147c4:	83 c4 10             	add    $0x10,%esp
   147c7:	8b 45 08             	mov    0x8(%ebp),%eax
   147ca:	8b 50 30             	mov    0x30(%eax),%edx
   147cd:	8b 45 08             	mov    0x8(%ebp),%eax
   147d0:	8b 40 2c             	mov    0x2c(%eax),%eax
   147d3:	0f af c2             	imul   %edx,%eax
   147d6:	c1 e8 14             	shr    $0x14,%eax
   147d9:	83 ec 08             	sub    $0x8,%esp
   147dc:	50                   	push   %eax
   147dd:	68 f3 94 01 00       	push   $0x194f3
   147e2:	e8 b6 42 00 00       	call   18a9d <log_printf>
   147e7:	83 c4 10             	add    $0x10,%esp
   147ea:	83 ec 0c             	sub    $0xc,%esp
   147ed:	68 04 95 01 00       	push   $0x19504
   147f2:	e8 a6 42 00 00       	call   18a9d <log_printf>
   147f7:	83 c4 10             	add    $0x10,%esp
   147fa:	c7 45 f4 00 00 00 00 	movl   $0x0,-0xc(%ebp)
   14801:	eb 4e                	jmp    14851 <printf_disk_info+0xc0>
   14803:	8b 45 08             	mov    0x8(%ebp),%eax
   14806:	8d 48 34             	lea    0x34(%eax),%ecx
   14809:	8b 55 f4             	mov    -0xc(%ebp),%edx
   1480c:	89 d0                	mov    %edx,%eax
   1480e:	01 c0                	add    %eax,%eax
   14810:	01 d0                	add    %edx,%eax
   14812:	c1 e0 04             	shl    $0x4,%eax
   14815:	01 c8                	add    %ecx,%eax
   14817:	89 45 f0             	mov    %eax,-0x10(%ebp)
   1481a:	8b 45 f0             	mov    -0x10(%ebp),%eax
   1481d:	8b 40 24             	mov    0x24(%eax),%eax
   14820:	85 c0                	test   %eax,%eax
   14822:	74 29                	je     1484d <printf_disk_info+0xbc>
   14824:	8b 45 f0             	mov    -0x10(%ebp),%eax
   14827:	8b 58 2c             	mov    0x2c(%eax),%ebx
   1482a:	8b 45 f0             	mov    -0x10(%ebp),%eax
   1482d:	8b 48 28             	mov    0x28(%eax),%ecx
   14830:	8b 45 f0             	mov    -0x10(%ebp),%eax
   14833:	8b 50 24             	mov    0x24(%eax),%edx
   14836:	8b 45 f0             	mov    -0x10(%ebp),%eax
   14839:	83 ec 0c             	sub    $0xc,%esp
   1483c:	53                   	push   %ebx
   1483d:	51                   	push   %ecx
   1483e:	52                   	push   %edx
   1483f:	50                   	push   %eax
   14840:	68 14 95 01 00       	push   $0x19514
   14845:	e8 53 42 00 00       	call   18a9d <log_printf>
   1484a:	83 c4 20             	add    $0x20,%esp
   1484d:	83 45 f4 01          	addl   $0x1,-0xc(%ebp)
   14851:	83 7d f4 04          	cmpl   $0x4,-0xc(%ebp)
   14855:	7e ac                	jle    14803 <printf_disk_info+0x72>
   14857:	90                   	nop
   14858:	8b 5d fc             	mov    -0x4(%ebp),%ebx
   1485b:	c9                   	leave  
   1485c:	c3                   	ret    

0001485d <detect_part_info>:
   1485d:	55                   	push   %ebp
   1485e:	89 e5                	mov    %esp,%ebp
   14860:	81 ec 18 02 00 00    	sub    $0x218,%esp
   14866:	6a 24                	push   $0x24
   14868:	6a 01                	push   $0x1
   1486a:	6a 00                	push   $0x0
   1486c:	ff 75 08             	pushl  0x8(%ebp)
   1486f:	e8 02 fd ff ff       	call   14576 <disk_send_cmd>
   14874:	83 c4 10             	add    $0x10,%esp
   14877:	ff 75 08             	pushl  0x8(%ebp)
   1487a:	e8 77 fe ff ff       	call   146f6 <disk_wait_data>
   1487f:	83 c4 04             	add    $0x4,%esp
   14882:	89 45 e8             	mov    %eax,-0x18(%ebp)
   14885:	83 7d e8 00          	cmpl   $0x0,-0x18(%ebp)
   14889:	79 1e                	jns    148a9 <detect_part_info+0x4c>
   1488b:	8b 45 08             	mov    0x8(%ebp),%eax
   1488e:	83 ec 08             	sub    $0x8,%esp
   14891:	50                   	push   %eax
   14892:	68 42 95 01 00       	push   $0x19542
   14897:	e8 01 42 00 00       	call   18a9d <log_printf>
   1489c:	83 c4 10             	add    $0x10,%esp
   1489f:	b8 ff ff ff ff       	mov    $0xffffffff,%eax
   148a4:	e9 cd 00 00 00       	jmp    14976 <detect_part_info+0x119>
   148a9:	83 ec 04             	sub    $0x4,%esp
   148ac:	68 00 02 00 00       	push   $0x200
   148b1:	8d 85 e8 fd ff ff    	lea    -0x218(%ebp),%eax
   148b7:	50                   	push   %eax
   148b8:	ff 75 08             	pushl  0x8(%ebp)
   148bb:	e8 e6 fd ff ff       	call   146a6 <disk_read_data>
   148c0:	83 c4 10             	add    $0x10,%esp
   148c3:	8d 85 e8 fd ff ff    	lea    -0x218(%ebp),%eax
   148c9:	05 be 01 00 00       	add    $0x1be,%eax
   148ce:	89 45 f4             	mov    %eax,-0xc(%ebp)
   148d1:	8b 45 08             	mov    0x8(%ebp),%eax
   148d4:	83 c0 34             	add    $0x34,%eax
   148d7:	83 c0 30             	add    $0x30,%eax
   148da:	89 45 f0             	mov    %eax,-0x10(%ebp)
   148dd:	c7 45 ec 00 00 00 00 	movl   $0x0,-0x14(%ebp)
   148e4:	e9 83 00 00 00       	jmp    1496c <detect_part_info+0x10f>
   148e9:	8b 45 f4             	mov    -0xc(%ebp),%eax
   148ec:	0f b6 40 04          	movzbl 0x4(%eax),%eax
   148f0:	0f b6 d0             	movzbl %al,%edx
   148f3:	8b 45 f0             	mov    -0x10(%ebp),%eax
   148f6:	89 50 24             	mov    %edx,0x24(%eax)
   148f9:	8b 45 f0             	mov    -0x10(%ebp),%eax
   148fc:	8b 40 24             	mov    0x24(%eax),%eax
   148ff:	85 c0                	test   %eax,%eax
   14901:	75 20                	jne    14923 <detect_part_info+0xc6>
   14903:	8b 45 f0             	mov    -0x10(%ebp),%eax
   14906:	c7 40 2c 00 00 00 00 	movl   $0x0,0x2c(%eax)
   1490d:	8b 45 f0             	mov    -0x10(%ebp),%eax
   14910:	c7 40 28 00 00 00 00 	movl   $0x0,0x28(%eax)
   14917:	8b 45 f0             	mov    -0x10(%ebp),%eax
   1491a:	c7 40 20 00 00 00 00 	movl   $0x0,0x20(%eax)
   14921:	eb 3d                	jmp    14960 <detect_part_info+0x103>
   14923:	8b 45 f4             	mov    -0xc(%ebp),%eax
   14926:	8b 50 08             	mov    0x8(%eax),%edx
   14929:	8b 45 f0             	mov    -0x10(%ebp),%eax
   1492c:	89 50 28             	mov    %edx,0x28(%eax)
   1492f:	8b 45 f4             	mov    -0xc(%ebp),%eax
   14932:	8b 50 0c             	mov    0xc(%eax),%edx
   14935:	8b 45 f0             	mov    -0x10(%ebp),%eax
   14938:	89 50 2c             	mov    %edx,0x2c(%eax)
   1493b:	8b 45 ec             	mov    -0x14(%ebp),%eax
   1493e:	8d 48 01             	lea    0x1(%eax),%ecx
   14941:	8b 55 08             	mov    0x8(%ebp),%edx
   14944:	8b 45 f0             	mov    -0x10(%ebp),%eax
   14947:	51                   	push   %ecx
   14948:	52                   	push   %edx
   14949:	68 55 95 01 00       	push   $0x19555
   1494e:	50                   	push   %eax
   1494f:	e8 e3 3c 00 00       	call   18637 <kernel_sprintf>
   14954:	83 c4 10             	add    $0x10,%esp
   14957:	8b 45 f0             	mov    -0x10(%ebp),%eax
   1495a:	8b 55 08             	mov    0x8(%ebp),%edx
   1495d:	89 50 20             	mov    %edx,0x20(%eax)
   14960:	83 45 ec 01          	addl   $0x1,-0x14(%ebp)
   14964:	83 45 f4 10          	addl   $0x10,-0xc(%ebp)
   14968:	83 45 f0 30          	addl   $0x30,-0x10(%ebp)
   1496c:	83 7d ec 03          	cmpl   $0x3,-0x14(%ebp)
   14970:	0f 8e 73 ff ff ff    	jle    148e9 <detect_part_info+0x8c>
   14976:	c9                   	leave  
   14977:	c3                   	ret    

00014978 <identify_disk>:
   14978:	55                   	push   %ebp
   14979:	89 e5                	mov    %esp,%ebp
   1497b:	81 ec 18 02 00 00    	sub    $0x218,%esp
   14981:	68 ec 00 00 00       	push   $0xec
   14986:	6a 00                	push   $0x0
   14988:	6a 00                	push   $0x0
   1498a:	ff 75 08             	pushl  0x8(%ebp)
   1498d:	e8 e4 fb ff ff       	call   14576 <disk_send_cmd>
   14992:	83 c4 10             	add    $0x10,%esp
   14995:	8b 45 08             	mov    0x8(%ebp),%eax
   14998:	0f b7 40 24          	movzwl 0x24(%eax),%eax
   1499c:	83 c0 07             	add    $0x7,%eax
   1499f:	0f b7 c0             	movzwl %ax,%eax
   149a2:	50                   	push   %eax
   149a3:	e8 52 fb ff ff       	call   144fa <inb>
   149a8:	83 c4 04             	add    $0x4,%esp
   149ab:	0f b6 c0             	movzbl %al,%eax
   149ae:	89 45 f4             	mov    %eax,-0xc(%ebp)
   149b1:	83 7d f4 00          	cmpl   $0x0,-0xc(%ebp)
   149b5:	75 1e                	jne    149d5 <identify_disk+0x5d>
   149b7:	8b 45 08             	mov    0x8(%ebp),%eax
   149ba:	83 ec 08             	sub    $0x8,%esp
   149bd:	50                   	push   %eax
   149be:	68 5a 95 01 00       	push   $0x1955a
   149c3:	e8 d5 40 00 00       	call   18a9d <log_printf>
   149c8:	83 c4 10             	add    $0x10,%esp
   149cb:	b8 ff ff ff ff       	mov    $0xffffffff,%eax
   149d0:	e9 c1 00 00 00       	jmp    14a96 <identify_disk+0x11e>
   149d5:	83 ec 0c             	sub    $0xc,%esp
   149d8:	ff 75 08             	pushl  0x8(%ebp)
   149db:	e8 16 fd ff ff       	call   146f6 <disk_wait_data>
   149e0:	83 c4 10             	add    $0x10,%esp
   149e3:	89 45 f4             	mov    %eax,-0xc(%ebp)
   149e6:	83 7d f4 00          	cmpl   $0x0,-0xc(%ebp)
   149ea:	79 1e                	jns    14a0a <identify_disk+0x92>
   149ec:	8b 45 08             	mov    0x8(%ebp),%eax
   149ef:	83 ec 08             	sub    $0x8,%esp
   149f2:	50                   	push   %eax
   149f3:	68 69 95 01 00       	push   $0x19569
   149f8:	e8 a0 40 00 00       	call   18a9d <log_printf>
   149fd:	83 c4 10             	add    $0x10,%esp
   14a00:	b8 ff ff ff ff       	mov    $0xffffffff,%eax
   14a05:	e9 8c 00 00 00       	jmp    14a96 <identify_disk+0x11e>
   14a0a:	83 ec 04             	sub    $0x4,%esp
   14a0d:	68 00 02 00 00       	push   $0x200
   14a12:	8d 85 f0 fd ff ff    	lea    -0x210(%ebp),%eax
   14a18:	50                   	push   %eax
   14a19:	ff 75 08             	pushl  0x8(%ebp)
   14a1c:	e8 85 fc ff ff       	call   146a6 <disk_read_data>
   14a21:	83 c4 10             	add    $0x10,%esp
   14a24:	8b 95 b8 fe ff ff    	mov    -0x148(%ebp),%edx
   14a2a:	8b 45 08             	mov    0x8(%ebp),%eax
   14a2d:	89 50 30             	mov    %edx,0x30(%eax)
   14a30:	8b 45 08             	mov    0x8(%ebp),%eax
   14a33:	c7 40 2c 00 02 00 00 	movl   $0x200,0x2c(%eax)
   14a3a:	8b 45 08             	mov    0x8(%ebp),%eax
   14a3d:	83 c0 34             	add    $0x34,%eax
   14a40:	89 45 f0             	mov    %eax,-0x10(%ebp)
   14a43:	8b 45 f0             	mov    -0x10(%ebp),%eax
   14a46:	8b 55 08             	mov    0x8(%ebp),%edx
   14a49:	89 50 20             	mov    %edx,0x20(%eax)
   14a4c:	8b 45 f0             	mov    -0x10(%ebp),%eax
   14a4f:	c7 40 28 00 00 00 00 	movl   $0x0,0x28(%eax)
   14a56:	8b 45 08             	mov    0x8(%ebp),%eax
   14a59:	8b 50 30             	mov    0x30(%eax),%edx
   14a5c:	8b 45 f0             	mov    -0x10(%ebp),%eax
   14a5f:	89 50 2c             	mov    %edx,0x2c(%eax)
   14a62:	8b 45 f0             	mov    -0x10(%ebp),%eax
   14a65:	c7 40 24 00 00 00 00 	movl   $0x0,0x24(%eax)
   14a6c:	8b 55 08             	mov    0x8(%ebp),%edx
   14a6f:	8b 45 f0             	mov    -0x10(%ebp),%eax
   14a72:	6a 00                	push   $0x0
   14a74:	52                   	push   %edx
   14a75:	68 55 95 01 00       	push   $0x19555
   14a7a:	50                   	push   %eax
   14a7b:	e8 b7 3b 00 00       	call   18637 <kernel_sprintf>
   14a80:	83 c4 10             	add    $0x10,%esp
   14a83:	83 ec 0c             	sub    $0xc,%esp
   14a86:	ff 75 08             	pushl  0x8(%ebp)
   14a89:	e8 cf fd ff ff       	call   1485d <detect_part_info>
   14a8e:	83 c4 10             	add    $0x10,%esp
   14a91:	b8 00 00 00 00       	mov    $0x0,%eax
   14a96:	c9                   	leave  
   14a97:	c3                   	ret    

00014a98 <disk_init>:
   14a98:	55                   	push   %ebp
   14a99:	89 e5                	mov    %esp,%ebp
   14a9b:	83 ec 18             	sub    $0x18,%esp
   14a9e:	c7 05 bc 7c 03 00 00 	movl   $0x0,0x37cbc
   14aa5:	00 00 00 
   14aa8:	83 ec 0c             	sub    $0xc,%esp
   14aab:	68 7c 95 01 00       	push   $0x1957c
   14ab0:	e8 e8 3f 00 00       	call   18a9d <log_printf>
   14ab5:	83 c4 10             	add    $0x10,%esp
   14ab8:	83 ec 04             	sub    $0x4,%esp
   14abb:	68 58 02 00 00       	push   $0x258
   14ac0:	6a 00                	push   $0x0
   14ac2:	68 40 7a 03 00       	push   $0x37a40
   14ac7:	e8 92 39 00 00       	call   1845e <kernel_memset>
   14acc:	83 c4 10             	add    $0x10,%esp
   14acf:	83 ec 0c             	sub    $0xc,%esp
   14ad2:	68 98 7c 03 00       	push   $0x37c98
   14ad7:	e8 d7 32 00 00       	call   17db3 <mutex_init>
   14adc:	83 c4 10             	add    $0x10,%esp
   14adf:	83 ec 08             	sub    $0x8,%esp
   14ae2:	6a 00                	push   $0x0
   14ae4:	68 ac 7c 03 00       	push   $0x37cac
   14ae9:	e8 46 34 00 00       	call   17f34 <sem_init>
   14aee:	83 c4 10             	add    $0x10,%esp
   14af1:	c7 45 f4 00 00 00 00 	movl   $0x0,-0xc(%ebp)
   14af8:	e9 90 00 00 00       	jmp    14b8d <disk_init+0xf5>
   14afd:	8b 45 f4             	mov    -0xc(%ebp),%eax
   14b00:	69 c0 2c 01 00 00    	imul   $0x12c,%eax,%eax
   14b06:	05 40 7a 03 00       	add    $0x37a40,%eax
   14b0b:	89 45 f0             	mov    %eax,-0x10(%ebp)
   14b0e:	8b 45 f4             	mov    -0xc(%ebp),%eax
   14b11:	8d 50 61             	lea    0x61(%eax),%edx
   14b14:	8b 45 f0             	mov    -0x10(%ebp),%eax
   14b17:	83 ec 04             	sub    $0x4,%esp
   14b1a:	52                   	push   %edx
   14b1b:	68 8a 95 01 00       	push   $0x1958a
   14b20:	50                   	push   %eax
   14b21:	e8 11 3b 00 00       	call   18637 <kernel_sprintf>
   14b26:	83 c4 10             	add    $0x10,%esp
   14b29:	83 7d f4 00          	cmpl   $0x0,-0xc(%ebp)
   14b2d:	75 07                	jne    14b36 <disk_init+0x9e>
   14b2f:	ba 00 00 00 00       	mov    $0x0,%edx
   14b34:	eb 05                	jmp    14b3b <disk_init+0xa3>
   14b36:	ba 10 00 00 00       	mov    $0x10,%edx
   14b3b:	8b 45 f0             	mov    -0x10(%ebp),%eax
   14b3e:	89 50 20             	mov    %edx,0x20(%eax)
   14b41:	8b 45 f0             	mov    -0x10(%ebp),%eax
   14b44:	66 c7 40 24 f0 01    	movw   $0x1f0,0x24(%eax)
   14b4a:	8b 45 f0             	mov    -0x10(%ebp),%eax
   14b4d:	c7 80 24 01 00 00 98 	movl   $0x37c98,0x124(%eax)
   14b54:	7c 03 00 
   14b57:	8b 45 f0             	mov    -0x10(%ebp),%eax
   14b5a:	c7 80 28 01 00 00 ac 	movl   $0x37cac,0x128(%eax)
   14b61:	7c 03 00 
   14b64:	83 ec 0c             	sub    $0xc,%esp
   14b67:	ff 75 f0             	pushl  -0x10(%ebp)
   14b6a:	e8 09 fe ff ff       	call   14978 <identify_disk>
   14b6f:	83 c4 10             	add    $0x10,%esp
   14b72:	89 45 ec             	mov    %eax,-0x14(%ebp)
   14b75:	83 7d ec 00          	cmpl   $0x0,-0x14(%ebp)
   14b79:	75 0e                	jne    14b89 <disk_init+0xf1>
   14b7b:	83 ec 0c             	sub    $0xc,%esp
   14b7e:	ff 75 f0             	pushl  -0x10(%ebp)
   14b81:	e8 0b fc ff ff       	call   14791 <printf_disk_info>
   14b86:	83 c4 10             	add    $0x10,%esp
   14b89:	83 45 f4 01          	addl   $0x1,-0xc(%ebp)
   14b8d:	83 7d f4 01          	cmpl   $0x1,-0xc(%ebp)
   14b91:	0f 8e 66 ff ff ff    	jle    14afd <disk_init+0x65>
   14b97:	90                   	nop
   14b98:	c9                   	leave  
   14b99:	c3                   	ret    

00014b9a <disk_open>:
   14b9a:	55                   	push   %ebp
   14b9b:	89 e5                	mov    %esp,%ebp
   14b9d:	83 ec 18             	sub    $0x18,%esp
   14ba0:	8b 45 08             	mov    0x8(%ebp),%eax
   14ba3:	8b 40 08             	mov    0x8(%eax),%eax
   14ba6:	c1 f8 04             	sar    $0x4,%eax
   14ba9:	83 e8 0a             	sub    $0xa,%eax
   14bac:	89 45 f4             	mov    %eax,-0xc(%ebp)
   14baf:	8b 45 08             	mov    0x8(%ebp),%eax
   14bb2:	8b 40 08             	mov    0x8(%eax),%eax
   14bb5:	83 e0 0f             	and    $0xf,%eax
   14bb8:	89 45 f0             	mov    %eax,-0x10(%ebp)
   14bbb:	83 7d f4 00          	cmpl   $0x0,-0xc(%ebp)
   14bbf:	78 06                	js     14bc7 <disk_open+0x2d>
   14bc1:	83 7d f4 01          	cmpl   $0x1,-0xc(%ebp)
   14bc5:	7e 0a                	jle    14bd1 <disk_open+0x37>
   14bc7:	b8 ff ff ff ff       	mov    $0xffffffff,%eax
   14bcc:	e9 97 00 00 00       	jmp    14c68 <disk_open+0xce>
   14bd1:	8b 45 f4             	mov    -0xc(%ebp),%eax
   14bd4:	69 c0 2c 01 00 00    	imul   $0x12c,%eax,%eax
   14bda:	05 40 7a 03 00       	add    $0x37a40,%eax
   14bdf:	89 45 ec             	mov    %eax,-0x14(%ebp)
   14be2:	8b 45 ec             	mov    -0x14(%ebp),%eax
   14be5:	8b 40 30             	mov    0x30(%eax),%eax
   14be8:	85 c0                	test   %eax,%eax
   14bea:	75 17                	jne    14c03 <disk_open+0x69>
   14bec:	83 ec 0c             	sub    $0xc,%esp
   14bef:	68 8f 95 01 00       	push   $0x1958f
   14bf4:	e8 a4 3e 00 00       	call   18a9d <log_printf>
   14bf9:	83 c4 10             	add    $0x10,%esp
   14bfc:	b8 ff ff ff ff       	mov    $0xffffffff,%eax
   14c01:	eb 65                	jmp    14c68 <disk_open+0xce>
   14c03:	8b 45 ec             	mov    -0x14(%ebp),%eax
   14c06:	8d 48 34             	lea    0x34(%eax),%ecx
   14c09:	8b 55 f0             	mov    -0x10(%ebp),%edx
   14c0c:	89 d0                	mov    %edx,%eax
   14c0e:	01 c0                	add    %eax,%eax
   14c10:	01 d0                	add    %edx,%eax
   14c12:	c1 e0 04             	shl    $0x4,%eax
   14c15:	01 c8                	add    %ecx,%eax
   14c17:	89 45 e8             	mov    %eax,-0x18(%ebp)
   14c1a:	8b 45 e8             	mov    -0x18(%ebp),%eax
   14c1d:	8b 40 2c             	mov    0x2c(%eax),%eax
   14c20:	85 c0                	test   %eax,%eax
   14c22:	75 17                	jne    14c3b <disk_open+0xa1>
   14c24:	83 ec 0c             	sub    $0xc,%esp
   14c27:	68 9f 95 01 00       	push   $0x1959f
   14c2c:	e8 6c 3e 00 00       	call   18a9d <log_printf>
   14c31:	83 c4 10             	add    $0x10,%esp
   14c34:	b8 ff ff ff ff       	mov    $0xffffffff,%eax
   14c39:	eb 2d                	jmp    14c68 <disk_open+0xce>
   14c3b:	8b 45 08             	mov    0x8(%ebp),%eax
   14c3e:	8b 55 e8             	mov    -0x18(%ebp),%edx
   14c41:	89 50 0c             	mov    %edx,0xc(%eax)
   14c44:	83 ec 08             	sub    $0x8,%esp
   14c47:	68 7f 00 01 00       	push   $0x1007f
   14c4c:	6a 2e                	push   $0x2e
   14c4e:	e8 af e7 ff ff       	call   13402 <irq_install>
   14c53:	83 c4 10             	add    $0x10,%esp
   14c56:	83 ec 0c             	sub    $0xc,%esp
   14c59:	6a 2e                	push   $0x2e
   14c5b:	e8 e2 e7 ff ff       	call   13442 <irq_enable>
   14c60:	83 c4 10             	add    $0x10,%esp
   14c63:	b8 00 00 00 00       	mov    $0x0,%eax
   14c68:	c9                   	leave  
   14c69:	c3                   	ret    

00014c6a <disk_close>:
   14c6a:	55                   	push   %ebp
   14c6b:	89 e5                	mov    %esp,%ebp
   14c6d:	90                   	nop
   14c6e:	5d                   	pop    %ebp
   14c6f:	c3                   	ret    

00014c70 <disk_read>:
   14c70:	55                   	push   %ebp
   14c71:	89 e5                	mov    %esp,%ebp
   14c73:	83 ec 18             	sub    $0x18,%esp
   14c76:	8b 45 08             	mov    0x8(%ebp),%eax
   14c79:	8b 40 0c             	mov    0xc(%eax),%eax
   14c7c:	89 45 f0             	mov    %eax,-0x10(%ebp)
   14c7f:	8b 45 f0             	mov    -0x10(%ebp),%eax
   14c82:	8b 40 20             	mov    0x20(%eax),%eax
   14c85:	89 45 ec             	mov    %eax,-0x14(%ebp)
   14c88:	8b 45 ec             	mov    -0x14(%ebp),%eax
   14c8b:	8b 80 24 01 00 00    	mov    0x124(%eax),%eax
   14c91:	83 ec 0c             	sub    $0xc,%esp
   14c94:	50                   	push   %eax
   14c95:	e8 45 31 00 00       	call   17ddf <mutex_lock>
   14c9a:	83 c4 10             	add    $0x10,%esp
   14c9d:	c7 05 bc 7c 03 00 01 	movl   $0x1,0x37cbc
   14ca4:	00 00 00 
   14ca7:	8b 45 14             	mov    0x14(%ebp),%eax
   14caa:	8b 55 f0             	mov    -0x10(%ebp),%edx
   14cad:	8b 4a 28             	mov    0x28(%edx),%ecx
   14cb0:	8b 55 0c             	mov    0xc(%ebp),%edx
   14cb3:	01 ca                	add    %ecx,%edx
   14cb5:	6a 24                	push   $0x24
   14cb7:	50                   	push   %eax
   14cb8:	52                   	push   %edx
   14cb9:	ff 75 ec             	pushl  -0x14(%ebp)
   14cbc:	e8 b5 f8 ff ff       	call   14576 <disk_send_cmd>
   14cc1:	83 c4 10             	add    $0x10,%esp
   14cc4:	c7 45 f4 00 00 00 00 	movl   $0x0,-0xc(%ebp)
   14ccb:	eb 4e                	jmp    14d1b <disk_read+0xab>
   14ccd:	83 ec 0c             	sub    $0xc,%esp
   14cd0:	ff 75 ec             	pushl  -0x14(%ebp)
   14cd3:	e8 1e fa ff ff       	call   146f6 <disk_wait_data>
   14cd8:	83 c4 10             	add    $0x10,%esp
   14cdb:	89 45 e8             	mov    %eax,-0x18(%ebp)
   14cde:	83 7d e8 00          	cmpl   $0x0,-0x18(%ebp)
   14ce2:	79 12                	jns    14cf6 <disk_read+0x86>
   14ce4:	83 ec 0c             	sub    $0xc,%esp
   14ce7:	68 af 95 01 00       	push   $0x195af
   14cec:	e8 ac 3d 00 00       	call   18a9d <log_printf>
   14cf1:	83 c4 10             	add    $0x10,%esp
   14cf4:	eb 2d                	jmp    14d23 <disk_read+0xb3>
   14cf6:	8b 45 ec             	mov    -0x14(%ebp),%eax
   14cf9:	8b 40 2c             	mov    0x2c(%eax),%eax
   14cfc:	83 ec 04             	sub    $0x4,%esp
   14cff:	50                   	push   %eax
   14d00:	ff 75 10             	pushl  0x10(%ebp)
   14d03:	ff 75 ec             	pushl  -0x14(%ebp)
   14d06:	e8 9b f9 ff ff       	call   146a6 <disk_read_data>
   14d0b:	83 c4 10             	add    $0x10,%esp
   14d0e:	83 45 f4 01          	addl   $0x1,-0xc(%ebp)
   14d12:	8b 45 ec             	mov    -0x14(%ebp),%eax
   14d15:	8b 40 2c             	mov    0x2c(%eax),%eax
   14d18:	01 45 10             	add    %eax,0x10(%ebp)
   14d1b:	8b 45 f4             	mov    -0xc(%ebp),%eax
   14d1e:	3b 45 14             	cmp    0x14(%ebp),%eax
   14d21:	7c aa                	jl     14ccd <disk_read+0x5d>
   14d23:	8b 45 ec             	mov    -0x14(%ebp),%eax
   14d26:	8b 80 24 01 00 00    	mov    0x124(%eax),%eax
   14d2c:	83 ec 0c             	sub    $0xc,%esp
   14d2f:	50                   	push   %eax
   14d30:	e8 3a 31 00 00       	call   17e6f <mutex_unlock>
   14d35:	83 c4 10             	add    $0x10,%esp
   14d38:	8b 45 f4             	mov    -0xc(%ebp),%eax
   14d3b:	c9                   	leave  
   14d3c:	c3                   	ret    

00014d3d <disk_write>:
   14d3d:	55                   	push   %ebp
   14d3e:	89 e5                	mov    %esp,%ebp
   14d40:	83 ec 18             	sub    $0x18,%esp
   14d43:	8b 45 08             	mov    0x8(%ebp),%eax
   14d46:	8b 40 0c             	mov    0xc(%eax),%eax
   14d49:	89 45 f0             	mov    %eax,-0x10(%ebp)
   14d4c:	8b 45 f0             	mov    -0x10(%ebp),%eax
   14d4f:	8b 40 20             	mov    0x20(%eax),%eax
   14d52:	89 45 ec             	mov    %eax,-0x14(%ebp)
   14d55:	8b 45 ec             	mov    -0x14(%ebp),%eax
   14d58:	8b 80 24 01 00 00    	mov    0x124(%eax),%eax
   14d5e:	83 ec 0c             	sub    $0xc,%esp
   14d61:	50                   	push   %eax
   14d62:	e8 78 30 00 00       	call   17ddf <mutex_lock>
   14d67:	83 c4 10             	add    $0x10,%esp
   14d6a:	c7 05 bc 7c 03 00 01 	movl   $0x1,0x37cbc
   14d71:	00 00 00 
   14d74:	8b 45 14             	mov    0x14(%ebp),%eax
   14d77:	8b 55 f0             	mov    -0x10(%ebp),%edx
   14d7a:	8b 4a 28             	mov    0x28(%edx),%ecx
   14d7d:	8b 55 0c             	mov    0xc(%ebp),%edx
   14d80:	01 ca                	add    %ecx,%edx
   14d82:	6a 34                	push   $0x34
   14d84:	50                   	push   %eax
   14d85:	52                   	push   %edx
   14d86:	ff 75 ec             	pushl  -0x14(%ebp)
   14d89:	e8 e8 f7 ff ff       	call   14576 <disk_send_cmd>
   14d8e:	83 c4 10             	add    $0x10,%esp
   14d91:	c7 45 f4 00 00 00 00 	movl   $0x0,-0xc(%ebp)
   14d98:	eb 4e                	jmp    14de8 <disk_write+0xab>
   14d9a:	8b 45 ec             	mov    -0x14(%ebp),%eax
   14d9d:	8b 40 2c             	mov    0x2c(%eax),%eax
   14da0:	83 ec 04             	sub    $0x4,%esp
   14da3:	50                   	push   %eax
   14da4:	ff 75 10             	pushl  0x10(%ebp)
   14da7:	ff 75 ec             	pushl  -0x14(%ebp)
   14daa:	e8 92 f9 ff ff       	call   14741 <disk_write_data>
   14daf:	83 c4 10             	add    $0x10,%esp
   14db2:	83 ec 0c             	sub    $0xc,%esp
   14db5:	ff 75 ec             	pushl  -0x14(%ebp)
   14db8:	e8 39 f9 ff ff       	call   146f6 <disk_wait_data>
   14dbd:	83 c4 10             	add    $0x10,%esp
   14dc0:	89 45 e8             	mov    %eax,-0x18(%ebp)
   14dc3:	83 7d e8 00          	cmpl   $0x0,-0x18(%ebp)
   14dc7:	79 12                	jns    14ddb <disk_write+0x9e>
   14dc9:	83 ec 0c             	sub    $0xc,%esp
   14dcc:	68 c0 95 01 00       	push   $0x195c0
   14dd1:	e8 c7 3c 00 00       	call   18a9d <log_printf>
   14dd6:	83 c4 10             	add    $0x10,%esp
   14dd9:	eb 15                	jmp    14df0 <disk_write+0xb3>
   14ddb:	83 45 f4 01          	addl   $0x1,-0xc(%ebp)
   14ddf:	8b 45 ec             	mov    -0x14(%ebp),%eax
   14de2:	8b 40 2c             	mov    0x2c(%eax),%eax
   14de5:	01 45 10             	add    %eax,0x10(%ebp)
   14de8:	8b 45 f4             	mov    -0xc(%ebp),%eax
   14deb:	3b 45 14             	cmp    0x14(%ebp),%eax
   14dee:	7c aa                	jl     14d9a <disk_write+0x5d>
   14df0:	8b 45 ec             	mov    -0x14(%ebp),%eax
   14df3:	8b 80 24 01 00 00    	mov    0x124(%eax),%eax
   14df9:	83 ec 0c             	sub    $0xc,%esp
   14dfc:	50                   	push   %eax
   14dfd:	e8 6d 30 00 00       	call   17e6f <mutex_unlock>
   14e02:	83 c4 10             	add    $0x10,%esp
   14e05:	8b 45 f4             	mov    -0xc(%ebp),%eax
   14e08:	c9                   	leave  
   14e09:	c3                   	ret    

00014e0a <disk_control>:
   14e0a:	55                   	push   %ebp
   14e0b:	89 e5                	mov    %esp,%ebp
   14e0d:	b8 00 00 00 00       	mov    $0x0,%eax
   14e12:	5d                   	pop    %ebp
   14e13:	c3                   	ret    

00014e14 <do_handler_ide_primary>:
   14e14:	55                   	push   %ebp
   14e15:	89 e5                	mov    %esp,%ebp
   14e17:	83 ec 08             	sub    $0x8,%esp
   14e1a:	83 ec 0c             	sub    $0xc,%esp
   14e1d:	6a 2e                	push   $0x2e
   14e1f:	e8 4a e7 ff ff       	call   1356e <pic_send_eoi>
   14e24:	83 c4 10             	add    $0x10,%esp
   14e27:	90                   	nop
   14e28:	c9                   	leave  
   14e29:	c3                   	ret    

00014e2a <inb>:
   14e2a:	55                   	push   %ebp
   14e2b:	89 e5                	mov    %esp,%ebp
   14e2d:	83 ec 14             	sub    $0x14,%esp
   14e30:	8b 45 08             	mov    0x8(%ebp),%eax
   14e33:	66 89 45 ec          	mov    %ax,-0x14(%ebp)
   14e37:	0f b7 45 ec          	movzwl -0x14(%ebp),%eax
   14e3b:	89 c2                	mov    %eax,%edx
   14e3d:	ec                   	in     (%dx),%al
   14e3e:	88 45 ff             	mov    %al,-0x1(%ebp)
   14e41:	0f b6 45 ff          	movzbl -0x1(%ebp),%eax
   14e45:	c9                   	leave  
   14e46:	c3                   	ret    

00014e47 <kbd_init>:
   14e47:	55                   	push   %ebp
   14e48:	89 e5                	mov    %esp,%ebp
   14e4a:	83 ec 08             	sub    $0x8,%esp
   14e4d:	a1 c4 7c 03 00       	mov    0x37cc4,%eax
   14e52:	85 c0                	test   %eax,%eax
   14e54:	75 3d                	jne    14e93 <kbd_init+0x4c>
   14e56:	83 ec 04             	sub    $0x4,%esp
   14e59:	6a 01                	push   $0x1
   14e5b:	6a 00                	push   $0x0
   14e5d:	68 c0 7c 03 00       	push   $0x37cc0
   14e62:	e8 f7 35 00 00       	call   1845e <kernel_memset>
   14e67:	83 c4 10             	add    $0x10,%esp
   14e6a:	83 ec 08             	sub    $0x8,%esp
   14e6d:	68 f8 03 01 00       	push   $0x103f8
   14e72:	6a 21                	push   $0x21
   14e74:	e8 89 e5 ff ff       	call   13402 <irq_install>
   14e79:	83 c4 10             	add    $0x10,%esp
   14e7c:	83 ec 0c             	sub    $0xc,%esp
   14e7f:	6a 21                	push   $0x21
   14e81:	e8 bc e5 ff ff       	call   13442 <irq_enable>
   14e86:	83 c4 10             	add    $0x10,%esp
   14e89:	c7 05 c4 7c 03 00 01 	movl   $0x1,0x37cc4
   14e90:	00 00 00 
   14e93:	90                   	nop
   14e94:	c9                   	leave  
   14e95:	c3                   	ret    

00014e96 <is_make_code>:
   14e96:	55                   	push   %ebp
   14e97:	89 e5                	mov    %esp,%ebp
   14e99:	83 ec 04             	sub    $0x4,%esp
   14e9c:	8b 45 08             	mov    0x8(%ebp),%eax
   14e9f:	88 45 fc             	mov    %al,-0x4(%ebp)
   14ea2:	0f b6 45 fc          	movzbl -0x4(%ebp),%eax
   14ea6:	f7 d0                	not    %eax
   14ea8:	c0 e8 07             	shr    $0x7,%al
   14eab:	0f b6 c0             	movzbl %al,%eax
   14eae:	c9                   	leave  
   14eaf:	c3                   	ret    

00014eb0 <get_key>:
   14eb0:	55                   	push   %ebp
   14eb1:	89 e5                	mov    %esp,%ebp
   14eb3:	83 ec 04             	sub    $0x4,%esp
   14eb6:	8b 45 08             	mov    0x8(%ebp),%eax
   14eb9:	88 45 fc             	mov    %al,-0x4(%ebp)
   14ebc:	0f b6 45 fc          	movzbl -0x4(%ebp),%eax
   14ec0:	83 e0 7f             	and    $0x7f,%eax
   14ec3:	c9                   	leave  
   14ec4:	c3                   	ret    

00014ec5 <do_fx_key>:
   14ec5:	55                   	push   %ebp
   14ec6:	89 e5                	mov    %esp,%ebp
   14ec8:	83 ec 18             	sub    $0x18,%esp
   14ecb:	8b 45 08             	mov    0x8(%ebp),%eax
   14ece:	83 e8 3b             	sub    $0x3b,%eax
   14ed1:	89 45 f4             	mov    %eax,-0xc(%ebp)
   14ed4:	0f b6 05 c0 7c 03 00 	movzbl 0x37cc0,%eax
   14edb:	83 e0 08             	and    $0x8,%eax
   14ede:	84 c0                	test   %al,%al
   14ee0:	75 0e                	jne    14ef0 <do_fx_key+0x2b>
   14ee2:	0f b6 05 c0 7c 03 00 	movzbl 0x37cc0,%eax
   14ee9:	83 e0 40             	and    $0x40,%eax
   14eec:	84 c0                	test   %al,%al
   14eee:	74 0e                	je     14efe <do_fx_key+0x39>
   14ef0:	83 ec 0c             	sub    $0xc,%esp
   14ef3:	ff 75 f4             	pushl  -0xc(%ebp)
   14ef6:	e8 ec 08 00 00       	call   157e7 <tty_select>
   14efb:	83 c4 10             	add    $0x10,%esp
   14efe:	90                   	nop
   14eff:	c9                   	leave  
   14f00:	c3                   	ret    

00014f01 <do_normal_key>:
   14f01:	55                   	push   %ebp
   14f02:	89 e5                	mov    %esp,%ebp
   14f04:	83 ec 28             	sub    $0x28,%esp
   14f07:	8b 45 08             	mov    0x8(%ebp),%eax
   14f0a:	88 45 e4             	mov    %al,-0x1c(%ebp)
   14f0d:	0f b6 45 e4          	movzbl -0x1c(%ebp),%eax
   14f11:	50                   	push   %eax
   14f12:	e8 99 ff ff ff       	call   14eb0 <get_key>
   14f17:	83 c4 04             	add    $0x4,%esp
   14f1a:	88 45 f7             	mov    %al,-0x9(%ebp)
   14f1d:	0f b6 45 e4          	movzbl -0x1c(%ebp),%eax
   14f21:	50                   	push   %eax
   14f22:	e8 6f ff ff ff       	call   14e96 <is_make_code>
   14f27:	83 c4 04             	add    $0x4,%esp
   14f2a:	89 45 f0             	mov    %eax,-0x10(%ebp)
   14f2d:	0f be 45 f7          	movsbl -0x9(%ebp),%eax
   14f31:	83 e8 1d             	sub    $0x1d,%eax
   14f34:	83 f8 3b             	cmp    $0x3b,%eax
   14f37:	0f 87 e7 00 00 00    	ja     15024 <do_normal_key+0x123>
   14f3d:	8b 04 85 54 96 01 00 	mov    0x19654(,%eax,4),%eax
   14f44:	ff e0                	jmp    *%eax
   14f46:	8b 45 f0             	mov    -0x10(%ebp),%eax
   14f49:	83 e0 01             	and    $0x1,%eax
   14f4c:	83 e0 01             	and    $0x1,%eax
   14f4f:	8d 14 00             	lea    (%eax,%eax,1),%edx
   14f52:	0f b6 05 c0 7c 03 00 	movzbl 0x37cc0,%eax
   14f59:	83 e0 fd             	and    $0xfffffffd,%eax
   14f5c:	09 d0                	or     %edx,%eax
   14f5e:	a2 c0 7c 03 00       	mov    %al,0x37cc0
   14f63:	e9 57 01 00 00       	jmp    150bf <do_normal_key+0x1be>
   14f68:	8b 45 f0             	mov    -0x10(%ebp),%eax
   14f6b:	83 e0 01             	and    $0x1,%eax
   14f6e:	83 e0 01             	and    $0x1,%eax
   14f71:	89 c2                	mov    %eax,%edx
   14f73:	0f b6 05 c0 7c 03 00 	movzbl 0x37cc0,%eax
   14f7a:	83 e0 fe             	and    $0xfffffffe,%eax
   14f7d:	09 d0                	or     %edx,%eax
   14f7f:	a2 c0 7c 03 00       	mov    %al,0x37cc0
   14f84:	e9 36 01 00 00       	jmp    150bf <do_normal_key+0x1be>
   14f89:	83 7d f0 00          	cmpl   $0x0,-0x10(%ebp)
   14f8d:	0f 84 28 01 00 00    	je     150bb <do_normal_key+0x1ba>
   14f93:	0f b6 05 c0 7c 03 00 	movzbl 0x37cc0,%eax
   14f9a:	c0 e8 02             	shr    $0x2,%al
   14f9d:	83 e0 01             	and    $0x1,%eax
   14fa0:	f7 d0                	not    %eax
   14fa2:	83 e0 01             	and    $0x1,%eax
   14fa5:	83 e0 01             	and    $0x1,%eax
   14fa8:	8d 14 85 00 00 00 00 	lea    0x0(,%eax,4),%edx
   14faf:	0f b6 05 c0 7c 03 00 	movzbl 0x37cc0,%eax
   14fb6:	83 e0 fb             	and    $0xfffffffb,%eax
   14fb9:	09 d0                	or     %edx,%eax
   14fbb:	a2 c0 7c 03 00       	mov    %al,0x37cc0
   14fc0:	e9 f6 00 00 00       	jmp    150bb <do_normal_key+0x1ba>
   14fc5:	8b 45 f0             	mov    -0x10(%ebp),%eax
   14fc8:	83 e0 01             	and    $0x1,%eax
   14fcb:	83 e0 01             	and    $0x1,%eax
   14fce:	c1 e0 04             	shl    $0x4,%eax
   14fd1:	89 c2                	mov    %eax,%edx
   14fd3:	0f b6 05 c0 7c 03 00 	movzbl 0x37cc0,%eax
   14fda:	83 e0 ef             	and    $0xffffffef,%eax
   14fdd:	09 d0                	or     %edx,%eax
   14fdf:	a2 c0 7c 03 00       	mov    %al,0x37cc0
   14fe4:	e9 d6 00 00 00       	jmp    150bf <do_normal_key+0x1be>
   14fe9:	8b 45 f0             	mov    -0x10(%ebp),%eax
   14fec:	83 e0 01             	and    $0x1,%eax
   14fef:	83 e0 01             	and    $0x1,%eax
   14ff2:	8d 14 c5 00 00 00 00 	lea    0x0(,%eax,8),%edx
   14ff9:	0f b6 05 c0 7c 03 00 	movzbl 0x37cc0,%eax
   15000:	83 e0 f7             	and    $0xfffffff7,%eax
   15003:	09 d0                	or     %edx,%eax
   15005:	a2 c0 7c 03 00       	mov    %al,0x37cc0
   1500a:	e9 b0 00 00 00       	jmp    150bf <do_normal_key+0x1be>
   1500f:	0f be 45 f7          	movsbl -0x9(%ebp),%eax
   15013:	83 ec 0c             	sub    $0xc,%esp
   15016:	50                   	push   %eax
   15017:	e8 a9 fe ff ff       	call   14ec5 <do_fx_key>
   1501c:	83 c4 10             	add    $0x10,%esp
   1501f:	e9 9b 00 00 00       	jmp    150bf <do_normal_key+0x1be>
   15024:	83 7d f0 00          	cmpl   $0x0,-0x10(%ebp)
   15028:	0f 84 90 00 00 00    	je     150be <do_normal_key+0x1bd>
   1502e:	0f b6 05 c0 7c 03 00 	movzbl 0x37cc0,%eax
   15035:	83 e0 02             	and    $0x2,%eax
   15038:	84 c0                	test   %al,%al
   1503a:	75 0e                	jne    1504a <do_normal_key+0x149>
   1503c:	0f b6 05 c0 7c 03 00 	movzbl 0x37cc0,%eax
   15043:	83 e0 01             	and    $0x1,%eax
   15046:	84 c0                	test   %al,%al
   15048:	74 11                	je     1505b <do_normal_key+0x15a>
   1504a:	0f be 45 f7          	movsbl -0x9(%ebp),%eax
   1504e:	0f b6 84 00 e1 95 01 	movzbl 0x195e1(%eax,%eax,1),%eax
   15055:	00 
   15056:	88 45 f7             	mov    %al,-0x9(%ebp)
   15059:	eb 0f                	jmp    1506a <do_normal_key+0x169>
   1505b:	0f be 45 f7          	movsbl -0x9(%ebp),%eax
   1505f:	0f b6 84 00 e0 95 01 	movzbl 0x195e0(%eax,%eax,1),%eax
   15066:	00 
   15067:	88 45 f7             	mov    %al,-0x9(%ebp)
   1506a:	0f b6 05 c0 7c 03 00 	movzbl 0x37cc0,%eax
   15071:	83 e0 04             	and    $0x4,%eax
   15074:	84 c0                	test   %al,%al
   15076:	74 2e                	je     150a6 <do_normal_key+0x1a5>
   15078:	80 7d f7 60          	cmpb   $0x60,-0x9(%ebp)
   1507c:	7e 12                	jle    15090 <do_normal_key+0x18f>
   1507e:	80 7d f7 7a          	cmpb   $0x7a,-0x9(%ebp)
   15082:	7f 0c                	jg     15090 <do_normal_key+0x18f>
   15084:	0f b6 45 f7          	movzbl -0x9(%ebp),%eax
   15088:	83 e8 20             	sub    $0x20,%eax
   1508b:	88 45 f7             	mov    %al,-0x9(%ebp)
   1508e:	eb 16                	jmp    150a6 <do_normal_key+0x1a5>
   15090:	80 7d f7 40          	cmpb   $0x40,-0x9(%ebp)
   15094:	7e 10                	jle    150a6 <do_normal_key+0x1a5>
   15096:	80 7d f7 5a          	cmpb   $0x5a,-0x9(%ebp)
   1509a:	7f 0a                	jg     150a6 <do_normal_key+0x1a5>
   1509c:	0f b6 45 f7          	movzbl -0x9(%ebp),%eax
   150a0:	83 c0 20             	add    $0x20,%eax
   150a3:	88 45 f7             	mov    %al,-0x9(%ebp)
   150a6:	0f be 45 f7          	movsbl -0x9(%ebp),%eax
   150aa:	83 ec 0c             	sub    $0xc,%esp
   150ad:	50                   	push   %eax
   150ae:	e8 c7 06 00 00       	call   1577a <tty_in>
   150b3:	83 c4 10             	add    $0x10,%esp
   150b6:	eb 06                	jmp    150be <do_normal_key+0x1bd>
   150b8:	90                   	nop
   150b9:	eb 04                	jmp    150bf <do_normal_key+0x1be>
   150bb:	90                   	nop
   150bc:	eb 01                	jmp    150bf <do_normal_key+0x1be>
   150be:	90                   	nop
   150bf:	90                   	nop
   150c0:	c9                   	leave  
   150c1:	c3                   	ret    

000150c2 <do_e0_key>:
   150c2:	55                   	push   %ebp
   150c3:	89 e5                	mov    %esp,%ebp
   150c5:	83 ec 14             	sub    $0x14,%esp
   150c8:	8b 45 08             	mov    0x8(%ebp),%eax
   150cb:	88 45 ec             	mov    %al,-0x14(%ebp)
   150ce:	0f b6 45 ec          	movzbl -0x14(%ebp),%eax
   150d2:	50                   	push   %eax
   150d3:	e8 d8 fd ff ff       	call   14eb0 <get_key>
   150d8:	83 c4 04             	add    $0x4,%esp
   150db:	0f be c0             	movsbl %al,%eax
   150de:	89 45 fc             	mov    %eax,-0x4(%ebp)
   150e1:	0f b6 45 ec          	movzbl -0x14(%ebp),%eax
   150e5:	50                   	push   %eax
   150e6:	e8 ab fd ff ff       	call   14e96 <is_make_code>
   150eb:	83 c4 04             	add    $0x4,%esp
   150ee:	89 45 f8             	mov    %eax,-0x8(%ebp)
   150f1:	8b 45 fc             	mov    -0x4(%ebp),%eax
   150f4:	83 f8 1d             	cmp    $0x1d,%eax
   150f7:	74 07                	je     15100 <do_e0_key+0x3e>
   150f9:	83 f8 38             	cmp    $0x38,%eax
   150fc:	74 23                	je     15121 <do_e0_key+0x5f>
   150fe:	eb 41                	jmp    15141 <do_e0_key+0x7f>
   15100:	8b 45 f8             	mov    -0x8(%ebp),%eax
   15103:	83 e0 01             	and    $0x1,%eax
   15106:	83 e0 01             	and    $0x1,%eax
   15109:	c1 e0 06             	shl    $0x6,%eax
   1510c:	89 c2                	mov    %eax,%edx
   1510e:	0f b6 05 c0 7c 03 00 	movzbl 0x37cc0,%eax
   15115:	83 e0 bf             	and    $0xffffffbf,%eax
   15118:	09 d0                	or     %edx,%eax
   1511a:	a2 c0 7c 03 00       	mov    %al,0x37cc0
   1511f:	eb 20                	jmp    15141 <do_e0_key+0x7f>
   15121:	8b 45 f8             	mov    -0x8(%ebp),%eax
   15124:	83 e0 01             	and    $0x1,%eax
   15127:	83 e0 01             	and    $0x1,%eax
   1512a:	c1 e0 05             	shl    $0x5,%eax
   1512d:	89 c2                	mov    %eax,%edx
   1512f:	0f b6 05 c0 7c 03 00 	movzbl 0x37cc0,%eax
   15136:	83 e0 df             	and    $0xffffffdf,%eax
   15139:	09 d0                	or     %edx,%eax
   1513b:	a2 c0 7c 03 00       	mov    %al,0x37cc0
   15140:	90                   	nop
   15141:	90                   	nop
   15142:	c9                   	leave  
   15143:	c3                   	ret    

00015144 <do_handler_kbd>:
   15144:	55                   	push   %ebp
   15145:	89 e5                	mov    %esp,%ebp
   15147:	83 ec 18             	sub    $0x18,%esp
   1514a:	6a 64                	push   $0x64
   1514c:	e8 d9 fc ff ff       	call   14e2a <inb>
   15151:	83 c4 04             	add    $0x4,%esp
   15154:	0f b6 c0             	movzbl %al,%eax
   15157:	89 45 f4             	mov    %eax,-0xc(%ebp)
   1515a:	8b 45 f4             	mov    -0xc(%ebp),%eax
   1515d:	83 e0 01             	and    $0x1,%eax
   15160:	85 c0                	test   %eax,%eax
   15162:	75 12                	jne    15176 <do_handler_kbd+0x32>
   15164:	83 ec 0c             	sub    $0xc,%esp
   15167:	6a 21                	push   $0x21
   15169:	e8 00 e4 ff ff       	call   1356e <pic_send_eoi>
   1516e:	83 c4 10             	add    $0x10,%esp
   15171:	e9 90 00 00 00       	jmp    15206 <do_handler_kbd+0xc2>
   15176:	83 ec 0c             	sub    $0xc,%esp
   15179:	6a 60                	push   $0x60
   1517b:	e8 aa fc ff ff       	call   14e2a <inb>
   15180:	83 c4 10             	add    $0x10,%esp
   15183:	88 45 f3             	mov    %al,-0xd(%ebp)
   15186:	80 7d f3 e0          	cmpb   $0xe0,-0xd(%ebp)
   1518a:	75 0c                	jne    15198 <do_handler_kbd+0x54>
   1518c:	c7 05 c8 7c 03 00 01 	movl   $0x1,0x37cc8
   15193:	00 00 00 
   15196:	eb 61                	jmp    151f9 <do_handler_kbd+0xb5>
   15198:	80 7d f3 e1          	cmpb   $0xe1,-0xd(%ebp)
   1519c:	75 0c                	jne    151aa <do_handler_kbd+0x66>
   1519e:	c7 05 c8 7c 03 00 02 	movl   $0x2,0x37cc8
   151a5:	00 00 00 
   151a8:	eb 4f                	jmp    151f9 <do_handler_kbd+0xb5>
   151aa:	a1 c8 7c 03 00       	mov    0x37cc8,%eax
   151af:	83 f8 01             	cmp    $0x1,%eax
   151b2:	74 1e                	je     151d2 <do_handler_kbd+0x8e>
   151b4:	83 f8 01             	cmp    $0x1,%eax
   151b7:	72 07                	jb     151c0 <do_handler_kbd+0x7c>
   151b9:	83 f8 02             	cmp    $0x2,%eax
   151bc:	74 30                	je     151ee <do_handler_kbd+0xaa>
   151be:	eb 39                	jmp    151f9 <do_handler_kbd+0xb5>
   151c0:	0f b6 45 f3          	movzbl -0xd(%ebp),%eax
   151c4:	83 ec 0c             	sub    $0xc,%esp
   151c7:	50                   	push   %eax
   151c8:	e8 34 fd ff ff       	call   14f01 <do_normal_key>
   151cd:	83 c4 10             	add    $0x10,%esp
   151d0:	eb 27                	jmp    151f9 <do_handler_kbd+0xb5>
   151d2:	0f b6 45 f3          	movzbl -0xd(%ebp),%eax
   151d6:	83 ec 0c             	sub    $0xc,%esp
   151d9:	50                   	push   %eax
   151da:	e8 e3 fe ff ff       	call   150c2 <do_e0_key>
   151df:	83 c4 10             	add    $0x10,%esp
   151e2:	c7 05 c8 7c 03 00 00 	movl   $0x0,0x37cc8
   151e9:	00 00 00 
   151ec:	eb 0b                	jmp    151f9 <do_handler_kbd+0xb5>
   151ee:	c7 05 c8 7c 03 00 00 	movl   $0x0,0x37cc8
   151f5:	00 00 00 
   151f8:	90                   	nop
   151f9:	83 ec 0c             	sub    $0xc,%esp
   151fc:	6a 21                	push   $0x21
   151fe:	e8 6b e3 ff ff       	call   1356e <pic_send_eoi>
   15203:	83 c4 10             	add    $0x10,%esp
   15206:	c9                   	leave  
   15207:	c3                   	ret    

00015208 <outb>:
   15208:	55                   	push   %ebp
   15209:	89 e5                	mov    %esp,%ebp
   1520b:	83 ec 08             	sub    $0x8,%esp
   1520e:	8b 55 08             	mov    0x8(%ebp),%edx
   15211:	8b 45 0c             	mov    0xc(%ebp),%eax
   15214:	66 89 55 fc          	mov    %dx,-0x4(%ebp)
   15218:	88 45 f8             	mov    %al,-0x8(%ebp)
   1521b:	0f b7 55 fc          	movzwl -0x4(%ebp),%edx
   1521f:	0f b6 45 f8          	movzbl -0x8(%ebp),%eax
   15223:	ee                   	out    %al,(%dx)
   15224:	90                   	nop
   15225:	c9                   	leave  
   15226:	c3                   	ret    

00015227 <do_handler_time>:
   15227:	55                   	push   %ebp
   15228:	89 e5                	mov    %esp,%ebp
   1522a:	83 ec 08             	sub    $0x8,%esp
   1522d:	a1 cc 7c 03 00       	mov    0x37ccc,%eax
   15232:	83 c0 01             	add    $0x1,%eax
   15235:	a3 cc 7c 03 00       	mov    %eax,0x37ccc
   1523a:	83 ec 0c             	sub    $0xc,%esp
   1523d:	6a 20                	push   $0x20
   1523f:	e8 2a e3 ff ff       	call   1356e <pic_send_eoi>
   15244:	83 c4 10             	add    $0x10,%esp
   15247:	e8 a5 ca ff ff       	call   11cf1 <task_time_tick>
   1524c:	90                   	nop
   1524d:	c9                   	leave  
   1524e:	c3                   	ret    

0001524f <init_pit>:
   1524f:	55                   	push   %ebp
   15250:	89 e5                	mov    %esp,%ebp
   15252:	83 ec 18             	sub    $0x18,%esp
   15255:	c7 45 f4 37 5d 00 00 	movl   $0x5d37,-0xc(%ebp)
   1525c:	6a 36                	push   $0x36
   1525e:	6a 43                	push   $0x43
   15260:	e8 a3 ff ff ff       	call   15208 <outb>
   15265:	83 c4 08             	add    $0x8,%esp
   15268:	8b 45 f4             	mov    -0xc(%ebp),%eax
   1526b:	0f b6 c0             	movzbl %al,%eax
   1526e:	50                   	push   %eax
   1526f:	6a 40                	push   $0x40
   15271:	e8 92 ff ff ff       	call   15208 <outb>
   15276:	83 c4 08             	add    $0x8,%esp
   15279:	8b 45 f4             	mov    -0xc(%ebp),%eax
   1527c:	c1 e8 08             	shr    $0x8,%eax
   1527f:	0f b6 c0             	movzbl %al,%eax
   15282:	50                   	push   %eax
   15283:	6a 40                	push   $0x40
   15285:	e8 7e ff ff ff       	call   15208 <outb>
   1528a:	83 c4 08             	add    $0x8,%esp
   1528d:	83 ec 08             	sub    $0x8,%esp
   15290:	68 2b 00 01 00       	push   $0x1002b
   15295:	6a 20                	push   $0x20
   15297:	e8 66 e1 ff ff       	call   13402 <irq_install>
   1529c:	83 c4 10             	add    $0x10,%esp
   1529f:	83 ec 0c             	sub    $0xc,%esp
   152a2:	6a 20                	push   $0x20
   152a4:	e8 99 e1 ff ff       	call   13442 <irq_enable>
   152a9:	83 c4 10             	add    $0x10,%esp
   152ac:	90                   	nop
   152ad:	c9                   	leave  
   152ae:	c3                   	ret    

000152af <time_init>:
   152af:	55                   	push   %ebp
   152b0:	89 e5                	mov    %esp,%ebp
   152b2:	83 ec 08             	sub    $0x8,%esp
   152b5:	c7 05 cc 7c 03 00 00 	movl   $0x0,0x37ccc
   152bc:	00 00 00 
   152bf:	e8 8b ff ff ff       	call   1524f <init_pit>
   152c4:	90                   	nop
   152c5:	c9                   	leave  
   152c6:	c3                   	ret    

000152c7 <get_tty>:
   152c7:	55                   	push   %ebp
   152c8:	89 e5                	mov    %esp,%ebp
   152ca:	83 ec 10             	sub    $0x10,%esp
   152cd:	8b 45 08             	mov    0x8(%ebp),%eax
   152d0:	8b 40 08             	mov    0x8(%eax),%eax
   152d3:	89 45 fc             	mov    %eax,-0x4(%ebp)
   152d6:	83 7d fc 00          	cmpl   $0x0,-0x4(%ebp)
   152da:	78 10                	js     152ec <get_tty+0x25>
   152dc:	83 7d fc 07          	cmpl   $0x7,-0x4(%ebp)
   152e0:	7f 0a                	jg     152ec <get_tty+0x25>
   152e2:	8b 45 08             	mov    0x8(%ebp),%eax
   152e5:	8b 40 10             	mov    0x10(%eax),%eax
   152e8:	85 c0                	test   %eax,%eax
   152ea:	75 07                	jne    152f3 <get_tty+0x2c>
   152ec:	b8 00 00 00 00       	mov    $0x0,%eax
   152f1:	eb 0e                	jmp    15301 <get_tty+0x3a>
   152f3:	8b 45 fc             	mov    -0x4(%ebp),%eax
   152f6:	69 c0 54 04 00 00    	imul   $0x454,%eax,%eax
   152fc:	05 e0 7c 03 00       	add    $0x37ce0,%eax
   15301:	c9                   	leave  
   15302:	c3                   	ret    

00015303 <tty_fifo_init>:
   15303:	55                   	push   %ebp
   15304:	89 e5                	mov    %esp,%ebp
   15306:	8b 45 08             	mov    0x8(%ebp),%eax
   15309:	8b 55 0c             	mov    0xc(%ebp),%edx
   1530c:	89 10                	mov    %edx,(%eax)
   1530e:	8b 45 08             	mov    0x8(%ebp),%eax
   15311:	c7 40 10 00 00 00 00 	movl   $0x0,0x10(%eax)
   15318:	8b 45 08             	mov    0x8(%ebp),%eax
   1531b:	8b 55 10             	mov    0x10(%ebp),%edx
   1531e:	89 50 04             	mov    %edx,0x4(%eax)
   15321:	8b 45 08             	mov    0x8(%ebp),%eax
   15324:	c7 40 0c 00 00 00 00 	movl   $0x0,0xc(%eax)
   1532b:	8b 45 08             	mov    0x8(%ebp),%eax
   1532e:	c7 40 08 00 00 00 00 	movl   $0x0,0x8(%eax)
   15335:	90                   	nop
   15336:	5d                   	pop    %ebp
   15337:	c3                   	ret    

00015338 <tty_fifo_put>:
   15338:	55                   	push   %ebp
   15339:	89 e5                	mov    %esp,%ebp
   1533b:	53                   	push   %ebx
   1533c:	83 ec 24             	sub    $0x24,%esp
   1533f:	8b 45 0c             	mov    0xc(%ebp),%eax
   15342:	88 45 e4             	mov    %al,-0x1c(%ebp)
   15345:	e8 4f e2 ff ff       	call   13599 <irq_enter_protection>
   1534a:	89 45 f4             	mov    %eax,-0xc(%ebp)
   1534d:	8b 45 08             	mov    0x8(%ebp),%eax
   15350:	8b 50 10             	mov    0x10(%eax),%edx
   15353:	8b 45 08             	mov    0x8(%ebp),%eax
   15356:	8b 40 04             	mov    0x4(%eax),%eax
   15359:	39 c2                	cmp    %eax,%edx
   1535b:	7c 15                	jl     15372 <tty_fifo_put+0x3a>
   1535d:	83 ec 0c             	sub    $0xc,%esp
   15360:	ff 75 f4             	pushl  -0xc(%ebp)
   15363:	e8 49 e2 ff ff       	call   135b1 <irq_leave_protection>
   15368:	83 c4 10             	add    $0x10,%esp
   1536b:	b8 ff ff ff ff       	mov    $0xffffffff,%eax
   15370:	eb 59                	jmp    153cb <tty_fifo_put+0x93>
   15372:	8b 45 08             	mov    0x8(%ebp),%eax
   15375:	8b 18                	mov    (%eax),%ebx
   15377:	8b 45 08             	mov    0x8(%ebp),%eax
   1537a:	8b 40 0c             	mov    0xc(%eax),%eax
   1537d:	8d 48 01             	lea    0x1(%eax),%ecx
   15380:	8b 55 08             	mov    0x8(%ebp),%edx
   15383:	89 4a 0c             	mov    %ecx,0xc(%edx)
   15386:	8d 14 03             	lea    (%ebx,%eax,1),%edx
   15389:	0f b6 45 e4          	movzbl -0x1c(%ebp),%eax
   1538d:	88 02                	mov    %al,(%edx)
   1538f:	8b 45 08             	mov    0x8(%ebp),%eax
   15392:	8b 50 0c             	mov    0xc(%eax),%edx
   15395:	8b 45 08             	mov    0x8(%ebp),%eax
   15398:	8b 40 04             	mov    0x4(%eax),%eax
   1539b:	39 c2                	cmp    %eax,%edx
   1539d:	7c 0a                	jl     153a9 <tty_fifo_put+0x71>
   1539f:	8b 45 08             	mov    0x8(%ebp),%eax
   153a2:	c7 40 0c 00 00 00 00 	movl   $0x0,0xc(%eax)
   153a9:	8b 45 08             	mov    0x8(%ebp),%eax
   153ac:	8b 40 10             	mov    0x10(%eax),%eax
   153af:	8d 50 01             	lea    0x1(%eax),%edx
   153b2:	8b 45 08             	mov    0x8(%ebp),%eax
   153b5:	89 50 10             	mov    %edx,0x10(%eax)
   153b8:	83 ec 0c             	sub    $0xc,%esp
   153bb:	ff 75 f4             	pushl  -0xc(%ebp)
   153be:	e8 ee e1 ff ff       	call   135b1 <irq_leave_protection>
   153c3:	83 c4 10             	add    $0x10,%esp
   153c6:	b8 00 00 00 00       	mov    $0x0,%eax
   153cb:	8b 5d fc             	mov    -0x4(%ebp),%ebx
   153ce:	c9                   	leave  
   153cf:	c3                   	ret    

000153d0 <tty_fifo_get>:
   153d0:	55                   	push   %ebp
   153d1:	89 e5                	mov    %esp,%ebp
   153d3:	53                   	push   %ebx
   153d4:	83 ec 14             	sub    $0x14,%esp
   153d7:	e8 bd e1 ff ff       	call   13599 <irq_enter_protection>
   153dc:	89 45 f4             	mov    %eax,-0xc(%ebp)
   153df:	8b 45 08             	mov    0x8(%ebp),%eax
   153e2:	8b 40 10             	mov    0x10(%eax),%eax
   153e5:	85 c0                	test   %eax,%eax
   153e7:	7f 15                	jg     153fe <tty_fifo_get+0x2e>
   153e9:	83 ec 0c             	sub    $0xc,%esp
   153ec:	ff 75 f4             	pushl  -0xc(%ebp)
   153ef:	e8 bd e1 ff ff       	call   135b1 <irq_leave_protection>
   153f4:	83 c4 10             	add    $0x10,%esp
   153f7:	b8 ff ff ff ff       	mov    $0xffffffff,%eax
   153fc:	eb 5a                	jmp    15458 <tty_fifo_get+0x88>
   153fe:	8b 45 08             	mov    0x8(%ebp),%eax
   15401:	8b 18                	mov    (%eax),%ebx
   15403:	8b 45 08             	mov    0x8(%ebp),%eax
   15406:	8b 40 08             	mov    0x8(%eax),%eax
   15409:	8d 48 01             	lea    0x1(%eax),%ecx
   1540c:	8b 55 08             	mov    0x8(%ebp),%edx
   1540f:	89 4a 08             	mov    %ecx,0x8(%edx)
   15412:	01 d8                	add    %ebx,%eax
   15414:	0f b6 10             	movzbl (%eax),%edx
   15417:	8b 45 0c             	mov    0xc(%ebp),%eax
   1541a:	88 10                	mov    %dl,(%eax)
   1541c:	8b 45 08             	mov    0x8(%ebp),%eax
   1541f:	8b 50 08             	mov    0x8(%eax),%edx
   15422:	8b 45 08             	mov    0x8(%ebp),%eax
   15425:	8b 40 04             	mov    0x4(%eax),%eax
   15428:	39 c2                	cmp    %eax,%edx
   1542a:	7c 0a                	jl     15436 <tty_fifo_get+0x66>
   1542c:	8b 45 08             	mov    0x8(%ebp),%eax
   1542f:	c7 40 08 00 00 00 00 	movl   $0x0,0x8(%eax)
   15436:	8b 45 08             	mov    0x8(%ebp),%eax
   15439:	8b 40 10             	mov    0x10(%eax),%eax
   1543c:	8d 50 ff             	lea    -0x1(%eax),%edx
   1543f:	8b 45 08             	mov    0x8(%ebp),%eax
   15442:	89 50 10             	mov    %edx,0x10(%eax)
   15445:	83 ec 0c             	sub    $0xc,%esp
   15448:	ff 75 f4             	pushl  -0xc(%ebp)
   1544b:	e8 61 e1 ff ff       	call   135b1 <irq_leave_protection>
   15450:	83 c4 10             	add    $0x10,%esp
   15453:	b8 00 00 00 00       	mov    $0x0,%eax
   15458:	8b 5d fc             	mov    -0x4(%ebp),%ebx
   1545b:	c9                   	leave  
   1545c:	c3                   	ret    

0001545d <tty_open>:
   1545d:	55                   	push   %ebp
   1545e:	89 e5                	mov    %esp,%ebp
   15460:	83 ec 18             	sub    $0x18,%esp
   15463:	8b 45 08             	mov    0x8(%ebp),%eax
   15466:	8b 40 08             	mov    0x8(%eax),%eax
   15469:	89 45 f4             	mov    %eax,-0xc(%ebp)
   1546c:	83 7d f4 00          	cmpl   $0x0,-0xc(%ebp)
   15470:	78 06                	js     15478 <tty_open+0x1b>
   15472:	83 7d f4 07          	cmpl   $0x7,-0xc(%ebp)
   15476:	7e 1d                	jle    15495 <tty_open+0x38>
   15478:	83 ec 08             	sub    $0x8,%esp
   1547b:	ff 75 f4             	pushl  -0xc(%ebp)
   1547e:	68 44 97 01 00       	push   $0x19744
   15483:	e8 15 36 00 00       	call   18a9d <log_printf>
   15488:	83 c4 10             	add    $0x10,%esp
   1548b:	b8 ff ff ff ff       	mov    $0xffffffff,%eax
   15490:	e9 bf 00 00 00       	jmp    15554 <tty_open+0xf7>
   15495:	8b 45 f4             	mov    -0xc(%ebp),%eax
   15498:	69 c0 54 04 00 00    	imul   $0x454,%eax,%eax
   1549e:	05 e0 7c 03 00       	add    $0x37ce0,%eax
   154a3:	89 45 f0             	mov    %eax,-0x10(%ebp)
   154a6:	8b 45 f0             	mov    -0x10(%ebp),%eax
   154a9:	8b 55 f0             	mov    -0x10(%ebp),%edx
   154ac:	81 c2 00 04 00 00    	add    $0x400,%edx
   154b2:	83 ec 04             	sub    $0x4,%esp
   154b5:	68 00 02 00 00       	push   $0x200
   154ba:	50                   	push   %eax
   154bb:	52                   	push   %edx
   154bc:	e8 42 fe ff ff       	call   15303 <tty_fifo_init>
   154c1:	83 c4 10             	add    $0x10,%esp
   154c4:	8b 45 f0             	mov    -0x10(%ebp),%eax
   154c7:	05 28 04 00 00       	add    $0x428,%eax
   154cc:	83 ec 08             	sub    $0x8,%esp
   154cf:	68 00 02 00 00       	push   $0x200
   154d4:	50                   	push   %eax
   154d5:	e8 5a 2a 00 00       	call   17f34 <sem_init>
   154da:	83 c4 10             	add    $0x10,%esp
   154dd:	8b 45 f0             	mov    -0x10(%ebp),%eax
   154e0:	8d 90 00 02 00 00    	lea    0x200(%eax),%edx
   154e6:	8b 45 f0             	mov    -0x10(%ebp),%eax
   154e9:	05 14 04 00 00       	add    $0x414,%eax
   154ee:	83 ec 04             	sub    $0x4,%esp
   154f1:	68 00 02 00 00       	push   $0x200
   154f6:	52                   	push   %edx
   154f7:	50                   	push   %eax
   154f8:	e8 06 fe ff ff       	call   15303 <tty_fifo_init>
   154fd:	83 c4 10             	add    $0x10,%esp
   15500:	8b 45 f0             	mov    -0x10(%ebp),%eax
   15503:	05 38 04 00 00       	add    $0x438,%eax
   15508:	83 ec 08             	sub    $0x8,%esp
   1550b:	6a 00                	push   $0x0
   1550d:	50                   	push   %eax
   1550e:	e8 21 2a 00 00       	call   17f34 <sem_init>
   15513:	83 c4 10             	add    $0x10,%esp
   15516:	8b 45 f0             	mov    -0x10(%ebp),%eax
   15519:	c7 80 48 04 00 00 01 	movl   $0x1,0x448(%eax)
   15520:	00 00 00 
   15523:	8b 45 f0             	mov    -0x10(%ebp),%eax
   15526:	c7 80 4c 04 00 00 02 	movl   $0x2,0x44c(%eax)
   1552d:	00 00 00 
   15530:	8b 45 f0             	mov    -0x10(%ebp),%eax
   15533:	8b 55 f4             	mov    -0xc(%ebp),%edx
   15536:	89 90 50 04 00 00    	mov    %edx,0x450(%eax)
   1553c:	e8 06 f9 ff ff       	call   14e47 <kbd_init>
   15541:	83 ec 0c             	sub    $0xc,%esp
   15544:	ff 75 f4             	pushl  -0xc(%ebp)
   15547:	e8 1d e4 ff ff       	call   13969 <console_init>
   1554c:	83 c4 10             	add    $0x10,%esp
   1554f:	b8 00 00 00 00       	mov    $0x0,%eax
   15554:	c9                   	leave  
   15555:	c3                   	ret    

00015556 <tty_close>:
   15556:	55                   	push   %ebp
   15557:	89 e5                	mov    %esp,%ebp
   15559:	90                   	nop
   1555a:	5d                   	pop    %ebp
   1555b:	c3                   	ret    

0001555c <tty_read>:
   1555c:	55                   	push   %ebp
   1555d:	89 e5                	mov    %esp,%ebp
   1555f:	83 ec 18             	sub    $0x18,%esp
   15562:	83 7d 14 00          	cmpl   $0x0,0x14(%ebp)
   15566:	79 0a                	jns    15572 <tty_read+0x16>
   15568:	b8 ff ff ff ff       	mov    $0xffffffff,%eax
   1556d:	e9 06 01 00 00       	jmp    15678 <tty_read+0x11c>
   15572:	ff 75 08             	pushl  0x8(%ebp)
   15575:	e8 4d fd ff ff       	call   152c7 <get_tty>
   1557a:	83 c4 04             	add    $0x4,%esp
   1557d:	89 45 ec             	mov    %eax,-0x14(%ebp)
   15580:	8b 45 10             	mov    0x10(%ebp),%eax
   15583:	89 45 f4             	mov    %eax,-0xc(%ebp)
   15586:	c7 45 f0 00 00 00 00 	movl   $0x0,-0x10(%ebp)
   1558d:	e9 d7 00 00 00       	jmp    15669 <tty_read+0x10d>
   15592:	8b 45 ec             	mov    -0x14(%ebp),%eax
   15595:	05 38 04 00 00       	add    $0x438,%eax
   1559a:	83 ec 0c             	sub    $0xc,%esp
   1559d:	50                   	push   %eax
   1559e:	e8 b4 29 00 00       	call   17f57 <sem_wait>
   155a3:	83 c4 10             	add    $0x10,%esp
   155a6:	8b 45 ec             	mov    -0x14(%ebp),%eax
   155a9:	8d 90 14 04 00 00    	lea    0x414(%eax),%edx
   155af:	83 ec 08             	sub    $0x8,%esp
   155b2:	8d 45 eb             	lea    -0x15(%ebp),%eax
   155b5:	50                   	push   %eax
   155b6:	52                   	push   %edx
   155b7:	e8 14 fe ff ff       	call   153d0 <tty_fifo_get>
   155bc:	83 c4 10             	add    $0x10,%esp
   155bf:	0f b6 45 eb          	movzbl -0x15(%ebp),%eax
   155c3:	0f be c0             	movsbl %al,%eax
   155c6:	83 f8 0a             	cmp    $0xa,%eax
   155c9:	74 1a                	je     155e5 <tty_read+0x89>
   155cb:	83 f8 7f             	cmp    $0x7f,%eax
   155ce:	75 52                	jne    15622 <tty_read+0xc6>
   155d0:	83 7d f0 00          	cmpl   $0x0,-0x10(%ebp)
   155d4:	75 05                	jne    155db <tty_read+0x7f>
   155d6:	e9 8e 00 00 00       	jmp    15669 <tty_read+0x10d>
   155db:	83 6d f0 01          	subl   $0x1,-0x10(%ebp)
   155df:	83 6d f4 01          	subl   $0x1,-0xc(%ebp)
   155e3:	eb 51                	jmp    15636 <tty_read+0xda>
   155e5:	8b 45 ec             	mov    -0x14(%ebp),%eax
   155e8:	8b 80 4c 04 00 00    	mov    0x44c(%eax),%eax
   155ee:	83 e0 02             	and    $0x2,%eax
   155f1:	85 c0                	test   %eax,%eax
   155f3:	74 1b                	je     15610 <tty_read+0xb4>
   155f5:	8b 45 14             	mov    0x14(%ebp),%eax
   155f8:	83 e8 01             	sub    $0x1,%eax
   155fb:	39 45 f0             	cmp    %eax,-0x10(%ebp)
   155fe:	7d 10                	jge    15610 <tty_read+0xb4>
   15600:	8b 45 f4             	mov    -0xc(%ebp),%eax
   15603:	8d 50 01             	lea    0x1(%eax),%edx
   15606:	89 55 f4             	mov    %edx,-0xc(%ebp)
   15609:	c6 00 0d             	movb   $0xd,(%eax)
   1560c:	83 45 f0 01          	addl   $0x1,-0x10(%ebp)
   15610:	8b 45 f4             	mov    -0xc(%ebp),%eax
   15613:	8d 50 01             	lea    0x1(%eax),%edx
   15616:	89 55 f4             	mov    %edx,-0xc(%ebp)
   15619:	c6 00 0a             	movb   $0xa,(%eax)
   1561c:	83 45 f0 01          	addl   $0x1,-0x10(%ebp)
   15620:	eb 14                	jmp    15636 <tty_read+0xda>
   15622:	8b 45 f4             	mov    -0xc(%ebp),%eax
   15625:	8d 50 01             	lea    0x1(%eax),%edx
   15628:	89 55 f4             	mov    %edx,-0xc(%ebp)
   1562b:	0f b6 55 eb          	movzbl -0x15(%ebp),%edx
   1562f:	88 10                	mov    %dl,(%eax)
   15631:	83 45 f0 01          	addl   $0x1,-0x10(%ebp)
   15635:	90                   	nop
   15636:	8b 45 ec             	mov    -0x14(%ebp),%eax
   15639:	8b 80 4c 04 00 00    	mov    0x44c(%eax),%eax
   1563f:	83 e0 02             	and    $0x2,%eax
   15642:	85 c0                	test   %eax,%eax
   15644:	74 13                	je     15659 <tty_read+0xfd>
   15646:	6a 01                	push   $0x1
   15648:	8d 45 eb             	lea    -0x15(%ebp),%eax
   1564b:	50                   	push   %eax
   1564c:	6a 00                	push   $0x0
   1564e:	ff 75 08             	pushl  0x8(%ebp)
   15651:	e8 24 00 00 00       	call   1567a <tty_write>
   15656:	83 c4 10             	add    $0x10,%esp
   15659:	0f b6 45 eb          	movzbl -0x15(%ebp),%eax
   1565d:	3c 0a                	cmp    $0xa,%al
   1565f:	74 14                	je     15675 <tty_read+0x119>
   15661:	0f b6 45 eb          	movzbl -0x15(%ebp),%eax
   15665:	3c 0d                	cmp    $0xd,%al
   15667:	74 0c                	je     15675 <tty_read+0x119>
   15669:	8b 45 f0             	mov    -0x10(%ebp),%eax
   1566c:	3b 45 14             	cmp    0x14(%ebp),%eax
   1566f:	0f 8c 1d ff ff ff    	jl     15592 <tty_read+0x36>
   15675:	8b 45 f0             	mov    -0x10(%ebp),%eax
   15678:	c9                   	leave  
   15679:	c3                   	ret    

0001567a <tty_write>:
   1567a:	55                   	push   %ebp
   1567b:	89 e5                	mov    %esp,%ebp
   1567d:	83 ec 18             	sub    $0x18,%esp
   15680:	83 7d 14 00          	cmpl   $0x0,0x14(%ebp)
   15684:	79 0a                	jns    15690 <tty_write+0x16>
   15686:	b8 ff ff ff ff       	mov    $0xffffffff,%eax
   1568b:	e9 8c 00 00 00       	jmp    1571c <tty_write+0xa2>
   15690:	ff 75 08             	pushl  0x8(%ebp)
   15693:	e8 2f fc ff ff       	call   152c7 <get_tty>
   15698:	83 c4 04             	add    $0x4,%esp
   1569b:	89 45 f0             	mov    %eax,-0x10(%ebp)
   1569e:	83 7d f0 00          	cmpl   $0x0,-0x10(%ebp)
   156a2:	75 07                	jne    156ab <tty_write+0x31>
   156a4:	b8 ff ff ff ff       	mov    $0xffffffff,%eax
   156a9:	eb 71                	jmp    1571c <tty_write+0xa2>
   156ab:	c7 45 f4 00 00 00 00 	movl   $0x0,-0xc(%ebp)
   156b2:	eb 5c                	jmp    15710 <tty_write+0x96>
   156b4:	8b 45 10             	mov    0x10(%ebp),%eax
   156b7:	8d 50 01             	lea    0x1(%eax),%edx
   156ba:	89 55 10             	mov    %edx,0x10(%ebp)
   156bd:	0f b6 00             	movzbl (%eax),%eax
   156c0:	88 45 ef             	mov    %al,-0x11(%ebp)
   156c3:	8b 45 f0             	mov    -0x10(%ebp),%eax
   156c6:	05 28 04 00 00       	add    $0x428,%eax
   156cb:	83 ec 0c             	sub    $0xc,%esp
   156ce:	50                   	push   %eax
   156cf:	e8 83 28 00 00       	call   17f57 <sem_wait>
   156d4:	83 c4 10             	add    $0x10,%esp
   156d7:	0f be 45 ef          	movsbl -0x11(%ebp),%eax
   156db:	8b 55 f0             	mov    -0x10(%ebp),%edx
   156de:	81 c2 00 04 00 00    	add    $0x400,%edx
   156e4:	83 ec 08             	sub    $0x8,%esp
   156e7:	50                   	push   %eax
   156e8:	52                   	push   %edx
   156e9:	e8 4a fc ff ff       	call   15338 <tty_fifo_put>
   156ee:	83 c4 10             	add    $0x10,%esp
   156f1:	89 45 e8             	mov    %eax,-0x18(%ebp)
   156f4:	83 7d e8 00          	cmpl   $0x0,-0x18(%ebp)
   156f8:	78 1e                	js     15718 <tty_write+0x9e>
   156fa:	83 45 f4 01          	addl   $0x1,-0xc(%ebp)
   156fe:	83 6d 14 01          	subl   $0x1,0x14(%ebp)
   15702:	83 ec 0c             	sub    $0xc,%esp
   15705:	ff 75 f0             	pushl  -0x10(%ebp)
   15708:	e8 55 e9 ff ff       	call   14062 <console_write>
   1570d:	83 c4 10             	add    $0x10,%esp
   15710:	83 7d 14 00          	cmpl   $0x0,0x14(%ebp)
   15714:	75 9e                	jne    156b4 <tty_write+0x3a>
   15716:	eb 01                	jmp    15719 <tty_write+0x9f>
   15718:	90                   	nop
   15719:	8b 45 f4             	mov    -0xc(%ebp),%eax
   1571c:	c9                   	leave  
   1571d:	c3                   	ret    

0001571e <tty_control>:
   1571e:	55                   	push   %ebp
   1571f:	89 e5                	mov    %esp,%ebp
   15721:	83 ec 10             	sub    $0x10,%esp
   15724:	ff 75 08             	pushl  0x8(%ebp)
   15727:	e8 9b fb ff ff       	call   152c7 <get_tty>
   1572c:	83 c4 04             	add    $0x4,%esp
   1572f:	89 45 fc             	mov    %eax,-0x4(%ebp)
   15732:	8b 45 0c             	mov    0xc(%ebp),%eax
   15735:	83 f8 01             	cmp    $0x1,%eax
   15738:	74 02                	je     1573c <tty_control+0x1e>
   1573a:	eb 37                	jmp    15773 <tty_control+0x55>
   1573c:	83 7d 10 00          	cmpl   $0x0,0x10(%ebp)
   15740:	74 19                	je     1575b <tty_control+0x3d>
   15742:	8b 45 fc             	mov    -0x4(%ebp),%eax
   15745:	8b 80 4c 04 00 00    	mov    0x44c(%eax),%eax
   1574b:	83 c8 02             	or     $0x2,%eax
   1574e:	89 c2                	mov    %eax,%edx
   15750:	8b 45 fc             	mov    -0x4(%ebp),%eax
   15753:	89 90 4c 04 00 00    	mov    %edx,0x44c(%eax)
   15759:	eb 17                	jmp    15772 <tty_control+0x54>
   1575b:	8b 45 fc             	mov    -0x4(%ebp),%eax
   1575e:	8b 80 4c 04 00 00    	mov    0x44c(%eax),%eax
   15764:	83 e0 fd             	and    $0xfffffffd,%eax
   15767:	89 c2                	mov    %eax,%edx
   15769:	8b 45 fc             	mov    -0x4(%ebp),%eax
   1576c:	89 90 4c 04 00 00    	mov    %edx,0x44c(%eax)
   15772:	90                   	nop
   15773:	b8 00 00 00 00       	mov    $0x0,%eax
   15778:	c9                   	leave  
   15779:	c3                   	ret    

0001577a <tty_in>:
   1577a:	55                   	push   %ebp
   1577b:	89 e5                	mov    %esp,%ebp
   1577d:	83 ec 28             	sub    $0x28,%esp
   15780:	8b 45 08             	mov    0x8(%ebp),%eax
   15783:	88 45 e4             	mov    %al,-0x1c(%ebp)
   15786:	a1 80 9f 03 00       	mov    0x39f80,%eax
   1578b:	69 c0 54 04 00 00    	imul   $0x454,%eax,%eax
   15791:	05 e0 7c 03 00       	add    $0x37ce0,%eax
   15796:	89 45 f4             	mov    %eax,-0xc(%ebp)
   15799:	8b 45 f4             	mov    -0xc(%ebp),%eax
   1579c:	05 38 04 00 00       	add    $0x438,%eax
   157a1:	83 ec 0c             	sub    $0xc,%esp
   157a4:	50                   	push   %eax
   157a5:	e8 9a 28 00 00       	call   18044 <sem_count>
   157aa:	83 c4 10             	add    $0x10,%esp
   157ad:	3d ff 01 00 00       	cmp    $0x1ff,%eax
   157b2:	7f 30                	jg     157e4 <tty_in+0x6a>
   157b4:	0f be 45 e4          	movsbl -0x1c(%ebp),%eax
   157b8:	8b 55 f4             	mov    -0xc(%ebp),%edx
   157bb:	81 c2 14 04 00 00    	add    $0x414,%edx
   157c1:	83 ec 08             	sub    $0x8,%esp
   157c4:	50                   	push   %eax
   157c5:	52                   	push   %edx
   157c6:	e8 6d fb ff ff       	call   15338 <tty_fifo_put>
   157cb:	83 c4 10             	add    $0x10,%esp
   157ce:	8b 45 f4             	mov    -0xc(%ebp),%eax
   157d1:	05 38 04 00 00       	add    $0x438,%eax
   157d6:	83 ec 0c             	sub    $0xc,%esp
   157d9:	50                   	push   %eax
   157da:	e8 e3 27 00 00       	call   17fc2 <sem_notify>
   157df:	83 c4 10             	add    $0x10,%esp
   157e2:	eb 01                	jmp    157e5 <tty_in+0x6b>
   157e4:	90                   	nop
   157e5:	c9                   	leave  
   157e6:	c3                   	ret    

000157e7 <tty_select>:
   157e7:	55                   	push   %ebp
   157e8:	89 e5                	mov    %esp,%ebp
   157ea:	83 ec 08             	sub    $0x8,%esp
   157ed:	a1 80 9f 03 00       	mov    0x39f80,%eax
   157f2:	39 45 08             	cmp    %eax,0x8(%ebp)
   157f5:	74 16                	je     1580d <tty_select+0x26>
   157f7:	83 ec 0c             	sub    $0xc,%esp
   157fa:	ff 75 08             	pushl  0x8(%ebp)
   157fd:	e8 6a e9 ff ff       	call   1416c <console_select>
   15802:	83 c4 10             	add    $0x10,%esp
   15805:	8b 45 08             	mov    0x8(%ebp),%eax
   15808:	a3 80 9f 03 00       	mov    %eax,0x39f80
   1580d:	90                   	nop
   1580e:	c9                   	leave  
   1580f:	c3                   	ret    

00015810 <devfs_mount>:
   15810:	55                   	push   %ebp
   15811:	89 e5                	mov    %esp,%ebp
   15813:	8b 45 08             	mov    0x8(%ebp),%eax
   15816:	c7 80 88 00 00 00 01 	movl   $0x1,0x88(%eax)
   1581d:	00 00 00 
   15820:	b8 00 00 00 00       	mov    $0x0,%eax
   15825:	5d                   	pop    %ebp
   15826:	c3                   	ret    

00015827 <devfs_umount>:
   15827:	55                   	push   %ebp
   15828:	89 e5                	mov    %esp,%ebp
   1582a:	90                   	nop
   1582b:	5d                   	pop    %ebp
   1582c:	c3                   	ret    

0001582d <devfs_open>:
   1582d:	55                   	push   %ebp
   1582e:	89 e5                	mov    %esp,%ebp
   15830:	83 ec 28             	sub    $0x28,%esp
   15833:	c7 45 f4 00 00 00 00 	movl   $0x0,-0xc(%ebp)
   1583a:	e9 04 01 00 00       	jmp    15943 <devfs_open+0x116>
   1583f:	8b 55 f4             	mov    -0xc(%ebp),%edx
   15842:	89 d0                	mov    %edx,%eax
   15844:	01 c0                	add    %eax,%eax
   15846:	01 d0                	add    %edx,%eax
   15848:	c1 e0 02             	shl    $0x2,%eax
   1584b:	05 e0 a0 01 00       	add    $0x1a0e0,%eax
   15850:	89 45 f0             	mov    %eax,-0x10(%ebp)
   15853:	8b 45 f0             	mov    -0x10(%ebp),%eax
   15856:	8b 00                	mov    (%eax),%eax
   15858:	83 ec 0c             	sub    $0xc,%esp
   1585b:	50                   	push   %eax
   1585c:	e8 73 2b 00 00       	call   183d4 <kernel_strlen>
   15861:	83 c4 10             	add    $0x10,%esp
   15864:	89 45 ec             	mov    %eax,-0x14(%ebp)
   15867:	8b 45 f0             	mov    -0x10(%ebp),%eax
   1586a:	8b 00                	mov    (%eax),%eax
   1586c:	83 ec 04             	sub    $0x4,%esp
   1586f:	ff 75 ec             	pushl  -0x14(%ebp)
   15872:	50                   	push   %eax
   15873:	ff 75 0c             	pushl  0xc(%ebp)
   15876:	e8 df 2a 00 00       	call   1835a <kernel_strncmp>
   1587b:	83 c4 10             	add    $0x10,%esp
   1587e:	85 c0                	test   %eax,%eax
   15880:	0f 85 b9 00 00 00    	jne    1593f <devfs_open+0x112>
   15886:	83 ec 0c             	sub    $0xc,%esp
   15889:	ff 75 0c             	pushl  0xc(%ebp)
   1588c:	e8 43 2b 00 00       	call   183d4 <kernel_strlen>
   15891:	83 c4 10             	add    $0x10,%esp
   15894:	39 45 ec             	cmp    %eax,-0x14(%ebp)
   15897:	7f 1c                	jg     158b5 <devfs_open+0x88>
   15899:	8b 55 ec             	mov    -0x14(%ebp),%edx
   1589c:	8b 45 0c             	mov    0xc(%ebp),%eax
   1589f:	01 c2                	add    %eax,%edx
   158a1:	83 ec 08             	sub    $0x8,%esp
   158a4:	8d 45 e4             	lea    -0x1c(%ebp),%eax
   158a7:	50                   	push   %eax
   158a8:	52                   	push   %edx
   158a9:	e8 55 19 00 00       	call   17203 <path_to_num>
   158ae:	83 c4 10             	add    $0x10,%esp
   158b1:	85 c0                	test   %eax,%eax
   158b3:	79 18                	jns    158cd <devfs_open+0xa0>
   158b5:	83 ec 08             	sub    $0x8,%esp
   158b8:	ff 75 0c             	pushl  0xc(%ebp)
   158bb:	68 6b 97 01 00       	push   $0x1976b
   158c0:	e8 d8 31 00 00       	call   18a9d <log_printf>
   158c5:	83 c4 10             	add    $0x10,%esp
   158c8:	e9 80 00 00 00       	jmp    1594d <devfs_open+0x120>
   158cd:	8b 55 e4             	mov    -0x1c(%ebp),%edx
   158d0:	8b 45 f0             	mov    -0x10(%ebp),%eax
   158d3:	8b 40 04             	mov    0x4(%eax),%eax
   158d6:	83 ec 04             	sub    $0x4,%esp
   158d9:	6a 00                	push   $0x0
   158db:	52                   	push   %edx
   158dc:	50                   	push   %eax
   158dd:	e8 77 e9 ff ff       	call   14259 <dev_open>
   158e2:	83 c4 10             	add    $0x10,%esp
   158e5:	89 45 e8             	mov    %eax,-0x18(%ebp)
   158e8:	83 7d e8 00          	cmpl   $0x0,-0x18(%ebp)
   158ec:	79 16                	jns    15904 <devfs_open+0xd7>
   158ee:	83 ec 08             	sub    $0x8,%esp
   158f1:	ff 75 0c             	pushl  0xc(%ebp)
   158f4:	68 6b 97 01 00       	push   $0x1976b
   158f9:	e8 9f 31 00 00       	call   18a9d <log_printf>
   158fe:	83 c4 10             	add    $0x10,%esp
   15901:	90                   	nop
   15902:	eb 49                	jmp    1594d <devfs_open+0x120>
   15904:	8b 45 10             	mov    0x10(%ebp),%eax
   15907:	8b 55 e8             	mov    -0x18(%ebp),%edx
   1590a:	89 50 2c             	mov    %edx,0x2c(%eax)
   1590d:	8b 45 10             	mov    0x10(%ebp),%eax
   15910:	8b 55 08             	mov    0x8(%ebp),%edx
   15913:	89 50 44             	mov    %edx,0x44(%eax)
   15916:	8b 45 10             	mov    0x10(%ebp),%eax
   15919:	c7 40 30 00 00 00 00 	movl   $0x0,0x30(%eax)
   15920:	8b 45 10             	mov    0x10(%ebp),%eax
   15923:	c7 40 24 00 00 00 00 	movl   $0x0,0x24(%eax)
   1592a:	8b 45 f0             	mov    -0x10(%ebp),%eax
   1592d:	8b 40 08             	mov    0x8(%eax),%eax
   15930:	89 c2                	mov    %eax,%edx
   15932:	8b 45 10             	mov    0x10(%ebp),%eax
   15935:	89 50 20             	mov    %edx,0x20(%eax)
   15938:	b8 00 00 00 00       	mov    $0x0,%eax
   1593d:	eb 13                	jmp    15952 <devfs_open+0x125>
   1593f:	83 45 f4 01          	addl   $0x1,-0xc(%ebp)
   15943:	83 7d f4 00          	cmpl   $0x0,-0xc(%ebp)
   15947:	0f 84 f2 fe ff ff    	je     1583f <devfs_open+0x12>
   1594d:	b8 00 00 00 00       	mov    $0x0,%eax
   15952:	c9                   	leave  
   15953:	c3                   	ret    

00015954 <devfs_read>:
   15954:	55                   	push   %ebp
   15955:	89 e5                	mov    %esp,%ebp
   15957:	83 ec 08             	sub    $0x8,%esp
   1595a:	8b 45 10             	mov    0x10(%ebp),%eax
   1595d:	8b 50 30             	mov    0x30(%eax),%edx
   15960:	8b 45 10             	mov    0x10(%ebp),%eax
   15963:	8b 40 2c             	mov    0x2c(%eax),%eax
   15966:	ff 75 0c             	pushl  0xc(%ebp)
   15969:	ff 75 08             	pushl  0x8(%ebp)
   1596c:	52                   	push   %edx
   1596d:	50                   	push   %eax
   1596e:	e8 a3 ea ff ff       	call   14416 <dev_read>
   15973:	83 c4 10             	add    $0x10,%esp
   15976:	c9                   	leave  
   15977:	c3                   	ret    

00015978 <devfs_write>:
   15978:	55                   	push   %ebp
   15979:	89 e5                	mov    %esp,%ebp
   1597b:	83 ec 08             	sub    $0x8,%esp
   1597e:	8b 45 10             	mov    0x10(%ebp),%eax
   15981:	8b 50 30             	mov    0x30(%eax),%edx
   15984:	8b 45 10             	mov    0x10(%ebp),%eax
   15987:	8b 40 2c             	mov    0x2c(%eax),%eax
   1598a:	ff 75 0c             	pushl  0xc(%ebp)
   1598d:	ff 75 08             	pushl  0x8(%ebp)
   15990:	52                   	push   %edx
   15991:	50                   	push   %eax
   15992:	e8 cb ea ff ff       	call   14462 <dev_write>
   15997:	83 c4 10             	add    $0x10,%esp
   1599a:	c9                   	leave  
   1599b:	c3                   	ret    

0001599c <devfs_close>:
   1599c:	55                   	push   %ebp
   1599d:	89 e5                	mov    %esp,%ebp
   1599f:	83 ec 08             	sub    $0x8,%esp
   159a2:	8b 45 08             	mov    0x8(%ebp),%eax
   159a5:	8b 40 2c             	mov    0x2c(%eax),%eax
   159a8:	83 ec 0c             	sub    $0xc,%esp
   159ab:	50                   	push   %eax
   159ac:	e8 f4 e9 ff ff       	call   143a5 <dev_close>
   159b1:	83 c4 10             	add    $0x10,%esp
   159b4:	90                   	nop
   159b5:	c9                   	leave  
   159b6:	c3                   	ret    

000159b7 <devfs_seek>:
   159b7:	55                   	push   %ebp
   159b8:	89 e5                	mov    %esp,%ebp
   159ba:	b8 ff ff ff ff       	mov    $0xffffffff,%eax
   159bf:	5d                   	pop    %ebp
   159c0:	c3                   	ret    

000159c1 <devfs_stat>:
   159c1:	55                   	push   %ebp
   159c2:	89 e5                	mov    %esp,%ebp
   159c4:	b8 ff ff ff ff       	mov    $0xffffffff,%eax
   159c9:	5d                   	pop    %ebp
   159ca:	c3                   	ret    

000159cb <devfs_ioctl>:
   159cb:	55                   	push   %ebp
   159cc:	89 e5                	mov    %esp,%ebp
   159ce:	83 ec 08             	sub    $0x8,%esp
   159d1:	8b 45 08             	mov    0x8(%ebp),%eax
   159d4:	8b 40 2c             	mov    0x2c(%eax),%eax
   159d7:	ff 75 14             	pushl  0x14(%ebp)
   159da:	ff 75 10             	pushl  0x10(%ebp)
   159dd:	ff 75 0c             	pushl  0xc(%ebp)
   159e0:	50                   	push   %eax
   159e1:	e8 c8 ea ff ff       	call   144ae <dev_control>
   159e6:	83 c4 10             	add    $0x10,%esp
   159e9:	c9                   	leave  
   159ea:	c3                   	ret    

000159eb <up2>:
   159eb:	55                   	push   %ebp
   159ec:	89 e5                	mov    %esp,%ebp
   159ee:	8b 55 08             	mov    0x8(%ebp),%edx
   159f1:	8b 45 0c             	mov    0xc(%ebp),%eax
   159f4:	01 d0                	add    %edx,%eax
   159f6:	8d 50 ff             	lea    -0x1(%eax),%edx
   159f9:	8b 45 0c             	mov    0xc(%ebp),%eax
   159fc:	f7 d8                	neg    %eax
   159fe:	21 d0                	and    %edx,%eax
   15a00:	5d                   	pop    %ebp
   15a01:	c3                   	ret    

00015a02 <bread_sector>:
   15a02:	55                   	push   %ebp
   15a03:	89 e5                	mov    %esp,%ebp
   15a05:	83 ec 18             	sub    $0x18,%esp
   15a08:	8b 45 08             	mov    0x8(%ebp),%eax
   15a0b:	8b 40 28             	mov    0x28(%eax),%eax
   15a0e:	39 45 0c             	cmp    %eax,0xc(%ebp)
   15a11:	75 07                	jne    15a1a <bread_sector+0x18>
   15a13:	b8 00 00 00 00       	mov    $0x0,%eax
   15a18:	eb 3f                	jmp    15a59 <bread_sector+0x57>
   15a1a:	8b 45 08             	mov    0x8(%ebp),%eax
   15a1d:	8b 50 24             	mov    0x24(%eax),%edx
   15a20:	8b 45 08             	mov    0x8(%ebp),%eax
   15a23:	8b 40 2c             	mov    0x2c(%eax),%eax
   15a26:	8b 80 94 00 00 00    	mov    0x94(%eax),%eax
   15a2c:	6a 01                	push   $0x1
   15a2e:	52                   	push   %edx
   15a2f:	ff 75 0c             	pushl  0xc(%ebp)
   15a32:	50                   	push   %eax
   15a33:	e8 de e9 ff ff       	call   14416 <dev_read>
   15a38:	83 c4 10             	add    $0x10,%esp
   15a3b:	89 45 f4             	mov    %eax,-0xc(%ebp)
   15a3e:	83 7d f4 01          	cmpl   $0x1,-0xc(%ebp)
   15a42:	75 10                	jne    15a54 <bread_sector+0x52>
   15a44:	8b 45 08             	mov    0x8(%ebp),%eax
   15a47:	8b 55 0c             	mov    0xc(%ebp),%edx
   15a4a:	89 50 28             	mov    %edx,0x28(%eax)
   15a4d:	b8 00 00 00 00       	mov    $0x0,%eax
   15a52:	eb 05                	jmp    15a59 <bread_sector+0x57>
   15a54:	b8 ff ff ff ff       	mov    $0xffffffff,%eax
   15a59:	c9                   	leave  
   15a5a:	c3                   	ret    

00015a5b <bwrite_sector>:
   15a5b:	55                   	push   %ebp
   15a5c:	89 e5                	mov    %esp,%ebp
   15a5e:	83 ec 18             	sub    $0x18,%esp
   15a61:	8b 45 08             	mov    0x8(%ebp),%eax
   15a64:	8b 50 24             	mov    0x24(%eax),%edx
   15a67:	8b 45 08             	mov    0x8(%ebp),%eax
   15a6a:	8b 40 2c             	mov    0x2c(%eax),%eax
   15a6d:	8b 80 94 00 00 00    	mov    0x94(%eax),%eax
   15a73:	6a 01                	push   $0x1
   15a75:	52                   	push   %edx
   15a76:	ff 75 0c             	pushl  0xc(%ebp)
   15a79:	50                   	push   %eax
   15a7a:	e8 e3 e9 ff ff       	call   14462 <dev_write>
   15a7f:	83 c4 10             	add    $0x10,%esp
   15a82:	89 45 f4             	mov    %eax,-0xc(%ebp)
   15a85:	83 7d f4 01          	cmpl   $0x1,-0xc(%ebp)
   15a89:	75 10                	jne    15a9b <bwrite_sector+0x40>
   15a8b:	8b 45 08             	mov    0x8(%ebp),%eax
   15a8e:	8b 55 0c             	mov    0xc(%ebp),%edx
   15a91:	89 50 28             	mov    %edx,0x28(%eax)
   15a94:	b8 00 00 00 00       	mov    $0x0,%eax
   15a99:	eb 05                	jmp    15aa0 <bwrite_sector+0x45>
   15a9b:	b8 ff ff ff ff       	mov    $0xffffffff,%eax
   15aa0:	c9                   	leave  
   15aa1:	c3                   	ret    

00015aa2 <diritem_gt_name>:
   15aa2:	55                   	push   %ebp
   15aa3:	89 e5                	mov    %esp,%ebp
   15aa5:	83 ec 18             	sub    $0x18,%esp
   15aa8:	8b 45 0c             	mov    0xc(%ebp),%eax
   15aab:	89 45 f4             	mov    %eax,-0xc(%ebp)
   15aae:	c7 45 f0 00 00 00 00 	movl   $0x0,-0x10(%ebp)
   15ab5:	83 ec 04             	sub    $0x4,%esp
   15ab8:	6a 0c                	push   $0xc
   15aba:	6a 00                	push   $0x0
   15abc:	ff 75 0c             	pushl  0xc(%ebp)
   15abf:	e8 9a 29 00 00       	call   1845e <kernel_memset>
   15ac4:	83 c4 10             	add    $0x10,%esp
   15ac7:	c7 45 ec 00 00 00 00 	movl   $0x0,-0x14(%ebp)
   15ace:	eb 43                	jmp    15b13 <diritem_gt_name+0x71>
   15ad0:	8b 55 08             	mov    0x8(%ebp),%edx
   15ad3:	8b 45 ec             	mov    -0x14(%ebp),%eax
   15ad6:	01 d0                	add    %edx,%eax
   15ad8:	0f b6 00             	movzbl (%eax),%eax
   15adb:	3c 20                	cmp    $0x20,%al
   15add:	74 18                	je     15af7 <diritem_gt_name+0x55>
   15adf:	8b 55 08             	mov    0x8(%ebp),%edx
   15ae2:	8b 45 ec             	mov    -0x14(%ebp),%eax
   15ae5:	01 d0                	add    %edx,%eax
   15ae7:	0f b6 08             	movzbl (%eax),%ecx
   15aea:	8b 45 f4             	mov    -0xc(%ebp),%eax
   15aed:	8d 50 01             	lea    0x1(%eax),%edx
   15af0:	89 55 f4             	mov    %edx,-0xc(%ebp)
   15af3:	89 ca                	mov    %ecx,%edx
   15af5:	88 10                	mov    %dl,(%eax)
   15af7:	83 7d ec 07          	cmpl   $0x7,-0x14(%ebp)
   15afb:	75 12                	jne    15b0f <diritem_gt_name+0x6d>
   15afd:	8b 45 f4             	mov    -0xc(%ebp),%eax
   15b00:	89 45 f0             	mov    %eax,-0x10(%ebp)
   15b03:	8b 45 f4             	mov    -0xc(%ebp),%eax
   15b06:	8d 50 01             	lea    0x1(%eax),%edx
   15b09:	89 55 f4             	mov    %edx,-0xc(%ebp)
   15b0c:	c6 00 2e             	movb   $0x2e,(%eax)
   15b0f:	83 45 ec 01          	addl   $0x1,-0x14(%ebp)
   15b13:	83 7d ec 0a          	cmpl   $0xa,-0x14(%ebp)
   15b17:	7e b7                	jle    15ad0 <diritem_gt_name+0x2e>
   15b19:	83 7d f0 00          	cmpl   $0x0,-0x10(%ebp)
   15b1d:	74 13                	je     15b32 <diritem_gt_name+0x90>
   15b1f:	8b 45 f0             	mov    -0x10(%ebp),%eax
   15b22:	83 c0 01             	add    $0x1,%eax
   15b25:	0f b6 00             	movzbl (%eax),%eax
   15b28:	84 c0                	test   %al,%al
   15b2a:	75 06                	jne    15b32 <diritem_gt_name+0x90>
   15b2c:	8b 45 f0             	mov    -0x10(%ebp),%eax
   15b2f:	c6 00 00             	movb   $0x0,(%eax)
   15b32:	90                   	nop
   15b33:	c9                   	leave  
   15b34:	c3                   	ret    

00015b35 <read_dir_entry>:
   15b35:	55                   	push   %ebp
   15b36:	89 e5                	mov    %esp,%ebp
   15b38:	53                   	push   %ebx
   15b39:	83 ec 14             	sub    $0x14,%esp
   15b3c:	83 7d 0c 00          	cmpl   $0x0,0xc(%ebp)
   15b40:	78 0d                	js     15b4f <read_dir_entry+0x1a>
   15b42:	8b 45 08             	mov    0x8(%ebp),%eax
   15b45:	8b 50 14             	mov    0x14(%eax),%edx
   15b48:	8b 45 0c             	mov    0xc(%ebp),%eax
   15b4b:	39 c2                	cmp    %eax,%edx
   15b4d:	77 07                	ja     15b56 <read_dir_entry+0x21>
   15b4f:	b8 00 00 00 00       	mov    $0x0,%eax
   15b54:	eb 5f                	jmp    15bb5 <read_dir_entry+0x80>
   15b56:	8b 45 0c             	mov    0xc(%ebp),%eax
   15b59:	c1 e0 05             	shl    $0x5,%eax
   15b5c:	89 45 f4             	mov    %eax,-0xc(%ebp)
   15b5f:	8b 45 08             	mov    0x8(%ebp),%eax
   15b62:	8b 48 18             	mov    0x18(%eax),%ecx
   15b65:	8b 45 f4             	mov    -0xc(%ebp),%eax
   15b68:	8b 55 08             	mov    0x8(%ebp),%edx
   15b6b:	8b 5a 0c             	mov    0xc(%edx),%ebx
   15b6e:	ba 00 00 00 00       	mov    $0x0,%edx
   15b73:	f7 f3                	div    %ebx
   15b75:	01 c8                	add    %ecx,%eax
   15b77:	89 45 f0             	mov    %eax,-0x10(%ebp)
   15b7a:	83 ec 08             	sub    $0x8,%esp
   15b7d:	ff 75 f0             	pushl  -0x10(%ebp)
   15b80:	ff 75 08             	pushl  0x8(%ebp)
   15b83:	e8 7a fe ff ff       	call   15a02 <bread_sector>
   15b88:	83 c4 10             	add    $0x10,%esp
   15b8b:	89 45 ec             	mov    %eax,-0x14(%ebp)
   15b8e:	83 7d ec 00          	cmpl   $0x0,-0x14(%ebp)
   15b92:	79 07                	jns    15b9b <read_dir_entry+0x66>
   15b94:	b8 00 00 00 00       	mov    $0x0,%eax
   15b99:	eb 1a                	jmp    15bb5 <read_dir_entry+0x80>
   15b9b:	8b 45 08             	mov    0x8(%ebp),%eax
   15b9e:	8b 48 24             	mov    0x24(%eax),%ecx
   15ba1:	8b 45 f4             	mov    -0xc(%ebp),%eax
   15ba4:	8b 55 08             	mov    0x8(%ebp),%edx
   15ba7:	8b 5a 0c             	mov    0xc(%edx),%ebx
   15baa:	ba 00 00 00 00       	mov    $0x0,%edx
   15baf:	f7 f3                	div    %ebx
   15bb1:	89 d0                	mov    %edx,%eax
   15bb3:	01 c8                	add    %ecx,%eax
   15bb5:	8b 5d fc             	mov    -0x4(%ebp),%ebx
   15bb8:	c9                   	leave  
   15bb9:	c3                   	ret    

00015bba <write_dir_entry>:
   15bba:	55                   	push   %ebp
   15bbb:	89 e5                	mov    %esp,%ebp
   15bbd:	53                   	push   %ebx
   15bbe:	83 ec 14             	sub    $0x14,%esp
   15bc1:	83 7d 10 00          	cmpl   $0x0,0x10(%ebp)
   15bc5:	78 0d                	js     15bd4 <write_dir_entry+0x1a>
   15bc7:	8b 45 08             	mov    0x8(%ebp),%eax
   15bca:	8b 50 14             	mov    0x14(%eax),%edx
   15bcd:	8b 45 10             	mov    0x10(%ebp),%eax
   15bd0:	39 c2                	cmp    %eax,%edx
   15bd2:	77 07                	ja     15bdb <write_dir_entry+0x21>
   15bd4:	b8 00 00 00 00       	mov    $0x0,%eax
   15bd9:	eb 7f                	jmp    15c5a <write_dir_entry+0xa0>
   15bdb:	8b 45 10             	mov    0x10(%ebp),%eax
   15bde:	c1 e0 05             	shl    $0x5,%eax
   15be1:	89 45 f4             	mov    %eax,-0xc(%ebp)
   15be4:	8b 45 08             	mov    0x8(%ebp),%eax
   15be7:	8b 48 18             	mov    0x18(%eax),%ecx
   15bea:	8b 45 f4             	mov    -0xc(%ebp),%eax
   15bed:	8b 55 08             	mov    0x8(%ebp),%edx
   15bf0:	8b 5a 0c             	mov    0xc(%edx),%ebx
   15bf3:	ba 00 00 00 00       	mov    $0x0,%edx
   15bf8:	f7 f3                	div    %ebx
   15bfa:	01 c8                	add    %ecx,%eax
   15bfc:	89 45 f0             	mov    %eax,-0x10(%ebp)
   15bff:	83 ec 08             	sub    $0x8,%esp
   15c02:	ff 75 f0             	pushl  -0x10(%ebp)
   15c05:	ff 75 08             	pushl  0x8(%ebp)
   15c08:	e8 f5 fd ff ff       	call   15a02 <bread_sector>
   15c0d:	83 c4 10             	add    $0x10,%esp
   15c10:	89 45 ec             	mov    %eax,-0x14(%ebp)
   15c13:	83 7d ec 00          	cmpl   $0x0,-0x14(%ebp)
   15c17:	79 05                	jns    15c1e <write_dir_entry+0x64>
   15c19:	8b 45 ec             	mov    -0x14(%ebp),%eax
   15c1c:	eb 3c                	jmp    15c5a <write_dir_entry+0xa0>
   15c1e:	8b 45 08             	mov    0x8(%ebp),%eax
   15c21:	8b 48 24             	mov    0x24(%eax),%ecx
   15c24:	8b 45 f4             	mov    -0xc(%ebp),%eax
   15c27:	8b 55 08             	mov    0x8(%ebp),%edx
   15c2a:	8b 5a 0c             	mov    0xc(%edx),%ebx
   15c2d:	ba 00 00 00 00       	mov    $0x0,%edx
   15c32:	f7 f3                	div    %ebx
   15c34:	89 d0                	mov    %edx,%eax
   15c36:	01 c8                	add    %ecx,%eax
   15c38:	83 ec 04             	sub    $0x4,%esp
   15c3b:	6a 20                	push   $0x20
   15c3d:	ff 75 0c             	pushl  0xc(%ebp)
   15c40:	50                   	push   %eax
   15c41:	e8 c9 27 00 00       	call   1840f <kernel_memcpy>
   15c46:	83 c4 10             	add    $0x10,%esp
   15c49:	83 ec 08             	sub    $0x8,%esp
   15c4c:	ff 75 f0             	pushl  -0x10(%ebp)
   15c4f:	ff 75 08             	pushl  0x8(%ebp)
   15c52:	e8 04 fe ff ff       	call   15a5b <bwrite_sector>
   15c57:	83 c4 10             	add    $0x10,%esp
   15c5a:	8b 5d fc             	mov    -0x4(%ebp),%ebx
   15c5d:	c9                   	leave  
   15c5e:	c3                   	ret    

00015c5f <diritem_get_type>:
   15c5f:	55                   	push   %ebp
   15c60:	89 e5                	mov    %esp,%ebp
   15c62:	83 ec 10             	sub    $0x10,%esp
   15c65:	c7 45 fc 00 00 00 00 	movl   $0x0,-0x4(%ebp)
   15c6c:	8b 45 08             	mov    0x8(%ebp),%eax
   15c6f:	0f b6 40 0b          	movzbl 0xb(%eax),%eax
   15c73:	0f b6 c0             	movzbl %al,%eax
   15c76:	83 e0 0e             	and    $0xe,%eax
   15c79:	85 c0                	test   %eax,%eax
   15c7b:	74 05                	je     15c82 <diritem_get_type+0x23>
   15c7d:	8b 45 fc             	mov    -0x4(%ebp),%eax
   15c80:	eb 4e                	jmp    15cd0 <diritem_get_type+0x71>
   15c82:	8b 45 08             	mov    0x8(%ebp),%eax
   15c85:	0f b6 40 0b          	movzbl 0xb(%eax),%eax
   15c89:	0f b6 c0             	movzbl %al,%eax
   15c8c:	83 e0 0f             	and    $0xf,%eax
   15c8f:	83 f8 0f             	cmp    $0xf,%eax
   15c92:	75 07                	jne    15c9b <diritem_get_type+0x3c>
   15c94:	b8 00 00 00 00       	mov    $0x0,%eax
   15c99:	eb 35                	jmp    15cd0 <diritem_get_type+0x71>
   15c9b:	8b 45 08             	mov    0x8(%ebp),%eax
   15c9e:	0f b6 40 0b          	movzbl 0xb(%eax),%eax
   15ca2:	0f b6 c0             	movzbl %al,%eax
   15ca5:	83 e0 10             	and    $0x10,%eax
   15ca8:	85 c0                	test   %eax,%eax
   15caa:	74 07                	je     15cb3 <diritem_get_type+0x54>
   15cac:	b8 02 00 00 00       	mov    $0x2,%eax
   15cb1:	eb 1d                	jmp    15cd0 <diritem_get_type+0x71>
   15cb3:	8b 45 08             	mov    0x8(%ebp),%eax
   15cb6:	0f b6 40 0b          	movzbl 0xb(%eax),%eax
   15cba:	0f b6 c0             	movzbl %al,%eax
   15cbd:	83 e0 10             	and    $0x10,%eax
   15cc0:	85 c0                	test   %eax,%eax
   15cc2:	74 07                	je     15ccb <diritem_get_type+0x6c>
   15cc4:	b8 02 00 00 00       	mov    $0x2,%eax
   15cc9:	eb 05                	jmp    15cd0 <diritem_get_type+0x71>
   15ccb:	b8 03 00 00 00       	mov    $0x3,%eax
   15cd0:	c9                   	leave  
   15cd1:	c3                   	ret    

00015cd2 <fatfs_mount>:
   15cd2:	55                   	push   %ebp
   15cd3:	89 e5                	mov    %esp,%ebp
   15cd5:	83 ec 18             	sub    $0x18,%esp
   15cd8:	83 ec 04             	sub    $0x4,%esp
   15cdb:	6a 00                	push   $0x0
   15cdd:	ff 75 10             	pushl  0x10(%ebp)
   15ce0:	ff 75 0c             	pushl  0xc(%ebp)
   15ce3:	e8 71 e5 ff ff       	call   14259 <dev_open>
   15ce8:	83 c4 10             	add    $0x10,%esp
   15ceb:	89 45 f4             	mov    %eax,-0xc(%ebp)
   15cee:	83 7d f4 00          	cmpl   $0x0,-0xc(%ebp)
   15cf2:	79 0a                	jns    15cfe <fatfs_mount+0x2c>
   15cf4:	b8 ff ff ff ff       	mov    $0xffffffff,%eax
   15cf9:	e9 92 01 00 00       	jmp    15e90 <fatfs_mount+0x1be>
   15cfe:	e8 54 ae ff ff       	call   10b57 <memory_alloc_page>
   15d03:	89 45 f0             	mov    %eax,-0x10(%ebp)
   15d06:	83 7d f0 00          	cmpl   $0x0,-0x10(%ebp)
   15d0a:	0f 84 4e 01 00 00    	je     15e5e <fatfs_mount+0x18c>
   15d10:	6a 01                	push   $0x1
   15d12:	ff 75 f0             	pushl  -0x10(%ebp)
   15d15:	6a 00                	push   $0x0
   15d17:	ff 75 f4             	pushl  -0xc(%ebp)
   15d1a:	e8 f7 e6 ff ff       	call   14416 <dev_read>
   15d1f:	83 c4 10             	add    $0x10,%esp
   15d22:	89 45 ec             	mov    %eax,-0x14(%ebp)
   15d25:	83 7d ec 00          	cmpl   $0x0,-0x14(%ebp)
   15d29:	0f 8e 32 01 00 00    	jle    15e61 <fatfs_mount+0x18f>
   15d2f:	8b 45 08             	mov    0x8(%ebp),%eax
   15d32:	05 9c 00 00 00       	add    $0x9c,%eax
   15d37:	89 45 e8             	mov    %eax,-0x18(%ebp)
   15d3a:	8b 45 e8             	mov    -0x18(%ebp),%eax
   15d3d:	8b 55 f0             	mov    -0x10(%ebp),%edx
   15d40:	89 50 24             	mov    %edx,0x24(%eax)
   15d43:	8b 45 f0             	mov    -0x10(%ebp),%eax
   15d46:	0f b7 40 0b          	movzwl 0xb(%eax),%eax
   15d4a:	0f b7 d0             	movzwl %ax,%edx
   15d4d:	8b 45 e8             	mov    -0x18(%ebp),%eax
   15d50:	89 50 0c             	mov    %edx,0xc(%eax)
   15d53:	8b 45 f0             	mov    -0x10(%ebp),%eax
   15d56:	0f b7 40 0e          	movzwl 0xe(%eax),%eax
   15d5a:	0f b7 d0             	movzwl %ax,%edx
   15d5d:	8b 45 e8             	mov    -0x18(%ebp),%eax
   15d60:	89 10                	mov    %edx,(%eax)
   15d62:	8b 45 f0             	mov    -0x10(%ebp),%eax
   15d65:	0f b7 40 16          	movzwl 0x16(%eax),%eax
   15d69:	0f b7 d0             	movzwl %ax,%edx
   15d6c:	8b 45 e8             	mov    -0x18(%ebp),%eax
   15d6f:	89 50 08             	mov    %edx,0x8(%eax)
   15d72:	8b 45 f0             	mov    -0x10(%ebp),%eax
   15d75:	0f b6 40 10          	movzbl 0x10(%eax),%eax
   15d79:	0f b6 d0             	movzbl %al,%edx
   15d7c:	8b 45 e8             	mov    -0x18(%ebp),%eax
   15d7f:	89 50 04             	mov    %edx,0x4(%eax)
   15d82:	8b 45 f0             	mov    -0x10(%ebp),%eax
   15d85:	0f b7 40 11          	movzwl 0x11(%eax),%eax
   15d89:	0f b7 d0             	movzwl %ax,%edx
   15d8c:	8b 45 e8             	mov    -0x18(%ebp),%eax
   15d8f:	89 50 14             	mov    %edx,0x14(%eax)
   15d92:	8b 45 f0             	mov    -0x10(%ebp),%eax
   15d95:	0f b6 40 0d          	movzbl 0xd(%eax),%eax
   15d99:	0f b6 d0             	movzbl %al,%edx
   15d9c:	8b 45 e8             	mov    -0x18(%ebp),%eax
   15d9f:	89 50 10             	mov    %edx,0x10(%eax)
   15da2:	8b 45 e8             	mov    -0x18(%ebp),%eax
   15da5:	8b 50 10             	mov    0x10(%eax),%edx
   15da8:	8b 45 f0             	mov    -0x10(%ebp),%eax
   15dab:	0f b7 40 0b          	movzwl 0xb(%eax),%eax
   15daf:	0f b7 c0             	movzwl %ax,%eax
   15db2:	0f af d0             	imul   %eax,%edx
   15db5:	8b 45 e8             	mov    -0x18(%ebp),%eax
   15db8:	89 50 20             	mov    %edx,0x20(%eax)
   15dbb:	8b 45 e8             	mov    -0x18(%ebp),%eax
   15dbe:	8b 10                	mov    (%eax),%edx
   15dc0:	8b 45 e8             	mov    -0x18(%ebp),%eax
   15dc3:	8b 48 08             	mov    0x8(%eax),%ecx
   15dc6:	8b 45 e8             	mov    -0x18(%ebp),%eax
   15dc9:	8b 40 04             	mov    0x4(%eax),%eax
   15dcc:	0f af c1             	imul   %ecx,%eax
   15dcf:	01 c2                	add    %eax,%edx
   15dd1:	8b 45 e8             	mov    -0x18(%ebp),%eax
   15dd4:	89 50 18             	mov    %edx,0x18(%eax)
   15dd7:	8b 45 e8             	mov    -0x18(%ebp),%eax
   15dda:	8b 50 18             	mov    0x18(%eax),%edx
   15ddd:	8b 45 e8             	mov    -0x18(%ebp),%eax
   15de0:	8b 40 14             	mov    0x14(%eax),%eax
   15de3:	c1 e0 05             	shl    $0x5,%eax
   15de6:	c1 e8 09             	shr    $0x9,%eax
   15de9:	01 c2                	add    %eax,%edx
   15deb:	8b 45 e8             	mov    -0x18(%ebp),%eax
   15dee:	89 50 1c             	mov    %edx,0x1c(%eax)
   15df1:	8b 45 e8             	mov    -0x18(%ebp),%eax
   15df4:	c7 40 28 ff ff ff ff 	movl   $0xffffffff,0x28(%eax)
   15dfb:	8b 45 e8             	mov    -0x18(%ebp),%eax
   15dfe:	8b 55 08             	mov    0x8(%ebp),%edx
   15e01:	89 50 2c             	mov    %edx,0x2c(%eax)
   15e04:	8b 45 e8             	mov    -0x18(%ebp),%eax
   15e07:	8b 40 04             	mov    0x4(%eax),%eax
   15e0a:	83 f8 02             	cmp    $0x2,%eax
   15e0d:	75 55                	jne    15e64 <fatfs_mount+0x192>
   15e0f:	8b 45 f0             	mov    -0x10(%ebp),%eax
   15e12:	83 c0 36             	add    $0x36,%eax
   15e15:	83 ec 04             	sub    $0x4,%esp
   15e18:	6a 05                	push   $0x5
   15e1a:	68 84 97 01 00       	push   $0x19784
   15e1f:	50                   	push   %eax
   15e20:	e8 7a 26 00 00       	call   1849f <kernel_memcmp>
   15e25:	83 c4 10             	add    $0x10,%esp
   15e28:	85 c0                	test   %eax,%eax
   15e2a:	75 3b                	jne    15e67 <fatfs_mount+0x195>
   15e2c:	8b 45 08             	mov    0x8(%ebp),%eax
   15e2f:	c7 80 88 00 00 00 00 	movl   $0x0,0x88(%eax)
   15e36:	00 00 00 
   15e39:	8b 45 08             	mov    0x8(%ebp),%eax
   15e3c:	8d 90 9c 00 00 00    	lea    0x9c(%eax),%edx
   15e42:	8b 45 08             	mov    0x8(%ebp),%eax
   15e45:	89 90 90 00 00 00    	mov    %edx,0x90(%eax)
   15e4b:	8b 45 08             	mov    0x8(%ebp),%eax
   15e4e:	8b 55 f4             	mov    -0xc(%ebp),%edx
   15e51:	89 90 94 00 00 00    	mov    %edx,0x94(%eax)
   15e57:	b8 00 00 00 00       	mov    $0x0,%eax
   15e5c:	eb 32                	jmp    15e90 <fatfs_mount+0x1be>
   15e5e:	90                   	nop
   15e5f:	eb 07                	jmp    15e68 <fatfs_mount+0x196>
   15e61:	90                   	nop
   15e62:	eb 04                	jmp    15e68 <fatfs_mount+0x196>
   15e64:	90                   	nop
   15e65:	eb 01                	jmp    15e68 <fatfs_mount+0x196>
   15e67:	90                   	nop
   15e68:	83 7d f0 00          	cmpl   $0x0,-0x10(%ebp)
   15e6c:	74 0f                	je     15e7d <fatfs_mount+0x1ab>
   15e6e:	8b 45 f0             	mov    -0x10(%ebp),%eax
   15e71:	83 ec 0c             	sub    $0xc,%esp
   15e74:	50                   	push   %eax
   15e75:	e8 0a ad ff ff       	call   10b84 <memory_free_page>
   15e7a:	83 c4 10             	add    $0x10,%esp
   15e7d:	83 ec 0c             	sub    $0xc,%esp
   15e80:	ff 75 f4             	pushl  -0xc(%ebp)
   15e83:	e8 1d e5 ff ff       	call   143a5 <dev_close>
   15e88:	83 c4 10             	add    $0x10,%esp
   15e8b:	b8 ff ff ff ff       	mov    $0xffffffff,%eax
   15e90:	c9                   	leave  
   15e91:	c3                   	ret    

00015e92 <fatfs_umount>:
   15e92:	55                   	push   %ebp
   15e93:	89 e5                	mov    %esp,%ebp
   15e95:	83 ec 18             	sub    $0x18,%esp
   15e98:	8b 45 08             	mov    0x8(%ebp),%eax
   15e9b:	8b 80 90 00 00 00    	mov    0x90(%eax),%eax
   15ea1:	89 45 f4             	mov    %eax,-0xc(%ebp)
   15ea4:	8b 45 08             	mov    0x8(%ebp),%eax
   15ea7:	8b 80 94 00 00 00    	mov    0x94(%eax),%eax
   15ead:	83 ec 0c             	sub    $0xc,%esp
   15eb0:	50                   	push   %eax
   15eb1:	e8 ef e4 ff ff       	call   143a5 <dev_close>
   15eb6:	83 c4 10             	add    $0x10,%esp
   15eb9:	8b 45 f4             	mov    -0xc(%ebp),%eax
   15ebc:	8b 40 24             	mov    0x24(%eax),%eax
   15ebf:	83 ec 0c             	sub    $0xc,%esp
   15ec2:	50                   	push   %eax
   15ec3:	e8 bc ac ff ff       	call   10b84 <memory_free_page>
   15ec8:	83 c4 10             	add    $0x10,%esp
   15ecb:	90                   	nop
   15ecc:	c9                   	leave  
   15ecd:	c3                   	ret    

00015ece <read_from_diritem>:
   15ece:	55                   	push   %ebp
   15ecf:	89 e5                	mov    %esp,%ebp
   15ed1:	ff 75 10             	pushl  0x10(%ebp)
   15ed4:	e8 86 fd ff ff       	call   15c5f <diritem_get_type>
   15ed9:	83 c4 04             	add    $0x4,%esp
   15edc:	89 c2                	mov    %eax,%edx
   15ede:	8b 45 0c             	mov    0xc(%ebp),%eax
   15ee1:	89 50 20             	mov    %edx,0x20(%eax)
   15ee4:	8b 45 10             	mov    0x10(%ebp),%eax
   15ee7:	8b 50 1c             	mov    0x1c(%eax),%edx
   15eea:	8b 45 0c             	mov    0xc(%ebp),%eax
   15eed:	89 50 24             	mov    %edx,0x24(%eax)
   15ef0:	8b 45 0c             	mov    0xc(%ebp),%eax
   15ef3:	c7 40 30 00 00 00 00 	movl   $0x0,0x30(%eax)
   15efa:	8b 45 0c             	mov    0xc(%ebp),%eax
   15efd:	8b 55 14             	mov    0x14(%ebp),%edx
   15f00:	89 50 40             	mov    %edx,0x40(%eax)
   15f03:	8b 45 10             	mov    0x10(%ebp),%eax
   15f06:	0f b7 40 14          	movzwl 0x14(%eax),%eax
   15f0a:	0f b7 c0             	movzwl %ax,%eax
   15f0d:	c1 e0 10             	shl    $0x10,%eax
   15f10:	89 c2                	mov    %eax,%edx
   15f12:	8b 45 10             	mov    0x10(%ebp),%eax
   15f15:	0f b7 40 1a          	movzwl 0x1a(%eax),%eax
   15f19:	0f b7 c0             	movzwl %ax,%eax
   15f1c:	09 c2                	or     %eax,%edx
   15f1e:	8b 45 0c             	mov    0xc(%ebp),%eax
   15f21:	89 50 38             	mov    %edx,0x38(%eax)
   15f24:	8b 45 0c             	mov    0xc(%ebp),%eax
   15f27:	8b 50 38             	mov    0x38(%eax),%edx
   15f2a:	8b 45 0c             	mov    0xc(%ebp),%eax
   15f2d:	89 50 3c             	mov    %edx,0x3c(%eax)
   15f30:	90                   	nop
   15f31:	c9                   	leave  
   15f32:	c3                   	ret    

00015f33 <to_sfn>:
   15f33:	55                   	push   %ebp
   15f34:	89 e5                	mov    %esp,%ebp
   15f36:	83 ec 18             	sub    $0x18,%esp
   15f39:	83 ec 04             	sub    $0x4,%esp
   15f3c:	6a 0b                	push   $0xb
   15f3e:	6a 20                	push   $0x20
   15f40:	ff 75 08             	pushl  0x8(%ebp)
   15f43:	e8 16 25 00 00       	call   1845e <kernel_memset>
   15f48:	83 c4 10             	add    $0x10,%esp
   15f4b:	8b 45 08             	mov    0x8(%ebp),%eax
   15f4e:	89 45 f4             	mov    %eax,-0xc(%ebp)
   15f51:	8b 45 08             	mov    0x8(%ebp),%eax
   15f54:	83 c0 0b             	add    $0xb,%eax
   15f57:	89 45 ec             	mov    %eax,-0x14(%ebp)
   15f5a:	eb 49                	jmp    15fa5 <to_sfn+0x72>
   15f5c:	8b 45 0c             	mov    0xc(%ebp),%eax
   15f5f:	8d 50 01             	lea    0x1(%eax),%edx
   15f62:	89 55 0c             	mov    %edx,0xc(%ebp)
   15f65:	0f b6 00             	movzbl (%eax),%eax
   15f68:	88 45 f3             	mov    %al,-0xd(%ebp)
   15f6b:	0f be 45 f3          	movsbl -0xd(%ebp),%eax
   15f6f:	83 f8 2e             	cmp    $0x2e,%eax
   15f72:	75 0b                	jne    15f7f <to_sfn+0x4c>
   15f74:	8b 45 08             	mov    0x8(%ebp),%eax
   15f77:	83 c0 08             	add    $0x8,%eax
   15f7a:	89 45 f4             	mov    %eax,-0xc(%ebp)
   15f7d:	eb 26                	jmp    15fa5 <to_sfn+0x72>
   15f7f:	80 7d f3 60          	cmpb   $0x60,-0xd(%ebp)
   15f83:	7e 10                	jle    15f95 <to_sfn+0x62>
   15f85:	80 7d f3 7a          	cmpb   $0x7a,-0xd(%ebp)
   15f89:	7f 0a                	jg     15f95 <to_sfn+0x62>
   15f8b:	0f b6 45 f3          	movzbl -0xd(%ebp),%eax
   15f8f:	83 e8 20             	sub    $0x20,%eax
   15f92:	88 45 f3             	mov    %al,-0xd(%ebp)
   15f95:	8b 45 f4             	mov    -0xc(%ebp),%eax
   15f98:	8d 50 01             	lea    0x1(%eax),%edx
   15f9b:	89 55 f4             	mov    %edx,-0xc(%ebp)
   15f9e:	0f b6 55 f3          	movzbl -0xd(%ebp),%edx
   15fa2:	88 10                	mov    %dl,(%eax)
   15fa4:	90                   	nop
   15fa5:	8b 45 0c             	mov    0xc(%ebp),%eax
   15fa8:	0f b6 00             	movzbl (%eax),%eax
   15fab:	84 c0                	test   %al,%al
   15fad:	74 08                	je     15fb7 <to_sfn+0x84>
   15faf:	8b 45 f4             	mov    -0xc(%ebp),%eax
   15fb2:	3b 45 ec             	cmp    -0x14(%ebp),%eax
   15fb5:	72 a5                	jb     15f5c <to_sfn+0x29>
   15fb7:	90                   	nop
   15fb8:	c9                   	leave  
   15fb9:	c3                   	ret    

00015fba <diritem_init>:
   15fba:	55                   	push   %ebp
   15fbb:	89 e5                	mov    %esp,%ebp
   15fbd:	83 ec 18             	sub    $0x18,%esp
   15fc0:	8b 45 0c             	mov    0xc(%ebp),%eax
   15fc3:	88 45 f4             	mov    %al,-0xc(%ebp)
   15fc6:	8b 45 08             	mov    0x8(%ebp),%eax
   15fc9:	83 ec 08             	sub    $0x8,%esp
   15fcc:	ff 75 10             	pushl  0x10(%ebp)
   15fcf:	50                   	push   %eax
   15fd0:	e8 5e ff ff ff       	call   15f33 <to_sfn>
   15fd5:	83 c4 10             	add    $0x10,%esp
   15fd8:	8b 45 08             	mov    0x8(%ebp),%eax
   15fdb:	0f b6 55 f4          	movzbl -0xc(%ebp),%edx
   15fdf:	88 50 0b             	mov    %dl,0xb(%eax)
   15fe2:	8b 45 08             	mov    0x8(%ebp),%eax
   15fe5:	66 c7 40 14 00 00    	movw   $0x0,0x14(%eax)
   15feb:	8b 45 08             	mov    0x8(%ebp),%eax
   15fee:	66 c7 40 1a f8 ff    	movw   $0xfff8,0x1a(%eax)
   15ff4:	8b 45 08             	mov    0x8(%ebp),%eax
   15ff7:	c7 40 1c 00 00 00 00 	movl   $0x0,0x1c(%eax)
   15ffe:	8b 45 08             	mov    0x8(%ebp),%eax
   16001:	c6 40 0c 00          	movb   $0x0,0xc(%eax)
   16005:	8b 45 08             	mov    0x8(%ebp),%eax
   16008:	66 c7 40 0e 00 00    	movw   $0x0,0xe(%eax)
   1600e:	8b 45 08             	mov    0x8(%ebp),%eax
   16011:	66 c7 40 10 00 00    	movw   $0x0,0x10(%eax)
   16017:	8b 45 08             	mov    0x8(%ebp),%eax
   1601a:	66 c7 40 12 00 00    	movw   $0x0,0x12(%eax)
   16020:	8b 45 08             	mov    0x8(%ebp),%eax
   16023:	66 c7 40 18 00 00    	movw   $0x0,0x18(%eax)
   16029:	8b 45 08             	mov    0x8(%ebp),%eax
   1602c:	66 c7 40 16 00 00    	movw   $0x0,0x16(%eax)
   16032:	b8 00 00 00 00       	mov    $0x0,%eax
   16037:	c9                   	leave  
   16038:	c3                   	ret    

00016039 <diritem_name_match>:
   16039:	55                   	push   %ebp
   1603a:	89 e5                	mov    %esp,%ebp
   1603c:	83 ec 18             	sub    $0x18,%esp
   1603f:	83 ec 08             	sub    $0x8,%esp
   16042:	ff 75 0c             	pushl  0xc(%ebp)
   16045:	8d 45 ed             	lea    -0x13(%ebp),%eax
   16048:	50                   	push   %eax
   16049:	e8 e5 fe ff ff       	call   15f33 <to_sfn>
   1604e:	83 c4 10             	add    $0x10,%esp
   16051:	8b 45 08             	mov    0x8(%ebp),%eax
   16054:	83 ec 04             	sub    $0x4,%esp
   16057:	6a 0b                	push   $0xb
   16059:	50                   	push   %eax
   1605a:	8d 45 ed             	lea    -0x13(%ebp),%eax
   1605d:	50                   	push   %eax
   1605e:	e8 3c 24 00 00       	call   1849f <kernel_memcmp>
   16063:	83 c4 10             	add    $0x10,%esp
   16066:	85 c0                	test   %eax,%eax
   16068:	0f 94 c0             	sete   %al
   1606b:	0f b6 c0             	movzbl %al,%eax
   1606e:	c9                   	leave  
   1606f:	c3                   	ret    

00016070 <cluster_free_chain>:
   16070:	55                   	push   %ebp
   16071:	89 e5                	mov    %esp,%ebp
   16073:	83 ec 28             	sub    $0x28,%esp
   16076:	8b 45 0c             	mov    0xc(%ebp),%eax
   16079:	66 89 45 e4          	mov    %ax,-0x1c(%ebp)
   1607d:	eb 34                	jmp    160b3 <cluster_free_chain+0x43>
   1607f:	0f b7 45 e4          	movzwl -0x1c(%ebp),%eax
   16083:	83 ec 08             	sub    $0x8,%esp
   16086:	50                   	push   %eax
   16087:	ff 75 08             	pushl  0x8(%ebp)
   1608a:	e8 e2 01 00 00       	call   16271 <cluster_get_next>
   1608f:	83 c4 10             	add    $0x10,%esp
   16092:	66 89 45 f6          	mov    %ax,-0xa(%ebp)
   16096:	0f b7 45 e4          	movzwl -0x1c(%ebp),%eax
   1609a:	83 ec 04             	sub    $0x4,%esp
   1609d:	6a 00                	push   $0x0
   1609f:	50                   	push   %eax
   160a0:	ff 75 08             	pushl  0x8(%ebp)
   160a3:	e8 92 02 00 00       	call   1633a <cluster_set_next>
   160a8:	83 c4 10             	add    $0x10,%esp
   160ab:	0f b7 45 f6          	movzwl -0xa(%ebp),%eax
   160af:	66 89 45 e4          	mov    %ax,-0x1c(%ebp)
   160b3:	0f b7 45 e4          	movzwl -0x1c(%ebp),%eax
   160b7:	83 ec 0c             	sub    $0xc,%esp
   160ba:	50                   	push   %eax
   160bb:	e8 88 01 00 00       	call   16248 <cluster_is_valid>
   160c0:	83 c4 10             	add    $0x10,%esp
   160c3:	85 c0                	test   %eax,%eax
   160c5:	75 b8                	jne    1607f <cluster_free_chain+0xf>
   160c7:	90                   	nop
   160c8:	c9                   	leave  
   160c9:	c3                   	ret    

000160ca <fatfs_open>:
   160ca:	55                   	push   %ebp
   160cb:	89 e5                	mov    %esp,%ebp
   160cd:	83 ec 48             	sub    $0x48,%esp
   160d0:	8b 45 08             	mov    0x8(%ebp),%eax
   160d3:	8b 80 90 00 00 00    	mov    0x90(%eax),%eax
   160d9:	89 45 e8             	mov    %eax,-0x18(%ebp)
   160dc:	c7 45 f4 00 00 00 00 	movl   $0x0,-0xc(%ebp)
   160e3:	c7 45 f0 ff ff ff ff 	movl   $0xffffffff,-0x10(%ebp)
   160ea:	c7 45 ec 00 00 00 00 	movl   $0x0,-0x14(%ebp)
   160f1:	eb 6f                	jmp    16162 <fatfs_open+0x98>
   160f3:	83 ec 08             	sub    $0x8,%esp
   160f6:	ff 75 ec             	pushl  -0x14(%ebp)
   160f9:	ff 75 e8             	pushl  -0x18(%ebp)
   160fc:	e8 34 fa ff ff       	call   15b35 <read_dir_entry>
   16101:	83 c4 10             	add    $0x10,%esp
   16104:	89 45 e4             	mov    %eax,-0x1c(%ebp)
   16107:	83 7d e4 00          	cmpl   $0x0,-0x1c(%ebp)
   1610b:	75 0a                	jne    16117 <fatfs_open+0x4d>
   1610d:	b8 ff ff ff ff       	mov    $0xffffffff,%eax
   16112:	e9 2f 01 00 00       	jmp    16246 <fatfs_open+0x17c>
   16117:	8b 45 e4             	mov    -0x1c(%ebp),%eax
   1611a:	0f b6 00             	movzbl (%eax),%eax
   1611d:	84 c0                	test   %al,%al
   1611f:	75 08                	jne    16129 <fatfs_open+0x5f>
   16121:	8b 45 ec             	mov    -0x14(%ebp),%eax
   16124:	89 45 f0             	mov    %eax,-0x10(%ebp)
   16127:	eb 46                	jmp    1616f <fatfs_open+0xa5>
   16129:	8b 45 e4             	mov    -0x1c(%ebp),%eax
   1612c:	0f b6 00             	movzbl (%eax),%eax
   1612f:	3c e5                	cmp    $0xe5,%al
   16131:	75 08                	jne    1613b <fatfs_open+0x71>
   16133:	8b 45 ec             	mov    -0x14(%ebp),%eax
   16136:	89 45 f0             	mov    %eax,-0x10(%ebp)
   16139:	eb 23                	jmp    1615e <fatfs_open+0x94>
   1613b:	83 ec 08             	sub    $0x8,%esp
   1613e:	ff 75 0c             	pushl  0xc(%ebp)
   16141:	ff 75 e4             	pushl  -0x1c(%ebp)
   16144:	e8 f0 fe ff ff       	call   16039 <diritem_name_match>
   16149:	83 c4 10             	add    $0x10,%esp
   1614c:	85 c0                	test   %eax,%eax
   1614e:	74 0e                	je     1615e <fatfs_open+0x94>
   16150:	8b 45 e4             	mov    -0x1c(%ebp),%eax
   16153:	89 45 f4             	mov    %eax,-0xc(%ebp)
   16156:	8b 45 ec             	mov    -0x14(%ebp),%eax
   16159:	89 45 f0             	mov    %eax,-0x10(%ebp)
   1615c:	eb 11                	jmp    1616f <fatfs_open+0xa5>
   1615e:	83 45 ec 01          	addl   $0x1,-0x14(%ebp)
   16162:	8b 45 e8             	mov    -0x18(%ebp),%eax
   16165:	8b 50 14             	mov    0x14(%eax),%edx
   16168:	8b 45 ec             	mov    -0x14(%ebp),%eax
   1616b:	39 c2                	cmp    %eax,%edx
   1616d:	77 84                	ja     160f3 <fatfs_open+0x29>
   1616f:	83 7d f4 00          	cmpl   $0x0,-0xc(%ebp)
   16173:	74 62                	je     161d7 <fatfs_open+0x10d>
   16175:	ff 75 f0             	pushl  -0x10(%ebp)
   16178:	ff 75 f4             	pushl  -0xc(%ebp)
   1617b:	ff 75 10             	pushl  0x10(%ebp)
   1617e:	ff 75 e8             	pushl  -0x18(%ebp)
   16181:	e8 48 fd ff ff       	call   15ece <read_from_diritem>
   16186:	83 c4 10             	add    $0x10,%esp
   16189:	8b 45 10             	mov    0x10(%ebp),%eax
   1618c:	8b 40 34             	mov    0x34(%eax),%eax
   1618f:	25 00 04 00 00       	and    $0x400,%eax
   16194:	85 c0                	test   %eax,%eax
   16196:	74 38                	je     161d0 <fatfs_open+0x106>
   16198:	8b 45 10             	mov    0x10(%ebp),%eax
   1619b:	8b 40 38             	mov    0x38(%eax),%eax
   1619e:	0f b7 c0             	movzwl %ax,%eax
   161a1:	83 ec 08             	sub    $0x8,%esp
   161a4:	50                   	push   %eax
   161a5:	ff 75 e8             	pushl  -0x18(%ebp)
   161a8:	e8 c3 fe ff ff       	call   16070 <cluster_free_chain>
   161ad:	83 c4 10             	add    $0x10,%esp
   161b0:	8b 45 10             	mov    0x10(%ebp),%eax
   161b3:	c7 40 38 f8 ff 00 00 	movl   $0xfff8,0x38(%eax)
   161ba:	8b 45 10             	mov    0x10(%ebp),%eax
   161bd:	8b 50 38             	mov    0x38(%eax),%edx
   161c0:	8b 45 10             	mov    0x10(%ebp),%eax
   161c3:	89 50 3c             	mov    %edx,0x3c(%eax)
   161c6:	8b 45 10             	mov    0x10(%ebp),%eax
   161c9:	c7 40 24 00 00 00 00 	movl   $0x0,0x24(%eax)
   161d0:	b8 00 00 00 00       	mov    $0x0,%eax
   161d5:	eb 6f                	jmp    16246 <fatfs_open+0x17c>
   161d7:	8b 45 10             	mov    0x10(%ebp),%eax
   161da:	8b 40 34             	mov    0x34(%eax),%eax
   161dd:	25 00 02 00 00       	and    $0x200,%eax
   161e2:	85 c0                	test   %eax,%eax
   161e4:	74 5b                	je     16241 <fatfs_open+0x177>
   161e6:	83 7d f0 00          	cmpl   $0x0,-0x10(%ebp)
   161ea:	78 55                	js     16241 <fatfs_open+0x177>
   161ec:	83 ec 04             	sub    $0x4,%esp
   161ef:	ff 75 0c             	pushl  0xc(%ebp)
   161f2:	6a 00                	push   $0x0
   161f4:	8d 45 c0             	lea    -0x40(%ebp),%eax
   161f7:	50                   	push   %eax
   161f8:	e8 bd fd ff ff       	call   15fba <diritem_init>
   161fd:	83 c4 10             	add    $0x10,%esp
   16200:	83 ec 04             	sub    $0x4,%esp
   16203:	ff 75 f0             	pushl  -0x10(%ebp)
   16206:	8d 45 c0             	lea    -0x40(%ebp),%eax
   16209:	50                   	push   %eax
   1620a:	ff 75 e8             	pushl  -0x18(%ebp)
   1620d:	e8 a8 f9 ff ff       	call   15bba <write_dir_entry>
   16212:	83 c4 10             	add    $0x10,%esp
   16215:	89 45 e0             	mov    %eax,-0x20(%ebp)
   16218:	83 7d e0 00          	cmpl   $0x0,-0x20(%ebp)
   1621c:	79 07                	jns    16225 <fatfs_open+0x15b>
   1621e:	b8 ff ff ff ff       	mov    $0xffffffff,%eax
   16223:	eb 21                	jmp    16246 <fatfs_open+0x17c>
   16225:	ff 75 f0             	pushl  -0x10(%ebp)
   16228:	8d 45 c0             	lea    -0x40(%ebp),%eax
   1622b:	50                   	push   %eax
   1622c:	ff 75 10             	pushl  0x10(%ebp)
   1622f:	ff 75 e8             	pushl  -0x18(%ebp)
   16232:	e8 97 fc ff ff       	call   15ece <read_from_diritem>
   16237:	83 c4 10             	add    $0x10,%esp
   1623a:	b8 00 00 00 00       	mov    $0x0,%eax
   1623f:	eb 05                	jmp    16246 <fatfs_open+0x17c>
   16241:	b8 ff ff ff ff       	mov    $0xffffffff,%eax
   16246:	c9                   	leave  
   16247:	c3                   	ret    

00016248 <cluster_is_valid>:
   16248:	55                   	push   %ebp
   16249:	89 e5                	mov    %esp,%ebp
   1624b:	83 ec 04             	sub    $0x4,%esp
   1624e:	8b 45 08             	mov    0x8(%ebp),%eax
   16251:	66 89 45 fc          	mov    %ax,-0x4(%ebp)
   16255:	66 83 7d fc f7       	cmpw   $0xfff7,-0x4(%ebp)
   1625a:	77 0e                	ja     1626a <cluster_is_valid+0x22>
   1625c:	66 83 7d fc 01       	cmpw   $0x1,-0x4(%ebp)
   16261:	76 07                	jbe    1626a <cluster_is_valid+0x22>
   16263:	b8 01 00 00 00       	mov    $0x1,%eax
   16268:	eb 05                	jmp    1626f <cluster_is_valid+0x27>
   1626a:	b8 00 00 00 00       	mov    $0x0,%eax
   1626f:	c9                   	leave  
   16270:	c3                   	ret    

00016271 <cluster_get_next>:
   16271:	55                   	push   %ebp
   16272:	89 e5                	mov    %esp,%ebp
   16274:	83 ec 28             	sub    $0x28,%esp
   16277:	8b 45 0c             	mov    0xc(%ebp),%eax
   1627a:	66 89 45 e4          	mov    %ax,-0x1c(%ebp)
   1627e:	0f b7 45 e4          	movzwl -0x1c(%ebp),%eax
   16282:	50                   	push   %eax
   16283:	e8 c0 ff ff ff       	call   16248 <cluster_is_valid>
   16288:	83 c4 04             	add    $0x4,%esp
   1628b:	85 c0                	test   %eax,%eax
   1628d:	75 0a                	jne    16299 <cluster_get_next+0x28>
   1628f:	b8 f8 ff 00 00       	mov    $0xfff8,%eax
   16294:	e9 9f 00 00 00       	jmp    16338 <cluster_get_next+0xc7>
   16299:	0f b7 45 e4          	movzwl -0x1c(%ebp),%eax
   1629d:	01 c0                	add    %eax,%eax
   1629f:	89 45 f4             	mov    %eax,-0xc(%ebp)
   162a2:	8b 45 f4             	mov    -0xc(%ebp),%eax
   162a5:	8b 55 08             	mov    0x8(%ebp),%edx
   162a8:	8b 4a 0c             	mov    0xc(%edx),%ecx
   162ab:	ba 00 00 00 00       	mov    $0x0,%edx
   162b0:	f7 f1                	div    %ecx
   162b2:	89 45 f0             	mov    %eax,-0x10(%ebp)
   162b5:	8b 45 f4             	mov    -0xc(%ebp),%eax
   162b8:	8b 55 08             	mov    0x8(%ebp),%edx
   162bb:	8b 4a 0c             	mov    0xc(%edx),%ecx
   162be:	ba 00 00 00 00       	mov    $0x0,%edx
   162c3:	f7 f1                	div    %ecx
   162c5:	89 d0                	mov    %edx,%eax
   162c7:	89 45 ec             	mov    %eax,-0x14(%ebp)
   162ca:	8b 45 08             	mov    0x8(%ebp),%eax
   162cd:	8b 50 08             	mov    0x8(%eax),%edx
   162d0:	8b 45 f0             	mov    -0x10(%ebp),%eax
   162d3:	39 c2                	cmp    %eax,%edx
   162d5:	77 17                	ja     162ee <cluster_get_next+0x7d>
   162d7:	83 ec 0c             	sub    $0xc,%esp
   162da:	68 8c 97 01 00       	push   $0x1978c
   162df:	e8 b9 27 00 00       	call   18a9d <log_printf>
   162e4:	83 c4 10             	add    $0x10,%esp
   162e7:	b8 f8 ff 00 00       	mov    $0xfff8,%eax
   162ec:	eb 4a                	jmp    16338 <cluster_get_next+0xc7>
   162ee:	8b 45 08             	mov    0x8(%ebp),%eax
   162f1:	8b 10                	mov    (%eax),%edx
   162f3:	8b 45 f0             	mov    -0x10(%ebp),%eax
   162f6:	01 d0                	add    %edx,%eax
   162f8:	83 ec 08             	sub    $0x8,%esp
   162fb:	50                   	push   %eax
   162fc:	ff 75 08             	pushl  0x8(%ebp)
   162ff:	e8 fe f6 ff ff       	call   15a02 <bread_sector>
   16304:	83 c4 10             	add    $0x10,%esp
   16307:	89 45 e8             	mov    %eax,-0x18(%ebp)
   1630a:	83 7d e8 00          	cmpl   $0x0,-0x18(%ebp)
   1630e:	79 17                	jns    16327 <cluster_get_next+0xb6>
   16310:	83 ec 0c             	sub    $0xc,%esp
   16313:	68 bc 97 01 00       	push   $0x197bc
   16318:	e8 80 27 00 00       	call   18a9d <log_printf>
   1631d:	83 c4 10             	add    $0x10,%esp
   16320:	b8 f8 ff 00 00       	mov    $0xfff8,%eax
   16325:	eb 11                	jmp    16338 <cluster_get_next+0xc7>
   16327:	8b 45 08             	mov    0x8(%ebp),%eax
   1632a:	8b 50 24             	mov    0x24(%eax),%edx
   1632d:	8b 45 ec             	mov    -0x14(%ebp),%eax
   16330:	01 d0                	add    %edx,%eax
   16332:	0f b7 00             	movzwl (%eax),%eax
   16335:	0f b7 c0             	movzwl %ax,%eax
   16338:	c9                   	leave  
   16339:	c3                   	ret    

0001633a <cluster_set_next>:
   1633a:	55                   	push   %ebp
   1633b:	89 e5                	mov    %esp,%ebp
   1633d:	83 ec 38             	sub    $0x38,%esp
   16340:	8b 55 0c             	mov    0xc(%ebp),%edx
   16343:	8b 45 10             	mov    0x10(%ebp),%eax
   16346:	66 89 55 d4          	mov    %dx,-0x2c(%ebp)
   1634a:	66 89 45 d0          	mov    %ax,-0x30(%ebp)
   1634e:	0f b7 45 d4          	movzwl -0x2c(%ebp),%eax
   16352:	50                   	push   %eax
   16353:	e8 f0 fe ff ff       	call   16248 <cluster_is_valid>
   16358:	83 c4 04             	add    $0x4,%esp
   1635b:	85 c0                	test   %eax,%eax
   1635d:	75 0a                	jne    16369 <cluster_set_next+0x2f>
   1635f:	b8 ff ff ff ff       	mov    $0xffffffff,%eax
   16364:	e9 fe 00 00 00       	jmp    16467 <cluster_set_next+0x12d>
   16369:	0f b7 45 d4          	movzwl -0x2c(%ebp),%eax
   1636d:	01 c0                	add    %eax,%eax
   1636f:	89 45 ec             	mov    %eax,-0x14(%ebp)
   16372:	8b 45 ec             	mov    -0x14(%ebp),%eax
   16375:	8b 55 08             	mov    0x8(%ebp),%edx
   16378:	8b 4a 0c             	mov    0xc(%edx),%ecx
   1637b:	ba 00 00 00 00       	mov    $0x0,%edx
   16380:	f7 f1                	div    %ecx
   16382:	89 45 f4             	mov    %eax,-0xc(%ebp)
   16385:	8b 45 ec             	mov    -0x14(%ebp),%eax
   16388:	8b 55 08             	mov    0x8(%ebp),%edx
   1638b:	8b 4a 0c             	mov    0xc(%edx),%ecx
   1638e:	ba 00 00 00 00       	mov    $0x0,%edx
   16393:	f7 f1                	div    %ecx
   16395:	89 d0                	mov    %edx,%eax
   16397:	89 45 e8             	mov    %eax,-0x18(%ebp)
   1639a:	8b 45 08             	mov    0x8(%ebp),%eax
   1639d:	8b 50 08             	mov    0x8(%eax),%edx
   163a0:	8b 45 f4             	mov    -0xc(%ebp),%eax
   163a3:	39 c2                	cmp    %eax,%edx
   163a5:	77 1f                	ja     163c6 <cluster_set_next+0x8c>
   163a7:	0f b7 45 d4          	movzwl -0x2c(%ebp),%eax
   163ab:	83 ec 08             	sub    $0x8,%esp
   163ae:	50                   	push   %eax
   163af:	68 e3 97 01 00       	push   $0x197e3
   163b4:	e8 e4 26 00 00       	call   18a9d <log_printf>
   163b9:	83 c4 10             	add    $0x10,%esp
   163bc:	b8 ff ff ff ff       	mov    $0xffffffff,%eax
   163c1:	e9 a1 00 00 00       	jmp    16467 <cluster_set_next+0x12d>
   163c6:	8b 45 08             	mov    0x8(%ebp),%eax
   163c9:	8b 10                	mov    (%eax),%edx
   163cb:	8b 45 f4             	mov    -0xc(%ebp),%eax
   163ce:	01 d0                	add    %edx,%eax
   163d0:	83 ec 08             	sub    $0x8,%esp
   163d3:	50                   	push   %eax
   163d4:	ff 75 08             	pushl  0x8(%ebp)
   163d7:	e8 26 f6 ff ff       	call   15a02 <bread_sector>
   163dc:	83 c4 10             	add    $0x10,%esp
   163df:	89 45 e4             	mov    %eax,-0x1c(%ebp)
   163e2:	83 7d e4 00          	cmpl   $0x0,-0x1c(%ebp)
   163e6:	79 07                	jns    163ef <cluster_set_next+0xb5>
   163e8:	b8 ff ff ff ff       	mov    $0xffffffff,%eax
   163ed:	eb 78                	jmp    16467 <cluster_set_next+0x12d>
   163ef:	8b 45 08             	mov    0x8(%ebp),%eax
   163f2:	8b 50 24             	mov    0x24(%eax),%edx
   163f5:	8b 45 e8             	mov    -0x18(%ebp),%eax
   163f8:	01 c2                	add    %eax,%edx
   163fa:	0f b7 45 d0          	movzwl -0x30(%ebp),%eax
   163fe:	66 89 02             	mov    %ax,(%edx)
   16401:	c7 45 f0 00 00 00 00 	movl   $0x0,-0x10(%ebp)
   16408:	eb 4b                	jmp    16455 <cluster_set_next+0x11b>
   1640a:	8b 45 08             	mov    0x8(%ebp),%eax
   1640d:	8b 10                	mov    (%eax),%edx
   1640f:	8b 45 f4             	mov    -0xc(%ebp),%eax
   16412:	01 d0                	add    %edx,%eax
   16414:	83 ec 08             	sub    $0x8,%esp
   16417:	50                   	push   %eax
   16418:	ff 75 08             	pushl  0x8(%ebp)
   1641b:	e8 3b f6 ff ff       	call   15a5b <bwrite_sector>
   16420:	83 c4 10             	add    $0x10,%esp
   16423:	89 45 e4             	mov    %eax,-0x1c(%ebp)
   16426:	83 7d e4 00          	cmpl   $0x0,-0x1c(%ebp)
   1642a:	79 17                	jns    16443 <cluster_set_next+0x109>
   1642c:	83 ec 0c             	sub    $0xc,%esp
   1642f:	68 f7 97 01 00       	push   $0x197f7
   16434:	e8 64 26 00 00       	call   18a9d <log_printf>
   16439:	83 c4 10             	add    $0x10,%esp
   1643c:	b8 ff ff ff ff       	mov    $0xffffffff,%eax
   16441:	eb 24                	jmp    16467 <cluster_set_next+0x12d>
   16443:	8b 45 08             	mov    0x8(%ebp),%eax
   16446:	8b 50 08             	mov    0x8(%eax),%edx
   16449:	8b 45 f4             	mov    -0xc(%ebp),%eax
   1644c:	01 d0                	add    %edx,%eax
   1644e:	89 45 f4             	mov    %eax,-0xc(%ebp)
   16451:	83 45 f0 01          	addl   $0x1,-0x10(%ebp)
   16455:	8b 45 08             	mov    0x8(%ebp),%eax
   16458:	8b 50 04             	mov    0x4(%eax),%edx
   1645b:	8b 45 f0             	mov    -0x10(%ebp),%eax
   1645e:	39 c2                	cmp    %eax,%edx
   16460:	77 a8                	ja     1640a <cluster_set_next+0xd0>
   16462:	b8 00 00 00 00       	mov    $0x0,%eax
   16467:	c9                   	leave  
   16468:	c3                   	ret    

00016469 <expand_file>:
   16469:	55                   	push   %ebp
   1646a:	89 e5                	mov    %esp,%ebp
   1646c:	53                   	push   %ebx
   1646d:	83 ec 24             	sub    $0x24,%esp
   16470:	8b 45 08             	mov    0x8(%ebp),%eax
   16473:	8b 40 44             	mov    0x44(%eax),%eax
   16476:	8b 80 90 00 00 00    	mov    0x90(%eax),%eax
   1647c:	89 45 f0             	mov    %eax,-0x10(%ebp)
   1647f:	8b 45 08             	mov    0x8(%ebp),%eax
   16482:	8b 40 24             	mov    0x24(%eax),%eax
   16485:	85 c0                	test   %eax,%eax
   16487:	74 19                	je     164a2 <expand_file+0x39>
   16489:	8b 45 08             	mov    0x8(%ebp),%eax
   1648c:	8b 40 24             	mov    0x24(%eax),%eax
   1648f:	8b 55 f0             	mov    -0x10(%ebp),%edx
   16492:	8b 4a 20             	mov    0x20(%edx),%ecx
   16495:	ba 00 00 00 00       	mov    $0x0,%edx
   1649a:	f7 f1                	div    %ecx
   1649c:	89 d0                	mov    %edx,%eax
   1649e:	85 c0                	test   %eax,%eax
   164a0:	75 29                	jne    164cb <expand_file+0x62>
   164a2:	8b 45 f0             	mov    -0x10(%ebp),%eax
   164a5:	8b 50 20             	mov    0x20(%eax),%edx
   164a8:	8b 45 0c             	mov    0xc(%ebp),%eax
   164ab:	52                   	push   %edx
   164ac:	50                   	push   %eax
   164ad:	e8 39 f5 ff ff       	call   159eb <up2>
   164b2:	83 c4 08             	add    $0x8,%esp
   164b5:	89 c1                	mov    %eax,%ecx
   164b7:	8b 45 f0             	mov    -0x10(%ebp),%eax
   164ba:	8b 58 20             	mov    0x20(%eax),%ebx
   164bd:	89 c8                	mov    %ecx,%eax
   164bf:	ba 00 00 00 00       	mov    $0x0,%edx
   164c4:	f7 f3                	div    %ebx
   164c6:	89 45 f4             	mov    %eax,-0xc(%ebp)
   164c9:	eb 6f                	jmp    1653a <expand_file+0xd1>
   164cb:	8b 45 f0             	mov    -0x10(%ebp),%eax
   164ce:	8b 48 20             	mov    0x20(%eax),%ecx
   164d1:	8b 45 08             	mov    0x8(%ebp),%eax
   164d4:	8b 40 24             	mov    0x24(%eax),%eax
   164d7:	8b 55 f0             	mov    -0x10(%ebp),%edx
   164da:	8b 5a 20             	mov    0x20(%edx),%ebx
   164dd:	ba 00 00 00 00       	mov    $0x0,%edx
   164e2:	f7 f3                	div    %ebx
   164e4:	89 d0                	mov    %edx,%eax
   164e6:	29 c1                	sub    %eax,%ecx
   164e8:	89 c8                	mov    %ecx,%eax
   164ea:	89 45 ec             	mov    %eax,-0x14(%ebp)
   164ed:	8b 45 ec             	mov    -0x14(%ebp),%eax
   164f0:	3b 45 0c             	cmp    0xc(%ebp),%eax
   164f3:	7c 1b                	jl     16510 <expand_file+0xa7>
   164f5:	8b 45 08             	mov    0x8(%ebp),%eax
   164f8:	8b 50 24             	mov    0x24(%eax),%edx
   164fb:	8b 45 0c             	mov    0xc(%ebp),%eax
   164fe:	01 c2                	add    %eax,%edx
   16500:	8b 45 08             	mov    0x8(%ebp),%eax
   16503:	89 50 24             	mov    %edx,0x24(%eax)
   16506:	b8 00 00 00 00       	mov    $0x0,%eax
   1650b:	e9 cd 00 00 00       	jmp    165dd <expand_file+0x174>
   16510:	8b 45 f0             	mov    -0x10(%ebp),%eax
   16513:	8b 40 20             	mov    0x20(%eax),%eax
   16516:	8b 55 0c             	mov    0xc(%ebp),%edx
   16519:	2b 55 ec             	sub    -0x14(%ebp),%edx
   1651c:	50                   	push   %eax
   1651d:	52                   	push   %edx
   1651e:	e8 c8 f4 ff ff       	call   159eb <up2>
   16523:	83 c4 08             	add    $0x8,%esp
   16526:	89 c1                	mov    %eax,%ecx
   16528:	8b 45 f0             	mov    -0x10(%ebp),%eax
   1652b:	8b 58 20             	mov    0x20(%eax),%ebx
   1652e:	89 c8                	mov    %ecx,%eax
   16530:	ba 00 00 00 00       	mov    $0x0,%edx
   16535:	f7 f3                	div    %ebx
   16537:	89 45 f4             	mov    %eax,-0xc(%ebp)
   1653a:	83 ec 08             	sub    $0x8,%esp
   1653d:	ff 75 f4             	pushl  -0xc(%ebp)
   16540:	ff 75 f0             	pushl  -0x10(%ebp)
   16543:	e8 01 03 00 00       	call   16849 <cluster_alloc_free>
   16548:	83 c4 10             	add    $0x10,%esp
   1654b:	66 89 45 ea          	mov    %ax,-0x16(%ebp)
   1654f:	0f b7 45 ea          	movzwl -0x16(%ebp),%eax
   16553:	83 ec 0c             	sub    $0xc,%esp
   16556:	50                   	push   %eax
   16557:	e8 ec fc ff ff       	call   16248 <cluster_is_valid>
   1655c:	83 c4 10             	add    $0x10,%esp
   1655f:	85 c0                	test   %eax,%eax
   16561:	75 17                	jne    1657a <expand_file+0x111>
   16563:	83 ec 0c             	sub    $0xc,%esp
   16566:	68 0d 98 01 00       	push   $0x1980d
   1656b:	e8 2d 25 00 00       	call   18a9d <log_printf>
   16570:	83 c4 10             	add    $0x10,%esp
   16573:	b8 ff ff ff ff       	mov    $0xffffffff,%eax
   16578:	eb 63                	jmp    165dd <expand_file+0x174>
   1657a:	8b 45 08             	mov    0x8(%ebp),%eax
   1657d:	8b 40 38             	mov    0x38(%eax),%eax
   16580:	0f b7 c0             	movzwl %ax,%eax
   16583:	83 ec 0c             	sub    $0xc,%esp
   16586:	50                   	push   %eax
   16587:	e8 bc fc ff ff       	call   16248 <cluster_is_valid>
   1658c:	83 c4 10             	add    $0x10,%esp
   1658f:	85 c0                	test   %eax,%eax
   16591:	75 18                	jne    165ab <expand_file+0x142>
   16593:	0f b7 55 ea          	movzwl -0x16(%ebp),%edx
   16597:	8b 45 08             	mov    0x8(%ebp),%eax
   1659a:	89 50 38             	mov    %edx,0x38(%eax)
   1659d:	8b 45 08             	mov    0x8(%ebp),%eax
   165a0:	8b 50 38             	mov    0x38(%eax),%edx
   165a3:	8b 45 08             	mov    0x8(%ebp),%eax
   165a6:	89 50 3c             	mov    %edx,0x3c(%eax)
   165a9:	eb 2d                	jmp    165d8 <expand_file+0x16f>
   165ab:	0f b7 55 ea          	movzwl -0x16(%ebp),%edx
   165af:	8b 45 08             	mov    0x8(%ebp),%eax
   165b2:	8b 40 3c             	mov    0x3c(%eax),%eax
   165b5:	0f b7 c0             	movzwl %ax,%eax
   165b8:	83 ec 04             	sub    $0x4,%esp
   165bb:	52                   	push   %edx
   165bc:	50                   	push   %eax
   165bd:	ff 75 f0             	pushl  -0x10(%ebp)
   165c0:	e8 75 fd ff ff       	call   1633a <cluster_set_next>
   165c5:	83 c4 10             	add    $0x10,%esp
   165c8:	89 45 e4             	mov    %eax,-0x1c(%ebp)
   165cb:	83 7d e4 00          	cmpl   $0x0,-0x1c(%ebp)
   165cf:	79 07                	jns    165d8 <expand_file+0x16f>
   165d1:	b8 ff ff ff ff       	mov    $0xffffffff,%eax
   165d6:	eb 05                	jmp    165dd <expand_file+0x174>
   165d8:	b8 00 00 00 00       	mov    $0x0,%eax
   165dd:	8b 5d fc             	mov    -0x4(%ebp),%ebx
   165e0:	c9                   	leave  
   165e1:	c3                   	ret    

000165e2 <move_file_pos>:
   165e2:	55                   	push   %ebp
   165e3:	89 e5                	mov    %esp,%ebp
   165e5:	83 ec 18             	sub    $0x18,%esp
   165e8:	8b 45 08             	mov    0x8(%ebp),%eax
   165eb:	8b 40 30             	mov    0x30(%eax),%eax
   165ee:	89 c2                	mov    %eax,%edx
   165f0:	8b 45 0c             	mov    0xc(%ebp),%eax
   165f3:	8b 48 20             	mov    0x20(%eax),%ecx
   165f6:	89 d0                	mov    %edx,%eax
   165f8:	ba 00 00 00 00       	mov    $0x0,%edx
   165fd:	f7 f1                	div    %ecx
   165ff:	89 55 f0             	mov    %edx,-0x10(%ebp)
   16602:	8b 55 f0             	mov    -0x10(%ebp),%edx
   16605:	8b 45 10             	mov    0x10(%ebp),%eax
   16608:	01 c2                	add    %eax,%edx
   1660a:	8b 45 0c             	mov    0xc(%ebp),%eax
   1660d:	8b 40 20             	mov    0x20(%eax),%eax
   16610:	39 c2                	cmp    %eax,%edx
   16612:	72 74                	jb     16688 <move_file_pos+0xa6>
   16614:	8b 45 08             	mov    0x8(%ebp),%eax
   16617:	8b 40 3c             	mov    0x3c(%eax),%eax
   1661a:	0f b7 c0             	movzwl %ax,%eax
   1661d:	83 ec 08             	sub    $0x8,%esp
   16620:	50                   	push   %eax
   16621:	ff 75 0c             	pushl  0xc(%ebp)
   16624:	e8 48 fc ff ff       	call   16271 <cluster_get_next>
   16629:	83 c4 10             	add    $0x10,%esp
   1662c:	66 89 45 f6          	mov    %ax,-0xa(%ebp)
   16630:	66 83 7d f6 f8       	cmpw   $0xfff8,-0xa(%ebp)
   16635:	75 47                	jne    1667e <move_file_pos+0x9c>
   16637:	83 7d 14 00          	cmpl   $0x0,0x14(%ebp)
   1663b:	74 41                	je     1667e <move_file_pos+0x9c>
   1663d:	8b 45 0c             	mov    0xc(%ebp),%eax
   16640:	8b 40 20             	mov    0x20(%eax),%eax
   16643:	83 ec 08             	sub    $0x8,%esp
   16646:	50                   	push   %eax
   16647:	ff 75 08             	pushl  0x8(%ebp)
   1664a:	e8 1a fe ff ff       	call   16469 <expand_file>
   1664f:	83 c4 10             	add    $0x10,%esp
   16652:	89 45 ec             	mov    %eax,-0x14(%ebp)
   16655:	83 7d ec 00          	cmpl   $0x0,-0x14(%ebp)
   16659:	79 07                	jns    16662 <move_file_pos+0x80>
   1665b:	b8 ff ff ff ff       	mov    $0xffffffff,%eax
   16660:	eb 40                	jmp    166a2 <move_file_pos+0xc0>
   16662:	8b 45 08             	mov    0x8(%ebp),%eax
   16665:	8b 40 3c             	mov    0x3c(%eax),%eax
   16668:	0f b7 c0             	movzwl %ax,%eax
   1666b:	83 ec 08             	sub    $0x8,%esp
   1666e:	50                   	push   %eax
   1666f:	ff 75 0c             	pushl  0xc(%ebp)
   16672:	e8 fa fb ff ff       	call   16271 <cluster_get_next>
   16677:	83 c4 10             	add    $0x10,%esp
   1667a:	66 89 45 f6          	mov    %ax,-0xa(%ebp)
   1667e:	0f b7 55 f6          	movzwl -0xa(%ebp),%edx
   16682:	8b 45 08             	mov    0x8(%ebp),%eax
   16685:	89 50 3c             	mov    %edx,0x3c(%eax)
   16688:	8b 45 08             	mov    0x8(%ebp),%eax
   1668b:	8b 40 30             	mov    0x30(%eax),%eax
   1668e:	89 c2                	mov    %eax,%edx
   16690:	8b 45 10             	mov    0x10(%ebp),%eax
   16693:	01 d0                	add    %edx,%eax
   16695:	89 c2                	mov    %eax,%edx
   16697:	8b 45 08             	mov    0x8(%ebp),%eax
   1669a:	89 50 30             	mov    %edx,0x30(%eax)
   1669d:	b8 00 00 00 00       	mov    $0x0,%eax
   166a2:	c9                   	leave  
   166a3:	c3                   	ret    

000166a4 <fatfs_read>:
   166a4:	55                   	push   %ebp
   166a5:	89 e5                	mov    %esp,%ebp
   166a7:	53                   	push   %ebx
   166a8:	83 ec 34             	sub    $0x34,%esp
   166ab:	8b 45 10             	mov    0x10(%ebp),%eax
   166ae:	8b 40 44             	mov    0x44(%eax),%eax
   166b1:	8b 80 90 00 00 00    	mov    0x90(%eax),%eax
   166b7:	89 45 e8             	mov    %eax,-0x18(%ebp)
   166ba:	8b 45 0c             	mov    0xc(%ebp),%eax
   166bd:	89 45 f4             	mov    %eax,-0xc(%ebp)
   166c0:	8b 45 10             	mov    0x10(%ebp),%eax
   166c3:	8b 40 30             	mov    0x30(%eax),%eax
   166c6:	89 c2                	mov    %eax,%edx
   166c8:	8b 45 f4             	mov    -0xc(%ebp),%eax
   166cb:	01 c2                	add    %eax,%edx
   166cd:	8b 45 10             	mov    0x10(%ebp),%eax
   166d0:	8b 40 24             	mov    0x24(%eax),%eax
   166d3:	39 c2                	cmp    %eax,%edx
   166d5:	76 13                	jbe    166ea <fatfs_read+0x46>
   166d7:	8b 45 10             	mov    0x10(%ebp),%eax
   166da:	8b 50 24             	mov    0x24(%eax),%edx
   166dd:	8b 45 10             	mov    0x10(%ebp),%eax
   166e0:	8b 40 30             	mov    0x30(%eax),%eax
   166e3:	29 c2                	sub    %eax,%edx
   166e5:	89 d0                	mov    %edx,%eax
   166e7:	89 45 f4             	mov    %eax,-0xc(%ebp)
   166ea:	c7 45 f0 00 00 00 00 	movl   $0x0,-0x10(%ebp)
   166f1:	e9 41 01 00 00       	jmp    16837 <fatfs_read+0x193>
   166f6:	8b 45 f4             	mov    -0xc(%ebp),%eax
   166f9:	89 45 ec             	mov    %eax,-0x14(%ebp)
   166fc:	8b 45 10             	mov    0x10(%ebp),%eax
   166ff:	8b 40 30             	mov    0x30(%eax),%eax
   16702:	89 c2                	mov    %eax,%edx
   16704:	8b 45 e8             	mov    -0x18(%ebp),%eax
   16707:	8b 48 20             	mov    0x20(%eax),%ecx
   1670a:	89 d0                	mov    %edx,%eax
   1670c:	ba 00 00 00 00       	mov    $0x0,%edx
   16711:	f7 f1                	div    %ecx
   16713:	89 55 e4             	mov    %edx,-0x1c(%ebp)
   16716:	8b 45 e8             	mov    -0x18(%ebp),%eax
   16719:	8b 50 1c             	mov    0x1c(%eax),%edx
   1671c:	8b 45 10             	mov    0x10(%ebp),%eax
   1671f:	8b 40 3c             	mov    0x3c(%eax),%eax
   16722:	83 e8 02             	sub    $0x2,%eax
   16725:	89 c1                	mov    %eax,%ecx
   16727:	8b 45 e8             	mov    -0x18(%ebp),%eax
   1672a:	8b 40 10             	mov    0x10(%eax),%eax
   1672d:	0f af c1             	imul   %ecx,%eax
   16730:	01 d0                	add    %edx,%eax
   16732:	89 45 e0             	mov    %eax,-0x20(%ebp)
   16735:	83 7d e4 00          	cmpl   $0x0,-0x1c(%ebp)
   16739:	75 4c                	jne    16787 <fatfs_read+0xe3>
   1673b:	8b 45 e8             	mov    -0x18(%ebp),%eax
   1673e:	8b 40 20             	mov    0x20(%eax),%eax
   16741:	39 45 f4             	cmp    %eax,-0xc(%ebp)
   16744:	72 41                	jb     16787 <fatfs_read+0xe3>
   16746:	8b 45 e8             	mov    -0x18(%ebp),%eax
   16749:	8b 40 10             	mov    0x10(%eax),%eax
   1674c:	89 c1                	mov    %eax,%ecx
   1674e:	8b 55 e0             	mov    -0x20(%ebp),%edx
   16751:	8b 45 e8             	mov    -0x18(%ebp),%eax
   16754:	8b 40 2c             	mov    0x2c(%eax),%eax
   16757:	8b 80 94 00 00 00    	mov    0x94(%eax),%eax
   1675d:	51                   	push   %ecx
   1675e:	ff 75 08             	pushl  0x8(%ebp)
   16761:	52                   	push   %edx
   16762:	50                   	push   %eax
   16763:	e8 ae dc ff ff       	call   14416 <dev_read>
   16768:	83 c4 10             	add    $0x10,%esp
   1676b:	89 45 dc             	mov    %eax,-0x24(%ebp)
   1676e:	83 7d dc 00          	cmpl   $0x0,-0x24(%ebp)
   16772:	79 08                	jns    1677c <fatfs_read+0xd8>
   16774:	8b 45 f0             	mov    -0x10(%ebp),%eax
   16777:	e9 c8 00 00 00       	jmp    16844 <fatfs_read+0x1a0>
   1677c:	8b 45 e8             	mov    -0x18(%ebp),%eax
   1677f:	8b 40 20             	mov    0x20(%eax),%eax
   16782:	89 45 ec             	mov    %eax,-0x14(%ebp)
   16785:	eb 7d                	jmp    16804 <fatfs_read+0x160>
   16787:	8b 55 e4             	mov    -0x1c(%ebp),%edx
   1678a:	8b 45 ec             	mov    -0x14(%ebp),%eax
   1678d:	01 c2                	add    %eax,%edx
   1678f:	8b 45 e8             	mov    -0x18(%ebp),%eax
   16792:	8b 40 20             	mov    0x20(%eax),%eax
   16795:	39 c2                	cmp    %eax,%edx
   16797:	76 0c                	jbe    167a5 <fatfs_read+0x101>
   16799:	8b 45 e8             	mov    -0x18(%ebp),%eax
   1679c:	8b 40 20             	mov    0x20(%eax),%eax
   1679f:	2b 45 e4             	sub    -0x1c(%ebp),%eax
   167a2:	89 45 ec             	mov    %eax,-0x14(%ebp)
   167a5:	8b 45 e8             	mov    -0x18(%ebp),%eax
   167a8:	c7 40 28 ff ff ff ff 	movl   $0xffffffff,0x28(%eax)
   167af:	8b 45 e8             	mov    -0x18(%ebp),%eax
   167b2:	8b 40 10             	mov    0x10(%eax),%eax
   167b5:	89 c3                	mov    %eax,%ebx
   167b7:	8b 45 e8             	mov    -0x18(%ebp),%eax
   167ba:	8b 48 24             	mov    0x24(%eax),%ecx
   167bd:	8b 55 e0             	mov    -0x20(%ebp),%edx
   167c0:	8b 45 e8             	mov    -0x18(%ebp),%eax
   167c3:	8b 40 2c             	mov    0x2c(%eax),%eax
   167c6:	8b 80 94 00 00 00    	mov    0x94(%eax),%eax
   167cc:	53                   	push   %ebx
   167cd:	51                   	push   %ecx
   167ce:	52                   	push   %edx
   167cf:	50                   	push   %eax
   167d0:	e8 41 dc ff ff       	call   14416 <dev_read>
   167d5:	83 c4 10             	add    $0x10,%esp
   167d8:	89 45 d8             	mov    %eax,-0x28(%ebp)
   167db:	83 7d d8 00          	cmpl   $0x0,-0x28(%ebp)
   167df:	79 05                	jns    167e6 <fatfs_read+0x142>
   167e1:	8b 45 f0             	mov    -0x10(%ebp),%eax
   167e4:	eb 5e                	jmp    16844 <fatfs_read+0x1a0>
   167e6:	8b 45 ec             	mov    -0x14(%ebp),%eax
   167e9:	8b 55 e8             	mov    -0x18(%ebp),%edx
   167ec:	8b 4a 24             	mov    0x24(%edx),%ecx
   167ef:	8b 55 e4             	mov    -0x1c(%ebp),%edx
   167f2:	01 ca                	add    %ecx,%edx
   167f4:	83 ec 04             	sub    $0x4,%esp
   167f7:	50                   	push   %eax
   167f8:	52                   	push   %edx
   167f9:	ff 75 08             	pushl  0x8(%ebp)
   167fc:	e8 0e 1c 00 00       	call   1840f <kernel_memcpy>
   16801:	83 c4 10             	add    $0x10,%esp
   16804:	8b 45 ec             	mov    -0x14(%ebp),%eax
   16807:	01 45 08             	add    %eax,0x8(%ebp)
   1680a:	8b 45 ec             	mov    -0x14(%ebp),%eax
   1680d:	01 45 f0             	add    %eax,-0x10(%ebp)
   16810:	8b 45 ec             	mov    -0x14(%ebp),%eax
   16813:	29 45 f4             	sub    %eax,-0xc(%ebp)
   16816:	6a 00                	push   $0x0
   16818:	ff 75 ec             	pushl  -0x14(%ebp)
   1681b:	ff 75 e8             	pushl  -0x18(%ebp)
   1681e:	ff 75 10             	pushl  0x10(%ebp)
   16821:	e8 bc fd ff ff       	call   165e2 <move_file_pos>
   16826:	83 c4 10             	add    $0x10,%esp
   16829:	89 45 d4             	mov    %eax,-0x2c(%ebp)
   1682c:	83 7d d4 00          	cmpl   $0x0,-0x2c(%ebp)
   16830:	79 05                	jns    16837 <fatfs_read+0x193>
   16832:	8b 45 f0             	mov    -0x10(%ebp),%eax
   16835:	eb 0d                	jmp    16844 <fatfs_read+0x1a0>
   16837:	83 7d f4 00          	cmpl   $0x0,-0xc(%ebp)
   1683b:	0f 85 b5 fe ff ff    	jne    166f6 <fatfs_read+0x52>
   16841:	8b 45 f0             	mov    -0x10(%ebp),%eax
   16844:	8b 5d fc             	mov    -0x4(%ebp),%ebx
   16847:	c9                   	leave  
   16848:	c3                   	ret    

00016849 <cluster_alloc_free>:
   16849:	55                   	push   %ebp
   1684a:	89 e5                	mov    %esp,%ebp
   1684c:	83 ec 28             	sub    $0x28,%esp
   1684f:	8b 45 08             	mov    0x8(%ebp),%eax
   16852:	8b 50 08             	mov    0x8(%eax),%edx
   16855:	8b 45 08             	mov    0x8(%ebp),%eax
   16858:	8b 40 0c             	mov    0xc(%eax),%eax
   1685b:	0f af c2             	imul   %edx,%eax
   1685e:	d1 e8                	shr    %eax
   16860:	89 45 ec             	mov    %eax,-0x14(%ebp)
   16863:	66 c7 45 f2 f8 ff    	movw   $0xfff8,-0xe(%ebp)
   16869:	0f b7 45 f2          	movzwl -0xe(%ebp),%eax
   1686d:	66 89 45 f6          	mov    %ax,-0xa(%ebp)
   16871:	66 c7 45 f4 02 00    	movw   $0x2,-0xc(%ebp)
   16877:	e9 a0 00 00 00       	jmp    1691c <cluster_alloc_free+0xd3>
   1687c:	0f b7 45 f4          	movzwl -0xc(%ebp),%eax
   16880:	83 ec 08             	sub    $0x8,%esp
   16883:	50                   	push   %eax
   16884:	ff 75 08             	pushl  0x8(%ebp)
   16887:	e8 e5 f9 ff ff       	call   16271 <cluster_get_next>
   1688c:	83 c4 10             	add    $0x10,%esp
   1688f:	66 89 45 ea          	mov    %ax,-0x16(%ebp)
   16893:	66 83 7d ea 00       	cmpw   $0x0,-0x16(%ebp)
   16898:	75 77                	jne    16911 <cluster_alloc_free+0xc8>
   1689a:	0f b7 45 f2          	movzwl -0xe(%ebp),%eax
   1689e:	83 ec 0c             	sub    $0xc,%esp
   168a1:	50                   	push   %eax
   168a2:	e8 a1 f9 ff ff       	call   16248 <cluster_is_valid>
   168a7:	83 c4 10             	add    $0x10,%esp
   168aa:	85 c0                	test   %eax,%eax
   168ac:	75 08                	jne    168b6 <cluster_alloc_free+0x6d>
   168ae:	0f b7 45 f4          	movzwl -0xc(%ebp),%eax
   168b2:	66 89 45 f2          	mov    %ax,-0xe(%ebp)
   168b6:	0f b7 45 f6          	movzwl -0xa(%ebp),%eax
   168ba:	83 ec 0c             	sub    $0xc,%esp
   168bd:	50                   	push   %eax
   168be:	e8 85 f9 ff ff       	call   16248 <cluster_is_valid>
   168c3:	83 c4 10             	add    $0x10,%esp
   168c6:	85 c0                	test   %eax,%eax
   168c8:	74 3b                	je     16905 <cluster_alloc_free+0xbc>
   168ca:	0f b7 55 f4          	movzwl -0xc(%ebp),%edx
   168ce:	0f b7 45 f6          	movzwl -0xa(%ebp),%eax
   168d2:	83 ec 04             	sub    $0x4,%esp
   168d5:	52                   	push   %edx
   168d6:	50                   	push   %eax
   168d7:	ff 75 08             	pushl  0x8(%ebp)
   168da:	e8 5b fa ff ff       	call   1633a <cluster_set_next>
   168df:	83 c4 10             	add    $0x10,%esp
   168e2:	89 45 e4             	mov    %eax,-0x1c(%ebp)
   168e5:	83 7d e4 00          	cmpl   $0x0,-0x1c(%ebp)
   168e9:	79 1a                	jns    16905 <cluster_alloc_free+0xbc>
   168eb:	0f b7 45 f2          	movzwl -0xe(%ebp),%eax
   168ef:	83 ec 08             	sub    $0x8,%esp
   168f2:	50                   	push   %eax
   168f3:	ff 75 08             	pushl  0x8(%ebp)
   168f6:	e8 75 f7 ff ff       	call   16070 <cluster_free_chain>
   168fb:	83 c4 10             	add    $0x10,%esp
   168fe:	b8 f8 ff ff ff       	mov    $0xfffffff8,%eax
   16903:	eb 6f                	jmp    16974 <cluster_alloc_free+0x12b>
   16905:	0f b7 45 f4          	movzwl -0xc(%ebp),%eax
   16909:	66 89 45 f6          	mov    %ax,-0xa(%ebp)
   1690d:	83 6d 0c 01          	subl   $0x1,0xc(%ebp)
   16911:	0f b7 45 f4          	movzwl -0xc(%ebp),%eax
   16915:	83 c0 01             	add    $0x1,%eax
   16918:	66 89 45 f4          	mov    %ax,-0xc(%ebp)
   1691c:	0f b7 45 f4          	movzwl -0xc(%ebp),%eax
   16920:	39 45 ec             	cmp    %eax,-0x14(%ebp)
   16923:	7e 0a                	jle    1692f <cluster_alloc_free+0xe6>
   16925:	83 7d 0c 00          	cmpl   $0x0,0xc(%ebp)
   16929:	0f 85 4d ff ff ff    	jne    1687c <cluster_alloc_free+0x33>
   1692f:	83 7d 0c 00          	cmpl   $0x0,0xc(%ebp)
   16933:	75 27                	jne    1695c <cluster_alloc_free+0x113>
   16935:	0f b7 45 f6          	movzwl -0xa(%ebp),%eax
   16939:	83 ec 04             	sub    $0x4,%esp
   1693c:	68 f8 ff 00 00       	push   $0xfff8
   16941:	50                   	push   %eax
   16942:	ff 75 08             	pushl  0x8(%ebp)
   16945:	e8 f0 f9 ff ff       	call   1633a <cluster_set_next>
   1694a:	83 c4 10             	add    $0x10,%esp
   1694d:	89 45 e0             	mov    %eax,-0x20(%ebp)
   16950:	83 7d e0 00          	cmpl   $0x0,-0x20(%ebp)
   16954:	75 06                	jne    1695c <cluster_alloc_free+0x113>
   16956:	0f b7 45 f2          	movzwl -0xe(%ebp),%eax
   1695a:	eb 18                	jmp    16974 <cluster_alloc_free+0x12b>
   1695c:	0f b7 45 f2          	movzwl -0xe(%ebp),%eax
   16960:	83 ec 08             	sub    $0x8,%esp
   16963:	50                   	push   %eax
   16964:	ff 75 08             	pushl  0x8(%ebp)
   16967:	e8 04 f7 ff ff       	call   16070 <cluster_free_chain>
   1696c:	83 c4 10             	add    $0x10,%esp
   1696f:	b8 f8 ff ff ff       	mov    $0xfffffff8,%eax
   16974:	c9                   	leave  
   16975:	c3                   	ret    

00016976 <fatfs_write>:
   16976:	55                   	push   %ebp
   16977:	89 e5                	mov    %esp,%ebp
   16979:	53                   	push   %ebx
   1697a:	83 ec 34             	sub    $0x34,%esp
   1697d:	8b 45 10             	mov    0x10(%ebp),%eax
   16980:	8b 40 44             	mov    0x44(%eax),%eax
   16983:	8b 80 90 00 00 00    	mov    0x90(%eax),%eax
   16989:	89 45 e8             	mov    %eax,-0x18(%ebp)
   1698c:	8b 45 10             	mov    0x10(%ebp),%eax
   1698f:	8b 50 30             	mov    0x30(%eax),%edx
   16992:	8b 45 0c             	mov    0xc(%ebp),%eax
   16995:	01 d0                	add    %edx,%eax
   16997:	89 c2                	mov    %eax,%edx
   16999:	8b 45 10             	mov    0x10(%ebp),%eax
   1699c:	8b 40 24             	mov    0x24(%eax),%eax
   1699f:	39 c2                	cmp    %eax,%edx
   169a1:	76 3e                	jbe    169e1 <fatfs_write+0x6b>
   169a3:	8b 45 10             	mov    0x10(%ebp),%eax
   169a6:	8b 50 30             	mov    0x30(%eax),%edx
   169a9:	8b 45 0c             	mov    0xc(%ebp),%eax
   169ac:	01 d0                	add    %edx,%eax
   169ae:	89 c2                	mov    %eax,%edx
   169b0:	8b 45 10             	mov    0x10(%ebp),%eax
   169b3:	8b 40 24             	mov    0x24(%eax),%eax
   169b6:	29 c2                	sub    %eax,%edx
   169b8:	89 d0                	mov    %edx,%eax
   169ba:	89 45 e4             	mov    %eax,-0x1c(%ebp)
   169bd:	83 ec 08             	sub    $0x8,%esp
   169c0:	ff 75 e4             	pushl  -0x1c(%ebp)
   169c3:	ff 75 10             	pushl  0x10(%ebp)
   169c6:	e8 9e fa ff ff       	call   16469 <expand_file>
   169cb:	83 c4 10             	add    $0x10,%esp
   169ce:	89 45 e0             	mov    %eax,-0x20(%ebp)
   169d1:	83 7d e0 00          	cmpl   $0x0,-0x20(%ebp)
   169d5:	79 0a                	jns    169e1 <fatfs_write+0x6b>
   169d7:	b8 00 00 00 00       	mov    $0x0,%eax
   169dc:	e9 ae 01 00 00       	jmp    16b8f <fatfs_write+0x219>
   169e1:	8b 45 0c             	mov    0xc(%ebp),%eax
   169e4:	89 45 f4             	mov    %eax,-0xc(%ebp)
   169e7:	c7 45 f0 00 00 00 00 	movl   $0x0,-0x10(%ebp)
   169ee:	e9 8f 01 00 00       	jmp    16b82 <fatfs_write+0x20c>
   169f3:	8b 45 f4             	mov    -0xc(%ebp),%eax
   169f6:	89 45 ec             	mov    %eax,-0x14(%ebp)
   169f9:	8b 45 10             	mov    0x10(%ebp),%eax
   169fc:	8b 40 30             	mov    0x30(%eax),%eax
   169ff:	89 c2                	mov    %eax,%edx
   16a01:	8b 45 e8             	mov    -0x18(%ebp),%eax
   16a04:	8b 48 20             	mov    0x20(%eax),%ecx
   16a07:	89 d0                	mov    %edx,%eax
   16a09:	ba 00 00 00 00       	mov    $0x0,%edx
   16a0e:	f7 f1                	div    %ecx
   16a10:	89 55 dc             	mov    %edx,-0x24(%ebp)
   16a13:	8b 45 e8             	mov    -0x18(%ebp),%eax
   16a16:	8b 50 1c             	mov    0x1c(%eax),%edx
   16a19:	8b 45 10             	mov    0x10(%ebp),%eax
   16a1c:	8b 40 3c             	mov    0x3c(%eax),%eax
   16a1f:	83 e8 02             	sub    $0x2,%eax
   16a22:	89 c1                	mov    %eax,%ecx
   16a24:	8b 45 e8             	mov    -0x18(%ebp),%eax
   16a27:	8b 40 10             	mov    0x10(%eax),%eax
   16a2a:	0f af c1             	imul   %ecx,%eax
   16a2d:	01 d0                	add    %edx,%eax
   16a2f:	89 45 d8             	mov    %eax,-0x28(%ebp)
   16a32:	83 7d dc 00          	cmpl   $0x0,-0x24(%ebp)
   16a36:	75 4f                	jne    16a87 <fatfs_write+0x111>
   16a38:	8b 45 e8             	mov    -0x18(%ebp),%eax
   16a3b:	8b 40 20             	mov    0x20(%eax),%eax
   16a3e:	39 45 f4             	cmp    %eax,-0xc(%ebp)
   16a41:	75 44                	jne    16a87 <fatfs_write+0x111>
   16a43:	8b 45 e8             	mov    -0x18(%ebp),%eax
   16a46:	8b 40 10             	mov    0x10(%eax),%eax
   16a49:	89 c1                	mov    %eax,%ecx
   16a4b:	8b 55 d8             	mov    -0x28(%ebp),%edx
   16a4e:	8b 45 e8             	mov    -0x18(%ebp),%eax
   16a51:	8b 40 2c             	mov    0x2c(%eax),%eax
   16a54:	8b 80 94 00 00 00    	mov    0x94(%eax),%eax
   16a5a:	51                   	push   %ecx
   16a5b:	ff 75 08             	pushl  0x8(%ebp)
   16a5e:	52                   	push   %edx
   16a5f:	50                   	push   %eax
   16a60:	e8 fd d9 ff ff       	call   14462 <dev_write>
   16a65:	83 c4 10             	add    $0x10,%esp
   16a68:	89 45 d4             	mov    %eax,-0x2c(%ebp)
   16a6b:	83 7d d4 00          	cmpl   $0x0,-0x2c(%ebp)
   16a6f:	79 08                	jns    16a79 <fatfs_write+0x103>
   16a71:	8b 45 f0             	mov    -0x10(%ebp),%eax
   16a74:	e9 16 01 00 00       	jmp    16b8f <fatfs_write+0x219>
   16a79:	8b 45 e8             	mov    -0x18(%ebp),%eax
   16a7c:	8b 40 20             	mov    0x20(%eax),%eax
   16a7f:	89 45 ec             	mov    %eax,-0x14(%ebp)
   16a82:	e9 b7 00 00 00       	jmp    16b3e <fatfs_write+0x1c8>
   16a87:	8b 55 dc             	mov    -0x24(%ebp),%edx
   16a8a:	8b 45 ec             	mov    -0x14(%ebp),%eax
   16a8d:	01 c2                	add    %eax,%edx
   16a8f:	8b 45 e8             	mov    -0x18(%ebp),%eax
   16a92:	8b 40 20             	mov    0x20(%eax),%eax
   16a95:	39 c2                	cmp    %eax,%edx
   16a97:	76 0c                	jbe    16aa5 <fatfs_write+0x12f>
   16a99:	8b 45 e8             	mov    -0x18(%ebp),%eax
   16a9c:	8b 40 20             	mov    0x20(%eax),%eax
   16a9f:	2b 45 dc             	sub    -0x24(%ebp),%eax
   16aa2:	89 45 ec             	mov    %eax,-0x14(%ebp)
   16aa5:	8b 45 e8             	mov    -0x18(%ebp),%eax
   16aa8:	c7 40 28 ff ff ff ff 	movl   $0xffffffff,0x28(%eax)
   16aaf:	8b 45 e8             	mov    -0x18(%ebp),%eax
   16ab2:	8b 40 10             	mov    0x10(%eax),%eax
   16ab5:	89 c3                	mov    %eax,%ebx
   16ab7:	8b 45 e8             	mov    -0x18(%ebp),%eax
   16aba:	8b 48 24             	mov    0x24(%eax),%ecx
   16abd:	8b 55 d8             	mov    -0x28(%ebp),%edx
   16ac0:	8b 45 e8             	mov    -0x18(%ebp),%eax
   16ac3:	8b 40 2c             	mov    0x2c(%eax),%eax
   16ac6:	8b 80 94 00 00 00    	mov    0x94(%eax),%eax
   16acc:	53                   	push   %ebx
   16acd:	51                   	push   %ecx
   16ace:	52                   	push   %edx
   16acf:	50                   	push   %eax
   16ad0:	e8 41 d9 ff ff       	call   14416 <dev_read>
   16ad5:	83 c4 10             	add    $0x10,%esp
   16ad8:	89 45 d0             	mov    %eax,-0x30(%ebp)
   16adb:	83 7d d0 00          	cmpl   $0x0,-0x30(%ebp)
   16adf:	79 08                	jns    16ae9 <fatfs_write+0x173>
   16ae1:	8b 45 f0             	mov    -0x10(%ebp),%eax
   16ae4:	e9 a6 00 00 00       	jmp    16b8f <fatfs_write+0x219>
   16ae9:	8b 45 ec             	mov    -0x14(%ebp),%eax
   16aec:	8b 55 e8             	mov    -0x18(%ebp),%edx
   16aef:	8b 4a 24             	mov    0x24(%edx),%ecx
   16af2:	8b 55 dc             	mov    -0x24(%ebp),%edx
   16af5:	01 ca                	add    %ecx,%edx
   16af7:	83 ec 04             	sub    $0x4,%esp
   16afa:	50                   	push   %eax
   16afb:	ff 75 08             	pushl  0x8(%ebp)
   16afe:	52                   	push   %edx
   16aff:	e8 0b 19 00 00       	call   1840f <kernel_memcpy>
   16b04:	83 c4 10             	add    $0x10,%esp
   16b07:	8b 45 e8             	mov    -0x18(%ebp),%eax
   16b0a:	8b 40 10             	mov    0x10(%eax),%eax
   16b0d:	89 c3                	mov    %eax,%ebx
   16b0f:	8b 45 e8             	mov    -0x18(%ebp),%eax
   16b12:	8b 48 24             	mov    0x24(%eax),%ecx
   16b15:	8b 55 d8             	mov    -0x28(%ebp),%edx
   16b18:	8b 45 e8             	mov    -0x18(%ebp),%eax
   16b1b:	8b 40 2c             	mov    0x2c(%eax),%eax
   16b1e:	8b 80 94 00 00 00    	mov    0x94(%eax),%eax
   16b24:	53                   	push   %ebx
   16b25:	51                   	push   %ecx
   16b26:	52                   	push   %edx
   16b27:	50                   	push   %eax
   16b28:	e8 35 d9 ff ff       	call   14462 <dev_write>
   16b2d:	83 c4 10             	add    $0x10,%esp
   16b30:	89 45 d0             	mov    %eax,-0x30(%ebp)
   16b33:	83 7d d0 00          	cmpl   $0x0,-0x30(%ebp)
   16b37:	79 05                	jns    16b3e <fatfs_write+0x1c8>
   16b39:	8b 45 f0             	mov    -0x10(%ebp),%eax
   16b3c:	eb 51                	jmp    16b8f <fatfs_write+0x219>
   16b3e:	8b 45 ec             	mov    -0x14(%ebp),%eax
   16b41:	01 45 08             	add    %eax,0x8(%ebp)
   16b44:	8b 45 ec             	mov    -0x14(%ebp),%eax
   16b47:	29 45 f4             	sub    %eax,-0xc(%ebp)
   16b4a:	8b 45 ec             	mov    -0x14(%ebp),%eax
   16b4d:	01 45 f0             	add    %eax,-0x10(%ebp)
   16b50:	8b 45 10             	mov    0x10(%ebp),%eax
   16b53:	8b 50 24             	mov    0x24(%eax),%edx
   16b56:	8b 45 ec             	mov    -0x14(%ebp),%eax
   16b59:	01 c2                	add    %eax,%edx
   16b5b:	8b 45 10             	mov    0x10(%ebp),%eax
   16b5e:	89 50 24             	mov    %edx,0x24(%eax)
   16b61:	6a 01                	push   $0x1
   16b63:	ff 75 ec             	pushl  -0x14(%ebp)
   16b66:	ff 75 e8             	pushl  -0x18(%ebp)
   16b69:	ff 75 10             	pushl  0x10(%ebp)
   16b6c:	e8 71 fa ff ff       	call   165e2 <move_file_pos>
   16b71:	83 c4 10             	add    $0x10,%esp
   16b74:	89 45 cc             	mov    %eax,-0x34(%ebp)
   16b77:	83 7d cc 00          	cmpl   $0x0,-0x34(%ebp)
   16b7b:	79 05                	jns    16b82 <fatfs_write+0x20c>
   16b7d:	8b 45 f0             	mov    -0x10(%ebp),%eax
   16b80:	eb 0d                	jmp    16b8f <fatfs_write+0x219>
   16b82:	83 7d f4 00          	cmpl   $0x0,-0xc(%ebp)
   16b86:	0f 85 67 fe ff ff    	jne    169f3 <fatfs_write+0x7d>
   16b8c:	8b 45 f0             	mov    -0x10(%ebp),%eax
   16b8f:	8b 5d fc             	mov    -0x4(%ebp),%ebx
   16b92:	c9                   	leave  
   16b93:	c3                   	ret    

00016b94 <fatfs_close>:
   16b94:	55                   	push   %ebp
   16b95:	89 e5                	mov    %esp,%ebp
   16b97:	83 ec 18             	sub    $0x18,%esp
   16b9a:	8b 45 08             	mov    0x8(%ebp),%eax
   16b9d:	8b 40 34             	mov    0x34(%eax),%eax
   16ba0:	85 c0                	test   %eax,%eax
   16ba2:	74 74                	je     16c18 <fatfs_close+0x84>
   16ba4:	8b 45 08             	mov    0x8(%ebp),%eax
   16ba7:	8b 40 44             	mov    0x44(%eax),%eax
   16baa:	8b 80 90 00 00 00    	mov    0x90(%eax),%eax
   16bb0:	89 45 f4             	mov    %eax,-0xc(%ebp)
   16bb3:	8b 45 08             	mov    0x8(%ebp),%eax
   16bb6:	8b 40 40             	mov    0x40(%eax),%eax
   16bb9:	83 ec 08             	sub    $0x8,%esp
   16bbc:	50                   	push   %eax
   16bbd:	ff 75 f4             	pushl  -0xc(%ebp)
   16bc0:	e8 70 ef ff ff       	call   15b35 <read_dir_entry>
   16bc5:	83 c4 10             	add    $0x10,%esp
   16bc8:	89 45 f0             	mov    %eax,-0x10(%ebp)
   16bcb:	83 7d f0 00          	cmpl   $0x0,-0x10(%ebp)
   16bcf:	74 4a                	je     16c1b <fatfs_close+0x87>
   16bd1:	8b 45 08             	mov    0x8(%ebp),%eax
   16bd4:	8b 50 24             	mov    0x24(%eax),%edx
   16bd7:	8b 45 f0             	mov    -0x10(%ebp),%eax
   16bda:	89 50 1c             	mov    %edx,0x1c(%eax)
   16bdd:	8b 45 08             	mov    0x8(%ebp),%eax
   16be0:	8b 40 38             	mov    0x38(%eax),%eax
   16be3:	c1 f8 10             	sar    $0x10,%eax
   16be6:	89 c2                	mov    %eax,%edx
   16be8:	8b 45 f0             	mov    -0x10(%ebp),%eax
   16beb:	66 89 50 14          	mov    %dx,0x14(%eax)
   16bef:	8b 45 08             	mov    0x8(%ebp),%eax
   16bf2:	8b 40 38             	mov    0x38(%eax),%eax
   16bf5:	89 c2                	mov    %eax,%edx
   16bf7:	8b 45 f0             	mov    -0x10(%ebp),%eax
   16bfa:	66 89 50 1a          	mov    %dx,0x1a(%eax)
   16bfe:	8b 45 08             	mov    0x8(%ebp),%eax
   16c01:	8b 40 40             	mov    0x40(%eax),%eax
   16c04:	83 ec 04             	sub    $0x4,%esp
   16c07:	50                   	push   %eax
   16c08:	ff 75 f0             	pushl  -0x10(%ebp)
   16c0b:	ff 75 f4             	pushl  -0xc(%ebp)
   16c0e:	e8 a7 ef ff ff       	call   15bba <write_dir_entry>
   16c13:	83 c4 10             	add    $0x10,%esp
   16c16:	eb 04                	jmp    16c1c <fatfs_close+0x88>
   16c18:	90                   	nop
   16c19:	eb 01                	jmp    16c1c <fatfs_close+0x88>
   16c1b:	90                   	nop
   16c1c:	c9                   	leave  
   16c1d:	c3                   	ret    

00016c1e <fatfs_seek>:
   16c1e:	55                   	push   %ebp
   16c1f:	89 e5                	mov    %esp,%ebp
   16c21:	83 ec 28             	sub    $0x28,%esp
   16c24:	83 7d 10 00          	cmpl   $0x0,0x10(%ebp)
   16c28:	74 0a                	je     16c34 <fatfs_seek+0x16>
   16c2a:	b8 ff ff ff ff       	mov    $0xffffffff,%eax
   16c2f:	e9 c7 00 00 00       	jmp    16cfb <fatfs_seek+0xdd>
   16c34:	8b 45 08             	mov    0x8(%ebp),%eax
   16c37:	8b 40 44             	mov    0x44(%eax),%eax
   16c3a:	8b 80 90 00 00 00    	mov    0x90(%eax),%eax
   16c40:	89 45 e8             	mov    %eax,-0x18(%ebp)
   16c43:	8b 45 08             	mov    0x8(%ebp),%eax
   16c46:	8b 40 3c             	mov    0x3c(%eax),%eax
   16c49:	66 89 45 f6          	mov    %ax,-0xa(%ebp)
   16c4d:	c7 45 f0 00 00 00 00 	movl   $0x0,-0x10(%ebp)
   16c54:	8b 45 0c             	mov    0xc(%ebp),%eax
   16c57:	89 45 ec             	mov    %eax,-0x14(%ebp)
   16c5a:	eb 7d                	jmp    16cd9 <fatfs_seek+0xbb>
   16c5c:	8b 45 e8             	mov    -0x18(%ebp),%eax
   16c5f:	8b 48 20             	mov    0x20(%eax),%ecx
   16c62:	8b 45 f0             	mov    -0x10(%ebp),%eax
   16c65:	ba 00 00 00 00       	mov    $0x0,%edx
   16c6a:	f7 f1                	div    %ecx
   16c6c:	89 55 e4             	mov    %edx,-0x1c(%ebp)
   16c6f:	8b 45 ec             	mov    -0x14(%ebp),%eax
   16c72:	89 45 e0             	mov    %eax,-0x20(%ebp)
   16c75:	8b 55 e4             	mov    -0x1c(%ebp),%edx
   16c78:	8b 45 e0             	mov    -0x20(%ebp),%eax
   16c7b:	01 c2                	add    %eax,%edx
   16c7d:	8b 45 e8             	mov    -0x18(%ebp),%eax
   16c80:	8b 40 20             	mov    0x20(%eax),%eax
   16c83:	39 c2                	cmp    %eax,%edx
   16c85:	73 08                	jae    16c8f <fatfs_seek+0x71>
   16c87:	8b 45 e0             	mov    -0x20(%ebp),%eax
   16c8a:	01 45 f0             	add    %eax,-0x10(%ebp)
   16c8d:	eb 54                	jmp    16ce3 <fatfs_seek+0xc5>
   16c8f:	8b 45 e8             	mov    -0x18(%ebp),%eax
   16c92:	8b 40 20             	mov    0x20(%eax),%eax
   16c95:	2b 45 e4             	sub    -0x1c(%ebp),%eax
   16c98:	89 45 e0             	mov    %eax,-0x20(%ebp)
   16c9b:	8b 45 e0             	mov    -0x20(%ebp),%eax
   16c9e:	01 45 f0             	add    %eax,-0x10(%ebp)
   16ca1:	8b 45 e0             	mov    -0x20(%ebp),%eax
   16ca4:	29 45 ec             	sub    %eax,-0x14(%ebp)
   16ca7:	0f b7 45 f6          	movzwl -0xa(%ebp),%eax
   16cab:	83 ec 08             	sub    $0x8,%esp
   16cae:	50                   	push   %eax
   16caf:	ff 75 e8             	pushl  -0x18(%ebp)
   16cb2:	e8 ba f5 ff ff       	call   16271 <cluster_get_next>
   16cb7:	83 c4 10             	add    $0x10,%esp
   16cba:	66 89 45 f6          	mov    %ax,-0xa(%ebp)
   16cbe:	0f b7 45 f6          	movzwl -0xa(%ebp),%eax
   16cc2:	83 ec 0c             	sub    $0xc,%esp
   16cc5:	50                   	push   %eax
   16cc6:	e8 7d f5 ff ff       	call   16248 <cluster_is_valid>
   16ccb:	83 c4 10             	add    $0x10,%esp
   16cce:	85 c0                	test   %eax,%eax
   16cd0:	75 07                	jne    16cd9 <fatfs_seek+0xbb>
   16cd2:	b8 ff ff ff ff       	mov    $0xffffffff,%eax
   16cd7:	eb 22                	jmp    16cfb <fatfs_seek+0xdd>
   16cd9:	83 7d ec 00          	cmpl   $0x0,-0x14(%ebp)
   16cdd:	0f 85 79 ff ff ff    	jne    16c5c <fatfs_seek+0x3e>
   16ce3:	8b 55 f0             	mov    -0x10(%ebp),%edx
   16ce6:	8b 45 08             	mov    0x8(%ebp),%eax
   16ce9:	89 50 30             	mov    %edx,0x30(%eax)
   16cec:	0f b7 55 f6          	movzwl -0xa(%ebp),%edx
   16cf0:	8b 45 08             	mov    0x8(%ebp),%eax
   16cf3:	89 50 3c             	mov    %edx,0x3c(%eax)
   16cf6:	b8 00 00 00 00       	mov    $0x0,%eax
   16cfb:	c9                   	leave  
   16cfc:	c3                   	ret    

00016cfd <fatfs_stat>:
   16cfd:	55                   	push   %ebp
   16cfe:	89 e5                	mov    %esp,%ebp
   16d00:	90                   	nop
   16d01:	5d                   	pop    %ebp
   16d02:	c3                   	ret    

00016d03 <fatfs_opendir>:
   16d03:	55                   	push   %ebp
   16d04:	89 e5                	mov    %esp,%ebp
   16d06:	8b 45 10             	mov    0x10(%ebp),%eax
   16d09:	c7 00 00 00 00 00    	movl   $0x0,(%eax)
   16d0f:	b8 00 00 00 00       	mov    $0x0,%eax
   16d14:	5d                   	pop    %ebp
   16d15:	c3                   	ret    

00016d16 <fatfs_readdir>:
   16d16:	55                   	push   %ebp
   16d17:	89 e5                	mov    %esp,%ebp
   16d19:	83 ec 18             	sub    $0x18,%esp
   16d1c:	8b 45 08             	mov    0x8(%ebp),%eax
   16d1f:	8b 80 90 00 00 00    	mov    0x90(%eax),%eax
   16d25:	89 45 f4             	mov    %eax,-0xc(%ebp)
   16d28:	e9 b6 00 00 00       	jmp    16de3 <fatfs_readdir+0xcd>
   16d2d:	8b 45 0c             	mov    0xc(%ebp),%eax
   16d30:	8b 00                	mov    (%eax),%eax
   16d32:	83 ec 08             	sub    $0x8,%esp
   16d35:	50                   	push   %eax
   16d36:	ff 75 f4             	pushl  -0xc(%ebp)
   16d39:	e8 f7 ed ff ff       	call   15b35 <read_dir_entry>
   16d3e:	83 c4 10             	add    $0x10,%esp
   16d41:	89 45 f0             	mov    %eax,-0x10(%ebp)
   16d44:	83 7d f0 00          	cmpl   $0x0,-0x10(%ebp)
   16d48:	75 0a                	jne    16d54 <fatfs_readdir+0x3e>
   16d4a:	b8 ff ff ff ff       	mov    $0xffffffff,%eax
   16d4f:	e9 ac 00 00 00       	jmp    16e00 <fatfs_readdir+0xea>
   16d54:	8b 45 f0             	mov    -0x10(%ebp),%eax
   16d57:	0f b6 00             	movzbl (%eax),%eax
   16d5a:	84 c0                	test   %al,%al
   16d5c:	0f 84 98 00 00 00    	je     16dfa <fatfs_readdir+0xe4>
   16d62:	8b 45 f0             	mov    -0x10(%ebp),%eax
   16d65:	0f b6 00             	movzbl (%eax),%eax
   16d68:	3c e5                	cmp    $0xe5,%al
   16d6a:	74 6a                	je     16dd6 <fatfs_readdir+0xc0>
   16d6c:	83 ec 0c             	sub    $0xc,%esp
   16d6f:	ff 75 f0             	pushl  -0x10(%ebp)
   16d72:	e8 e8 ee ff ff       	call   15c5f <diritem_get_type>
   16d77:	83 c4 10             	add    $0x10,%esp
   16d7a:	89 45 ec             	mov    %eax,-0x14(%ebp)
   16d7d:	83 7d ec 03          	cmpl   $0x3,-0x14(%ebp)
   16d81:	74 06                	je     16d89 <fatfs_readdir+0x73>
   16d83:	83 7d ec 02          	cmpl   $0x2,-0x14(%ebp)
   16d87:	75 4d                	jne    16dd6 <fatfs_readdir+0xc0>
   16d89:	8b 55 ec             	mov    -0x14(%ebp),%edx
   16d8c:	8b 45 10             	mov    0x10(%ebp),%eax
   16d8f:	89 50 04             	mov    %edx,0x4(%eax)
   16d92:	8b 45 f0             	mov    -0x10(%ebp),%eax
   16d95:	8b 40 1c             	mov    0x1c(%eax),%eax
   16d98:	89 c2                	mov    %eax,%edx
   16d9a:	8b 45 10             	mov    0x10(%ebp),%eax
   16d9d:	89 90 08 01 00 00    	mov    %edx,0x108(%eax)
   16da3:	8b 45 10             	mov    0x10(%ebp),%eax
   16da6:	83 c0 08             	add    $0x8,%eax
   16da9:	83 ec 08             	sub    $0x8,%esp
   16dac:	50                   	push   %eax
   16dad:	ff 75 f0             	pushl  -0x10(%ebp)
   16db0:	e8 ed ec ff ff       	call   15aa2 <diritem_gt_name>
   16db5:	83 c4 10             	add    $0x10,%esp
   16db8:	8b 45 0c             	mov    0xc(%ebp),%eax
   16dbb:	8b 10                	mov    (%eax),%edx
   16dbd:	8b 45 10             	mov    0x10(%ebp),%eax
   16dc0:	89 10                	mov    %edx,(%eax)
   16dc2:	8b 45 0c             	mov    0xc(%ebp),%eax
   16dc5:	8b 00                	mov    (%eax),%eax
   16dc7:	8d 50 01             	lea    0x1(%eax),%edx
   16dca:	8b 45 0c             	mov    0xc(%ebp),%eax
   16dcd:	89 10                	mov    %edx,(%eax)
   16dcf:	b8 00 00 00 00       	mov    $0x0,%eax
   16dd4:	eb 2a                	jmp    16e00 <fatfs_readdir+0xea>
   16dd6:	8b 45 0c             	mov    0xc(%ebp),%eax
   16dd9:	8b 00                	mov    (%eax),%eax
   16ddb:	8d 50 01             	lea    0x1(%eax),%edx
   16dde:	8b 45 0c             	mov    0xc(%ebp),%eax
   16de1:	89 10                	mov    %edx,(%eax)
   16de3:	8b 45 0c             	mov    0xc(%ebp),%eax
   16de6:	8b 00                	mov    (%eax),%eax
   16de8:	89 c2                	mov    %eax,%edx
   16dea:	8b 45 f4             	mov    -0xc(%ebp),%eax
   16ded:	8b 40 14             	mov    0x14(%eax),%eax
   16df0:	39 c2                	cmp    %eax,%edx
   16df2:	0f 82 35 ff ff ff    	jb     16d2d <fatfs_readdir+0x17>
   16df8:	eb 01                	jmp    16dfb <fatfs_readdir+0xe5>
   16dfa:	90                   	nop
   16dfb:	b8 ff ff ff ff       	mov    $0xffffffff,%eax
   16e00:	c9                   	leave  
   16e01:	c3                   	ret    

00016e02 <fatfs_closedir>:
   16e02:	55                   	push   %ebp
   16e03:	89 e5                	mov    %esp,%ebp
   16e05:	b8 00 00 00 00       	mov    $0x0,%eax
   16e0a:	5d                   	pop    %ebp
   16e0b:	c3                   	ret    

00016e0c <fatfs_unlink>:
   16e0c:	55                   	push   %ebp
   16e0d:	89 e5                	mov    %esp,%ebp
   16e0f:	83 ec 18             	sub    $0x18,%esp
   16e12:	8b 45 08             	mov    0x8(%ebp),%eax
   16e15:	8b 80 90 00 00 00    	mov    0x90(%eax),%eax
   16e1b:	89 45 f0             	mov    %eax,-0x10(%ebp)
   16e1e:	c7 45 f4 00 00 00 00 	movl   $0x0,-0xc(%ebp)
   16e25:	e9 a5 00 00 00       	jmp    16ecf <fatfs_unlink+0xc3>
   16e2a:	83 ec 08             	sub    $0x8,%esp
   16e2d:	ff 75 f4             	pushl  -0xc(%ebp)
   16e30:	ff 75 f0             	pushl  -0x10(%ebp)
   16e33:	e8 fd ec ff ff       	call   15b35 <read_dir_entry>
   16e38:	83 c4 10             	add    $0x10,%esp
   16e3b:	89 45 ec             	mov    %eax,-0x14(%ebp)
   16e3e:	83 7d ec 00          	cmpl   $0x0,-0x14(%ebp)
   16e42:	75 0a                	jne    16e4e <fatfs_unlink+0x42>
   16e44:	b8 ff ff ff ff       	mov    $0xffffffff,%eax
   16e49:	e9 9a 00 00 00       	jmp    16ee8 <fatfs_unlink+0xdc>
   16e4e:	8b 45 ec             	mov    -0x14(%ebp),%eax
   16e51:	0f b6 00             	movzbl (%eax),%eax
   16e54:	84 c0                	test   %al,%al
   16e56:	0f 84 86 00 00 00    	je     16ee2 <fatfs_unlink+0xd6>
   16e5c:	8b 45 ec             	mov    -0x14(%ebp),%eax
   16e5f:	0f b6 00             	movzbl (%eax),%eax
   16e62:	3c e5                	cmp    $0xe5,%al
   16e64:	74 64                	je     16eca <fatfs_unlink+0xbe>
   16e66:	83 ec 08             	sub    $0x8,%esp
   16e69:	ff 75 0c             	pushl  0xc(%ebp)
   16e6c:	ff 75 ec             	pushl  -0x14(%ebp)
   16e6f:	e8 c5 f1 ff ff       	call   16039 <diritem_name_match>
   16e74:	83 c4 10             	add    $0x10,%esp
   16e77:	85 c0                	test   %eax,%eax
   16e79:	74 50                	je     16ecb <fatfs_unlink+0xbf>
   16e7b:	8b 45 ec             	mov    -0x14(%ebp),%eax
   16e7e:	0f b7 40 14          	movzwl 0x14(%eax),%eax
   16e82:	0f b7 c0             	movzwl %ax,%eax
   16e85:	c1 e0 10             	shl    $0x10,%eax
   16e88:	89 c2                	mov    %eax,%edx
   16e8a:	8b 45 ec             	mov    -0x14(%ebp),%eax
   16e8d:	0f b7 40 1a          	movzwl 0x1a(%eax),%eax
   16e91:	0f b7 c0             	movzwl %ax,%eax
   16e94:	09 d0                	or     %edx,%eax
   16e96:	89 45 e8             	mov    %eax,-0x18(%ebp)
   16e99:	8b 45 e8             	mov    -0x18(%ebp),%eax
   16e9c:	0f b7 c0             	movzwl %ax,%eax
   16e9f:	83 ec 08             	sub    $0x8,%esp
   16ea2:	50                   	push   %eax
   16ea3:	ff 75 f0             	pushl  -0x10(%ebp)
   16ea6:	e8 c5 f1 ff ff       	call   16070 <cluster_free_chain>
   16eab:	83 c4 10             	add    $0x10,%esp
   16eae:	8b 45 ec             	mov    -0x14(%ebp),%eax
   16eb1:	c6 00 e5             	movb   $0xe5,(%eax)
   16eb4:	83 ec 04             	sub    $0x4,%esp
   16eb7:	ff 75 f4             	pushl  -0xc(%ebp)
   16eba:	ff 75 ec             	pushl  -0x14(%ebp)
   16ebd:	ff 75 f0             	pushl  -0x10(%ebp)
   16ec0:	e8 f5 ec ff ff       	call   15bba <write_dir_entry>
   16ec5:	83 c4 10             	add    $0x10,%esp
   16ec8:	eb 1e                	jmp    16ee8 <fatfs_unlink+0xdc>
   16eca:	90                   	nop
   16ecb:	83 45 f4 01          	addl   $0x1,-0xc(%ebp)
   16ecf:	8b 45 f0             	mov    -0x10(%ebp),%eax
   16ed2:	8b 50 14             	mov    0x14(%eax),%edx
   16ed5:	8b 45 f4             	mov    -0xc(%ebp),%eax
   16ed8:	39 c2                	cmp    %eax,%edx
   16eda:	0f 87 4a ff ff ff    	ja     16e2a <fatfs_unlink+0x1e>
   16ee0:	eb 01                	jmp    16ee3 <fatfs_unlink+0xd7>
   16ee2:	90                   	nop
   16ee3:	b8 ff ff ff ff       	mov    $0xffffffff,%eax
   16ee8:	c9                   	leave  
   16ee9:	c3                   	ret    

00016eea <file_alloc>:
   16eea:	55                   	push   %ebp
   16eeb:	89 e5                	mov    %esp,%ebp
   16eed:	83 ec 18             	sub    $0x18,%esp
   16ef0:	c7 45 f4 00 00 00 00 	movl   $0x0,-0xc(%ebp)
   16ef7:	83 ec 0c             	sub    $0xc,%esp
   16efa:	68 a0 df 05 00       	push   $0x5dfa0
   16eff:	e8 db 0e 00 00       	call   17ddf <mutex_lock>
   16f04:	83 c4 10             	add    $0x10,%esp
   16f07:	c7 45 f0 00 00 00 00 	movl   $0x0,-0x10(%ebp)
   16f0e:	eb 6d                	jmp    16f7d <file_alloc+0x93>
   16f10:	8b 55 f0             	mov    -0x10(%ebp),%edx
   16f13:	89 d0                	mov    %edx,%eax
   16f15:	c1 e0 03             	shl    $0x3,%eax
   16f18:	01 d0                	add    %edx,%eax
   16f1a:	c1 e0 03             	shl    $0x3,%eax
   16f1d:	05 c8 9f 03 00       	add    $0x39fc8,%eax
   16f22:	8b 00                	mov    (%eax),%eax
   16f24:	85 c0                	test   %eax,%eax
   16f26:	75 51                	jne    16f79 <file_alloc+0x8f>
   16f28:	8b 55 f0             	mov    -0x10(%ebp),%edx
   16f2b:	89 d0                	mov    %edx,%eax
   16f2d:	c1 e0 03             	shl    $0x3,%eax
   16f30:	01 d0                	add    %edx,%eax
   16f32:	c1 e0 03             	shl    $0x3,%eax
   16f35:	05 a0 9f 03 00       	add    $0x39fa0,%eax
   16f3a:	83 ec 04             	sub    $0x4,%esp
   16f3d:	6a 48                	push   $0x48
   16f3f:	6a 00                	push   $0x0
   16f41:	50                   	push   %eax
   16f42:	e8 17 15 00 00       	call   1845e <kernel_memset>
   16f47:	83 c4 10             	add    $0x10,%esp
   16f4a:	8b 55 f0             	mov    -0x10(%ebp),%edx
   16f4d:	89 d0                	mov    %edx,%eax
   16f4f:	c1 e0 03             	shl    $0x3,%eax
   16f52:	01 d0                	add    %edx,%eax
   16f54:	c1 e0 03             	shl    $0x3,%eax
   16f57:	05 c8 9f 03 00       	add    $0x39fc8,%eax
   16f5c:	c7 00 01 00 00 00    	movl   $0x1,(%eax)
   16f62:	8b 55 f0             	mov    -0x10(%ebp),%edx
   16f65:	89 d0                	mov    %edx,%eax
   16f67:	c1 e0 03             	shl    $0x3,%eax
   16f6a:	01 d0                	add    %edx,%eax
   16f6c:	c1 e0 03             	shl    $0x3,%eax
   16f6f:	05 a0 9f 03 00       	add    $0x39fa0,%eax
   16f74:	89 45 f4             	mov    %eax,-0xc(%ebp)
   16f77:	eb 0d                	jmp    16f86 <file_alloc+0x9c>
   16f79:	83 45 f0 01          	addl   $0x1,-0x10(%ebp)
   16f7d:	81 7d f0 ff 07 00 00 	cmpl   $0x7ff,-0x10(%ebp)
   16f84:	7e 8a                	jle    16f10 <file_alloc+0x26>
   16f86:	83 ec 0c             	sub    $0xc,%esp
   16f89:	68 a0 df 05 00       	push   $0x5dfa0
   16f8e:	e8 dc 0e 00 00       	call   17e6f <mutex_unlock>
   16f93:	83 c4 10             	add    $0x10,%esp
   16f96:	8b 45 f4             	mov    -0xc(%ebp),%eax
   16f99:	c9                   	leave  
   16f9a:	c3                   	ret    

00016f9b <file_table_init>:
   16f9b:	55                   	push   %ebp
   16f9c:	89 e5                	mov    %esp,%ebp
   16f9e:	83 ec 08             	sub    $0x8,%esp
   16fa1:	83 ec 0c             	sub    $0xc,%esp
   16fa4:	68 a0 df 05 00       	push   $0x5dfa0
   16fa9:	e8 05 0e 00 00       	call   17db3 <mutex_init>
   16fae:	83 c4 10             	add    $0x10,%esp
   16fb1:	83 ec 04             	sub    $0x4,%esp
   16fb4:	68 00 40 02 00       	push   $0x24000
   16fb9:	6a 00                	push   $0x0
   16fbb:	68 a0 9f 03 00       	push   $0x39fa0
   16fc0:	e8 99 14 00 00       	call   1845e <kernel_memset>
   16fc5:	83 c4 10             	add    $0x10,%esp
   16fc8:	90                   	nop
   16fc9:	c9                   	leave  
   16fca:	c3                   	ret    

00016fcb <file_free>:
   16fcb:	55                   	push   %ebp
   16fcc:	89 e5                	mov    %esp,%ebp
   16fce:	83 ec 08             	sub    $0x8,%esp
   16fd1:	83 ec 0c             	sub    $0xc,%esp
   16fd4:	68 a0 df 05 00       	push   $0x5dfa0
   16fd9:	e8 01 0e 00 00       	call   17ddf <mutex_lock>
   16fde:	83 c4 10             	add    $0x10,%esp
   16fe1:	8b 45 08             	mov    0x8(%ebp),%eax
   16fe4:	8b 40 28             	mov    0x28(%eax),%eax
   16fe7:	85 c0                	test   %eax,%eax
   16fe9:	74 0f                	je     16ffa <file_free+0x2f>
   16feb:	8b 45 08             	mov    0x8(%ebp),%eax
   16fee:	8b 40 28             	mov    0x28(%eax),%eax
   16ff1:	8d 50 ff             	lea    -0x1(%eax),%edx
   16ff4:	8b 45 08             	mov    0x8(%ebp),%eax
   16ff7:	89 50 28             	mov    %edx,0x28(%eax)
   16ffa:	83 ec 0c             	sub    $0xc,%esp
   16ffd:	68 a0 df 05 00       	push   $0x5dfa0
   17002:	e8 68 0e 00 00       	call   17e6f <mutex_unlock>
   17007:	83 c4 10             	add    $0x10,%esp
   1700a:	90                   	nop
   1700b:	c9                   	leave  
   1700c:	c3                   	ret    

0001700d <file_inc_ref>:
   1700d:	55                   	push   %ebp
   1700e:	89 e5                	mov    %esp,%ebp
   17010:	83 ec 08             	sub    $0x8,%esp
   17013:	83 ec 0c             	sub    $0xc,%esp
   17016:	68 a0 df 05 00       	push   $0x5dfa0
   1701b:	e8 bf 0d 00 00       	call   17ddf <mutex_lock>
   17020:	83 c4 10             	add    $0x10,%esp
   17023:	8b 45 08             	mov    0x8(%ebp),%eax
   17026:	8b 40 28             	mov    0x28(%eax),%eax
   17029:	8d 50 01             	lea    0x1(%eax),%edx
   1702c:	8b 45 08             	mov    0x8(%ebp),%eax
   1702f:	89 50 28             	mov    %edx,0x28(%eax)
   17032:	83 ec 0c             	sub    $0xc,%esp
   17035:	68 a0 df 05 00       	push   $0x5dfa0
   1703a:	e8 30 0e 00 00       	call   17e6f <mutex_unlock>
   1703f:	83 c4 10             	add    $0x10,%esp
   17042:	90                   	nop
   17043:	c9                   	leave  
   17044:	c3                   	ret    

00017045 <list_node_next>:
   17045:	55                   	push   %ebp
   17046:	89 e5                	mov    %esp,%ebp
   17048:	8b 45 08             	mov    0x8(%ebp),%eax
   1704b:	8b 40 04             	mov    0x4(%eax),%eax
   1704e:	5d                   	pop    %ebp
   1704f:	c3                   	ret    

00017050 <list_first>:
   17050:	55                   	push   %ebp
   17051:	89 e5                	mov    %esp,%ebp
   17053:	8b 45 08             	mov    0x8(%ebp),%eax
   17056:	8b 00                	mov    (%eax),%eax
   17058:	5d                   	pop    %ebp
   17059:	c3                   	ret    

0001705a <inb>:
   1705a:	55                   	push   %ebp
   1705b:	89 e5                	mov    %esp,%ebp
   1705d:	83 ec 14             	sub    $0x14,%esp
   17060:	8b 45 08             	mov    0x8(%ebp),%eax
   17063:	66 89 45 ec          	mov    %ax,-0x14(%ebp)
   17067:	0f b7 45 ec          	movzwl -0x14(%ebp),%eax
   1706b:	89 c2                	mov    %eax,%edx
   1706d:	ec                   	in     (%dx),%al
   1706e:	88 45 ff             	mov    %al,-0x1(%ebp)
   17071:	0f b6 45 ff          	movzbl -0x1(%ebp),%eax
   17075:	c9                   	leave  
   17076:	c3                   	ret    

00017077 <inw>:
   17077:	55                   	push   %ebp
   17078:	89 e5                	mov    %esp,%ebp
   1707a:	83 ec 14             	sub    $0x14,%esp
   1707d:	8b 45 08             	mov    0x8(%ebp),%eax
   17080:	66 89 45 ec          	mov    %ax,-0x14(%ebp)
   17084:	0f b7 45 ec          	movzwl -0x14(%ebp),%eax
   17088:	89 c2                	mov    %eax,%edx
   1708a:	66 ed                	in     (%dx),%ax
   1708c:	66 89 45 fe          	mov    %ax,-0x2(%ebp)
   17090:	0f b7 45 fe          	movzwl -0x2(%ebp),%eax
   17094:	c9                   	leave  
   17095:	c3                   	ret    

00017096 <outb>:
   17096:	55                   	push   %ebp
   17097:	89 e5                	mov    %esp,%ebp
   17099:	83 ec 08             	sub    $0x8,%esp
   1709c:	8b 55 08             	mov    0x8(%ebp),%edx
   1709f:	8b 45 0c             	mov    0xc(%ebp),%eax
   170a2:	66 89 55 fc          	mov    %dx,-0x4(%ebp)
   170a6:	88 45 f8             	mov    %al,-0x8(%ebp)
   170a9:	0f b7 55 fc          	movzwl -0x4(%ebp),%edx
   170ad:	0f b6 45 f8          	movzbl -0x8(%ebp),%eax
   170b1:	ee                   	out    %al,(%dx)
   170b2:	90                   	nop
   170b3:	c9                   	leave  
   170b4:	c3                   	ret    

000170b5 <read_disk>:
   170b5:	55                   	push   %ebp
   170b6:	89 e5                	mov    %esp,%ebp
   170b8:	53                   	push   %ebx
   170b9:	83 ec 10             	sub    $0x10,%esp
   170bc:	68 e0 00 00 00       	push   $0xe0
   170c1:	68 f6 01 00 00       	push   $0x1f6
   170c6:	e8 cb ff ff ff       	call   17096 <outb>
   170cb:	83 c4 08             	add    $0x8,%esp
   170ce:	8b 45 0c             	mov    0xc(%ebp),%eax
   170d1:	c1 e8 08             	shr    $0x8,%eax
   170d4:	0f b6 c0             	movzbl %al,%eax
   170d7:	50                   	push   %eax
   170d8:	68 f2 01 00 00       	push   $0x1f2
   170dd:	e8 b4 ff ff ff       	call   17096 <outb>
   170e2:	83 c4 08             	add    $0x8,%esp
   170e5:	8b 45 08             	mov    0x8(%ebp),%eax
   170e8:	c1 e8 18             	shr    $0x18,%eax
   170eb:	0f b6 c0             	movzbl %al,%eax
   170ee:	50                   	push   %eax
   170ef:	68 f3 01 00 00       	push   $0x1f3
   170f4:	e8 9d ff ff ff       	call   17096 <outb>
   170f9:	83 c4 08             	add    $0x8,%esp
   170fc:	6a 00                	push   $0x0
   170fe:	68 f4 01 00 00       	push   $0x1f4
   17103:	e8 8e ff ff ff       	call   17096 <outb>
   17108:	83 c4 08             	add    $0x8,%esp
   1710b:	6a 00                	push   $0x0
   1710d:	68 f5 01 00 00       	push   $0x1f5
   17112:	e8 7f ff ff ff       	call   17096 <outb>
   17117:	83 c4 08             	add    $0x8,%esp
   1711a:	8b 45 0c             	mov    0xc(%ebp),%eax
   1711d:	0f b6 c0             	movzbl %al,%eax
   17120:	50                   	push   %eax
   17121:	68 f2 01 00 00       	push   $0x1f2
   17126:	e8 6b ff ff ff       	call   17096 <outb>
   1712b:	83 c4 08             	add    $0x8,%esp
   1712e:	8b 45 08             	mov    0x8(%ebp),%eax
   17131:	0f b6 c0             	movzbl %al,%eax
   17134:	50                   	push   %eax
   17135:	68 f3 01 00 00       	push   $0x1f3
   1713a:	e8 57 ff ff ff       	call   17096 <outb>
   1713f:	83 c4 08             	add    $0x8,%esp
   17142:	8b 45 08             	mov    0x8(%ebp),%eax
   17145:	c1 e8 08             	shr    $0x8,%eax
   17148:	0f b6 c0             	movzbl %al,%eax
   1714b:	50                   	push   %eax
   1714c:	68 f4 01 00 00       	push   $0x1f4
   17151:	e8 40 ff ff ff       	call   17096 <outb>
   17156:	83 c4 08             	add    $0x8,%esp
   17159:	8b 45 08             	mov    0x8(%ebp),%eax
   1715c:	c1 e8 10             	shr    $0x10,%eax
   1715f:	0f b6 c0             	movzbl %al,%eax
   17162:	50                   	push   %eax
   17163:	68 f5 01 00 00       	push   $0x1f5
   17168:	e8 29 ff ff ff       	call   17096 <outb>
   1716d:	83 c4 08             	add    $0x8,%esp
   17170:	6a 24                	push   $0x24
   17172:	68 f7 01 00 00       	push   $0x1f7
   17177:	e8 1a ff ff ff       	call   17096 <outb>
   1717c:	83 c4 08             	add    $0x8,%esp
   1717f:	8b 45 10             	mov    0x10(%ebp),%eax
   17182:	89 45 f8             	mov    %eax,-0x8(%ebp)
   17185:	eb 48                	jmp    171cf <read_disk+0x11a>
   17187:	90                   	nop
   17188:	68 f7 01 00 00       	push   $0x1f7
   1718d:	e8 c8 fe ff ff       	call   1705a <inb>
   17192:	83 c4 04             	add    $0x4,%esp
   17195:	0f b6 c0             	movzbl %al,%eax
   17198:	83 e0 08             	and    $0x8,%eax
   1719b:	83 f8 08             	cmp    $0x8,%eax
   1719e:	75 e8                	jne    17188 <read_disk+0xd3>
   171a0:	c7 45 f4 00 00 00 00 	movl   $0x0,-0xc(%ebp)
   171a7:	eb 1d                	jmp    171c6 <read_disk+0x111>
   171a9:	8b 5d f8             	mov    -0x8(%ebp),%ebx
   171ac:	8d 43 02             	lea    0x2(%ebx),%eax
   171af:	89 45 f8             	mov    %eax,-0x8(%ebp)
   171b2:	68 f0 01 00 00       	push   $0x1f0
   171b7:	e8 bb fe ff ff       	call   17077 <inw>
   171bc:	83 c4 04             	add    $0x4,%esp
   171bf:	66 89 03             	mov    %ax,(%ebx)
   171c2:	83 45 f4 01          	addl   $0x1,-0xc(%ebp)
   171c6:	81 7d f4 ff 00 00 00 	cmpl   $0xff,-0xc(%ebp)
   171cd:	7e da                	jle    171a9 <read_disk+0xf4>
   171cf:	8b 45 0c             	mov    0xc(%ebp),%eax
   171d2:	8d 50 ff             	lea    -0x1(%eax),%edx
   171d5:	89 55 0c             	mov    %edx,0xc(%ebp)
   171d8:	85 c0                	test   %eax,%eax
   171da:	75 ab                	jne    17187 <read_disk+0xd2>
   171dc:	90                   	nop
   171dd:	8b 5d fc             	mov    -0x4(%ebp),%ebx
   171e0:	c9                   	leave  
   171e1:	c3                   	ret    

000171e2 <is_path_valid>:
   171e2:	55                   	push   %ebp
   171e3:	89 e5                	mov    %esp,%ebp
   171e5:	83 7d 08 00          	cmpl   $0x0,0x8(%ebp)
   171e9:	74 0a                	je     171f5 <is_path_valid+0x13>
   171eb:	8b 45 08             	mov    0x8(%ebp),%eax
   171ee:	0f b6 00             	movzbl (%eax),%eax
   171f1:	84 c0                	test   %al,%al
   171f3:	75 07                	jne    171fc <is_path_valid+0x1a>
   171f5:	b8 00 00 00 00       	mov    $0x0,%eax
   171fa:	eb 05                	jmp    17201 <is_path_valid+0x1f>
   171fc:	b8 01 00 00 00       	mov    $0x1,%eax
   17201:	5d                   	pop    %ebp
   17202:	c3                   	ret    

00017203 <path_to_num>:
   17203:	55                   	push   %ebp
   17204:	89 e5                	mov    %esp,%ebp
   17206:	83 ec 10             	sub    $0x10,%esp
   17209:	c7 45 fc 00 00 00 00 	movl   $0x0,-0x4(%ebp)
   17210:	8b 45 08             	mov    0x8(%ebp),%eax
   17213:	89 45 f8             	mov    %eax,-0x8(%ebp)
   17216:	eb 23                	jmp    1723b <path_to_num+0x38>
   17218:	8b 55 fc             	mov    -0x4(%ebp),%edx
   1721b:	89 d0                	mov    %edx,%eax
   1721d:	c1 e0 02             	shl    $0x2,%eax
   17220:	01 d0                	add    %edx,%eax
   17222:	01 c0                	add    %eax,%eax
   17224:	89 c2                	mov    %eax,%edx
   17226:	8b 45 f8             	mov    -0x8(%ebp),%eax
   17229:	0f b6 00             	movzbl (%eax),%eax
   1722c:	0f be c0             	movsbl %al,%eax
   1722f:	01 d0                	add    %edx,%eax
   17231:	83 e8 30             	sub    $0x30,%eax
   17234:	89 45 fc             	mov    %eax,-0x4(%ebp)
   17237:	83 45 f8 01          	addl   $0x1,-0x8(%ebp)
   1723b:	8b 45 f8             	mov    -0x8(%ebp),%eax
   1723e:	0f b6 00             	movzbl (%eax),%eax
   17241:	84 c0                	test   %al,%al
   17243:	75 d3                	jne    17218 <path_to_num+0x15>
   17245:	8b 45 0c             	mov    0xc(%ebp),%eax
   17248:	8b 55 fc             	mov    -0x4(%ebp),%edx
   1724b:	89 10                	mov    %edx,(%eax)
   1724d:	b8 00 00 00 00       	mov    $0x0,%eax
   17252:	c9                   	leave  
   17253:	c3                   	ret    

00017254 <path_next_child>:
   17254:	55                   	push   %ebp
   17255:	89 e5                	mov    %esp,%ebp
   17257:	83 ec 10             	sub    $0x10,%esp
   1725a:	8b 45 08             	mov    0x8(%ebp),%eax
   1725d:	89 45 fc             	mov    %eax,-0x4(%ebp)
   17260:	90                   	nop
   17261:	8b 45 fc             	mov    -0x4(%ebp),%eax
   17264:	0f b6 00             	movzbl (%eax),%eax
   17267:	84 c0                	test   %al,%al
   17269:	74 10                	je     1727b <path_next_child+0x27>
   1726b:	8b 45 fc             	mov    -0x4(%ebp),%eax
   1726e:	8d 50 01             	lea    0x1(%eax),%edx
   17271:	89 55 fc             	mov    %edx,-0x4(%ebp)
   17274:	0f b6 00             	movzbl (%eax),%eax
   17277:	3c 2f                	cmp    $0x2f,%al
   17279:	74 e6                	je     17261 <path_next_child+0xd>
   1727b:	90                   	nop
   1727c:	8b 45 fc             	mov    -0x4(%ebp),%eax
   1727f:	0f b6 00             	movzbl (%eax),%eax
   17282:	84 c0                	test   %al,%al
   17284:	74 10                	je     17296 <path_next_child+0x42>
   17286:	8b 45 fc             	mov    -0x4(%ebp),%eax
   17289:	8d 50 01             	lea    0x1(%eax),%edx
   1728c:	89 55 fc             	mov    %edx,-0x4(%ebp)
   1728f:	0f b6 00             	movzbl (%eax),%eax
   17292:	3c 2f                	cmp    $0x2f,%al
   17294:	75 e6                	jne    1727c <path_next_child+0x28>
   17296:	8b 45 fc             	mov    -0x4(%ebp),%eax
   17299:	0f b6 00             	movzbl (%eax),%eax
   1729c:	84 c0                	test   %al,%al
   1729e:	74 05                	je     172a5 <path_next_child+0x51>
   172a0:	8b 45 fc             	mov    -0x4(%ebp),%eax
   172a3:	eb 05                	jmp    172aa <path_next_child+0x56>
   172a5:	b8 00 00 00 00       	mov    $0x0,%eax
   172aa:	c9                   	leave  
   172ab:	c3                   	ret    

000172ac <fs_protect>:
   172ac:	55                   	push   %ebp
   172ad:	89 e5                	mov    %esp,%ebp
   172af:	83 ec 08             	sub    $0x8,%esp
   172b2:	8b 45 08             	mov    0x8(%ebp),%eax
   172b5:	8b 80 98 00 00 00    	mov    0x98(%eax),%eax
   172bb:	85 c0                	test   %eax,%eax
   172bd:	74 15                	je     172d4 <fs_protect+0x28>
   172bf:	8b 45 08             	mov    0x8(%ebp),%eax
   172c2:	8b 80 98 00 00 00    	mov    0x98(%eax),%eax
   172c8:	83 ec 0c             	sub    $0xc,%esp
   172cb:	50                   	push   %eax
   172cc:	e8 0e 0b 00 00       	call   17ddf <mutex_lock>
   172d1:	83 c4 10             	add    $0x10,%esp
   172d4:	90                   	nop
   172d5:	c9                   	leave  
   172d6:	c3                   	ret    

000172d7 <fs_unprotect>:
   172d7:	55                   	push   %ebp
   172d8:	89 e5                	mov    %esp,%ebp
   172da:	83 ec 08             	sub    $0x8,%esp
   172dd:	8b 45 08             	mov    0x8(%ebp),%eax
   172e0:	8b 80 98 00 00 00    	mov    0x98(%eax),%eax
   172e6:	85 c0                	test   %eax,%eax
   172e8:	74 15                	je     172ff <fs_unprotect+0x28>
   172ea:	8b 45 08             	mov    0x8(%ebp),%eax
   172ed:	8b 80 98 00 00 00    	mov    0x98(%eax),%eax
   172f3:	83 ec 0c             	sub    $0xc,%esp
   172f6:	50                   	push   %eax
   172f7:	e8 73 0b 00 00       	call   17e6f <mutex_unlock>
   172fc:	83 c4 10             	add    $0x10,%esp
   172ff:	90                   	nop
   17300:	c9                   	leave  
   17301:	c3                   	ret    

00017302 <path_begin_with>:
   17302:	55                   	push   %ebp
   17303:	89 e5                	mov    %esp,%ebp
   17305:	83 ec 10             	sub    $0x10,%esp
   17308:	8b 45 08             	mov    0x8(%ebp),%eax
   1730b:	89 45 fc             	mov    %eax,-0x4(%ebp)
   1730e:	8b 45 0c             	mov    0xc(%ebp),%eax
   17311:	89 45 f8             	mov    %eax,-0x8(%ebp)
   17314:	eb 08                	jmp    1731e <path_begin_with+0x1c>
   17316:	83 45 fc 01          	addl   $0x1,-0x4(%ebp)
   1731a:	83 45 f8 01          	addl   $0x1,-0x8(%ebp)
   1731e:	8b 45 fc             	mov    -0x4(%ebp),%eax
   17321:	0f b6 00             	movzbl (%eax),%eax
   17324:	84 c0                	test   %al,%al
   17326:	74 1a                	je     17342 <path_begin_with+0x40>
   17328:	8b 45 f8             	mov    -0x8(%ebp),%eax
   1732b:	0f b6 00             	movzbl (%eax),%eax
   1732e:	84 c0                	test   %al,%al
   17330:	74 10                	je     17342 <path_begin_with+0x40>
   17332:	8b 45 fc             	mov    -0x4(%ebp),%eax
   17335:	0f b6 10             	movzbl (%eax),%edx
   17338:	8b 45 f8             	mov    -0x8(%ebp),%eax
   1733b:	0f b6 00             	movzbl (%eax),%eax
   1733e:	38 c2                	cmp    %al,%dl
   17340:	74 d4                	je     17316 <path_begin_with+0x14>
   17342:	8b 45 f8             	mov    -0x8(%ebp),%eax
   17345:	0f b6 00             	movzbl (%eax),%eax
   17348:	84 c0                	test   %al,%al
   1734a:	0f 94 c0             	sete   %al
   1734d:	0f b6 c0             	movzbl %al,%eax
   17350:	c9                   	leave  
   17351:	c3                   	ret    

00017352 <sys_open>:
   17352:	55                   	push   %ebp
   17353:	89 e5                	mov    %esp,%ebp
   17355:	83 ec 28             	sub    $0x28,%esp
   17358:	e8 8d fb ff ff       	call   16eea <file_alloc>
   1735d:	89 45 ec             	mov    %eax,-0x14(%ebp)
   17360:	83 7d ec 00          	cmpl   $0x0,-0x14(%ebp)
   17364:	75 0a                	jne    17370 <sys_open+0x1e>
   17366:	b8 ff ff ff ff       	mov    $0xffffffff,%eax
   1736b:	e9 3b 01 00 00       	jmp    174ab <sys_open+0x159>
   17370:	83 ec 0c             	sub    $0xc,%esp
   17373:	ff 75 ec             	pushl  -0x14(%ebp)
   17376:	e8 a4 9e ff ff       	call   1121f <task_alloc_fd>
   1737b:	83 c4 10             	add    $0x10,%esp
   1737e:	89 45 e8             	mov    %eax,-0x18(%ebp)
   17381:	83 7d e8 00          	cmpl   $0x0,-0x18(%ebp)
   17385:	0f 88 f8 00 00 00    	js     17483 <sys_open+0x131>
   1738b:	c7 45 f4 00 00 00 00 	movl   $0x0,-0xc(%ebp)
   17392:	83 ec 0c             	sub    $0xc,%esp
   17395:	68 c0 df 05 00       	push   $0x5dfc0
   1739a:	e8 b1 fc ff ff       	call   17050 <list_first>
   1739f:	83 c4 10             	add    $0x10,%esp
   173a2:	89 45 f0             	mov    %eax,-0x10(%ebp)
   173a5:	eb 38                	jmp    173df <sys_open+0x8d>
   173a7:	8b 45 f0             	mov    -0x10(%ebp),%eax
   173aa:	89 45 e4             	mov    %eax,-0x1c(%ebp)
   173ad:	8b 45 e4             	mov    -0x1c(%ebp),%eax
   173b0:	83 c0 08             	add    $0x8,%eax
   173b3:	83 ec 08             	sub    $0x8,%esp
   173b6:	50                   	push   %eax
   173b7:	ff 75 08             	pushl  0x8(%ebp)
   173ba:	e8 43 ff ff ff       	call   17302 <path_begin_with>
   173bf:	83 c4 10             	add    $0x10,%esp
   173c2:	85 c0                	test   %eax,%eax
   173c4:	74 08                	je     173ce <sys_open+0x7c>
   173c6:	8b 45 e4             	mov    -0x1c(%ebp),%eax
   173c9:	89 45 f4             	mov    %eax,-0xc(%ebp)
   173cc:	eb 17                	jmp    173e5 <sys_open+0x93>
   173ce:	83 ec 0c             	sub    $0xc,%esp
   173d1:	ff 75 f0             	pushl  -0x10(%ebp)
   173d4:	e8 6c fc ff ff       	call   17045 <list_node_next>
   173d9:	83 c4 10             	add    $0x10,%esp
   173dc:	89 45 f0             	mov    %eax,-0x10(%ebp)
   173df:	83 7d f0 00          	cmpl   $0x0,-0x10(%ebp)
   173e3:	75 c2                	jne    173a7 <sys_open+0x55>
   173e5:	83 7d f4 00          	cmpl   $0x0,-0xc(%ebp)
   173e9:	74 13                	je     173fe <sys_open+0xac>
   173eb:	83 ec 0c             	sub    $0xc,%esp
   173ee:	ff 75 08             	pushl  0x8(%ebp)
   173f1:	e8 5e fe ff ff       	call   17254 <path_next_child>
   173f6:	83 c4 10             	add    $0x10,%esp
   173f9:	89 45 08             	mov    %eax,0x8(%ebp)
   173fc:	eb 08                	jmp    17406 <sys_open+0xb4>
   173fe:	a1 ac e8 05 00       	mov    0x5e8ac,%eax
   17403:	89 45 f4             	mov    %eax,-0xc(%ebp)
   17406:	8b 45 ec             	mov    -0x14(%ebp),%eax
   17409:	8b 55 0c             	mov    0xc(%ebp),%edx
   1740c:	89 50 34             	mov    %edx,0x34(%eax)
   1740f:	8b 45 ec             	mov    -0x14(%ebp),%eax
   17412:	8b 55 f4             	mov    -0xc(%ebp),%edx
   17415:	89 50 44             	mov    %edx,0x44(%eax)
   17418:	83 ec 0c             	sub    $0xc,%esp
   1741b:	ff 75 f4             	pushl  -0xc(%ebp)
   1741e:	e8 89 fe ff ff       	call   172ac <fs_protect>
   17423:	83 c4 10             	add    $0x10,%esp
   17426:	8b 45 ec             	mov    -0x14(%ebp),%eax
   17429:	83 ec 04             	sub    $0x4,%esp
   1742c:	6a 20                	push   $0x20
   1742e:	ff 75 08             	pushl  0x8(%ebp)
   17431:	50                   	push   %eax
   17432:	e8 b9 0e 00 00       	call   182f0 <kernel_strncpy>
   17437:	83 c4 10             	add    $0x10,%esp
   1743a:	8b 45 f4             	mov    -0xc(%ebp),%eax
   1743d:	8b 80 8c 00 00 00    	mov    0x8c(%eax),%eax
   17443:	8b 40 08             	mov    0x8(%eax),%eax
   17446:	83 ec 04             	sub    $0x4,%esp
   17449:	ff 75 ec             	pushl  -0x14(%ebp)
   1744c:	ff 75 08             	pushl  0x8(%ebp)
   1744f:	ff 75 f4             	pushl  -0xc(%ebp)
   17452:	ff d0                	call   *%eax
   17454:	83 c4 10             	add    $0x10,%esp
   17457:	89 45 e0             	mov    %eax,-0x20(%ebp)
   1745a:	83 7d e0 00          	cmpl   $0x0,-0x20(%ebp)
   1745e:	79 10                	jns    17470 <sys_open+0x11e>
   17460:	83 ec 0c             	sub    $0xc,%esp
   17463:	ff 75 f4             	pushl  -0xc(%ebp)
   17466:	e8 6c fe ff ff       	call   172d7 <fs_unprotect>
   1746b:	83 c4 10             	add    $0x10,%esp
   1746e:	eb 14                	jmp    17484 <sys_open+0x132>
   17470:	83 ec 0c             	sub    $0xc,%esp
   17473:	ff 75 f4             	pushl  -0xc(%ebp)
   17476:	e8 5c fe ff ff       	call   172d7 <fs_unprotect>
   1747b:	83 c4 10             	add    $0x10,%esp
   1747e:	8b 45 e8             	mov    -0x18(%ebp),%eax
   17481:	eb 28                	jmp    174ab <sys_open+0x159>
   17483:	90                   	nop
   17484:	83 ec 0c             	sub    $0xc,%esp
   17487:	ff 75 ec             	pushl  -0x14(%ebp)
   1748a:	e8 3c fb ff ff       	call   16fcb <file_free>
   1748f:	83 c4 10             	add    $0x10,%esp
   17492:	83 7d e8 00          	cmpl   $0x0,-0x18(%ebp)
   17496:	78 0e                	js     174a6 <sys_open+0x154>
   17498:	83 ec 0c             	sub    $0xc,%esp
   1749b:	ff 75 e8             	pushl  -0x18(%ebp)
   1749e:	e8 01 9e ff ff       	call   112a4 <task_remove_fd>
   174a3:	83 c4 10             	add    $0x10,%esp
   174a6:	b8 ff ff ff ff       	mov    $0xffffffff,%eax
   174ab:	c9                   	leave  
   174ac:	c3                   	ret    

000174ad <sys_read>:
   174ad:	55                   	push   %ebp
   174ae:	89 e5                	mov    %esp,%ebp
   174b0:	83 ec 18             	sub    $0x18,%esp
   174b3:	83 ec 0c             	sub    $0xc,%esp
   174b6:	ff 75 08             	pushl  0x8(%ebp)
   174b9:	e8 b0 05 00 00       	call   17a6e <is_bad_fd>
   174be:	83 c4 10             	add    $0x10,%esp
   174c1:	85 c0                	test   %eax,%eax
   174c3:	75 0c                	jne    174d1 <sys_read+0x24>
   174c5:	83 7d 0c 00          	cmpl   $0x0,0xc(%ebp)
   174c9:	74 06                	je     174d1 <sys_read+0x24>
   174cb:	83 7d 10 00          	cmpl   $0x0,0x10(%ebp)
   174cf:	75 07                	jne    174d8 <sys_read+0x2b>
   174d1:	b8 00 00 00 00       	mov    $0x0,%eax
   174d6:	eb 78                	jmp    17550 <sys_read+0xa3>
   174d8:	83 ec 0c             	sub    $0xc,%esp
   174db:	ff 75 08             	pushl  0x8(%ebp)
   174de:	e8 8f 9d ff ff       	call   11272 <task_file>
   174e3:	83 c4 10             	add    $0x10,%esp
   174e6:	89 45 f4             	mov    %eax,-0xc(%ebp)
   174e9:	83 7d f4 00          	cmpl   $0x0,-0xc(%ebp)
   174ed:	75 07                	jne    174f6 <sys_read+0x49>
   174ef:	b8 ff ff ff ff       	mov    $0xffffffff,%eax
   174f4:	eb 5a                	jmp    17550 <sys_read+0xa3>
   174f6:	8b 45 f4             	mov    -0xc(%ebp),%eax
   174f9:	8b 40 34             	mov    0x34(%eax),%eax
   174fc:	83 f8 01             	cmp    $0x1,%eax
   174ff:	75 07                	jne    17508 <sys_read+0x5b>
   17501:	b8 ff ff ff ff       	mov    $0xffffffff,%eax
   17506:	eb 48                	jmp    17550 <sys_read+0xa3>
   17508:	8b 45 f4             	mov    -0xc(%ebp),%eax
   1750b:	8b 40 44             	mov    0x44(%eax),%eax
   1750e:	89 45 f0             	mov    %eax,-0x10(%ebp)
   17511:	83 ec 0c             	sub    $0xc,%esp
   17514:	ff 75 f0             	pushl  -0x10(%ebp)
   17517:	e8 90 fd ff ff       	call   172ac <fs_protect>
   1751c:	83 c4 10             	add    $0x10,%esp
   1751f:	8b 45 f0             	mov    -0x10(%ebp),%eax
   17522:	8b 80 8c 00 00 00    	mov    0x8c(%eax),%eax
   17528:	8b 40 0c             	mov    0xc(%eax),%eax
   1752b:	83 ec 04             	sub    $0x4,%esp
   1752e:	ff 75 f4             	pushl  -0xc(%ebp)
   17531:	ff 75 10             	pushl  0x10(%ebp)
   17534:	ff 75 0c             	pushl  0xc(%ebp)
   17537:	ff d0                	call   *%eax
   17539:	83 c4 10             	add    $0x10,%esp
   1753c:	89 45 ec             	mov    %eax,-0x14(%ebp)
   1753f:	83 ec 0c             	sub    $0xc,%esp
   17542:	ff 75 f0             	pushl  -0x10(%ebp)
   17545:	e8 8d fd ff ff       	call   172d7 <fs_unprotect>
   1754a:	83 c4 10             	add    $0x10,%esp
   1754d:	8b 45 ec             	mov    -0x14(%ebp),%eax
   17550:	c9                   	leave  
   17551:	c3                   	ret    

00017552 <sys_write>:
   17552:	55                   	push   %ebp
   17553:	89 e5                	mov    %esp,%ebp
   17555:	83 ec 18             	sub    $0x18,%esp
   17558:	83 ec 0c             	sub    $0xc,%esp
   1755b:	ff 75 08             	pushl  0x8(%ebp)
   1755e:	e8 0b 05 00 00       	call   17a6e <is_bad_fd>
   17563:	83 c4 10             	add    $0x10,%esp
   17566:	85 c0                	test   %eax,%eax
   17568:	75 0c                	jne    17576 <sys_write+0x24>
   1756a:	83 7d 0c 00          	cmpl   $0x0,0xc(%ebp)
   1756e:	74 06                	je     17576 <sys_write+0x24>
   17570:	83 7d 10 00          	cmpl   $0x0,0x10(%ebp)
   17574:	75 07                	jne    1757d <sys_write+0x2b>
   17576:	b8 00 00 00 00       	mov    $0x0,%eax
   1757b:	eb 77                	jmp    175f4 <sys_write+0xa2>
   1757d:	83 ec 0c             	sub    $0xc,%esp
   17580:	ff 75 08             	pushl  0x8(%ebp)
   17583:	e8 ea 9c ff ff       	call   11272 <task_file>
   17588:	83 c4 10             	add    $0x10,%esp
   1758b:	89 45 f4             	mov    %eax,-0xc(%ebp)
   1758e:	83 7d f4 00          	cmpl   $0x0,-0xc(%ebp)
   17592:	75 07                	jne    1759b <sys_write+0x49>
   17594:	b8 ff ff ff ff       	mov    $0xffffffff,%eax
   17599:	eb 59                	jmp    175f4 <sys_write+0xa2>
   1759b:	8b 45 f4             	mov    -0xc(%ebp),%eax
   1759e:	8b 40 34             	mov    0x34(%eax),%eax
   175a1:	85 c0                	test   %eax,%eax
   175a3:	75 07                	jne    175ac <sys_write+0x5a>
   175a5:	b8 ff ff ff ff       	mov    $0xffffffff,%eax
   175aa:	eb 48                	jmp    175f4 <sys_write+0xa2>
   175ac:	8b 45 f4             	mov    -0xc(%ebp),%eax
   175af:	8b 40 44             	mov    0x44(%eax),%eax
   175b2:	89 45 f0             	mov    %eax,-0x10(%ebp)
   175b5:	83 ec 0c             	sub    $0xc,%esp
   175b8:	ff 75 f0             	pushl  -0x10(%ebp)
   175bb:	e8 ec fc ff ff       	call   172ac <fs_protect>
   175c0:	83 c4 10             	add    $0x10,%esp
   175c3:	8b 45 f0             	mov    -0x10(%ebp),%eax
   175c6:	8b 80 8c 00 00 00    	mov    0x8c(%eax),%eax
   175cc:	8b 40 10             	mov    0x10(%eax),%eax
   175cf:	83 ec 04             	sub    $0x4,%esp
   175d2:	ff 75 f4             	pushl  -0xc(%ebp)
   175d5:	ff 75 10             	pushl  0x10(%ebp)
   175d8:	ff 75 0c             	pushl  0xc(%ebp)
   175db:	ff d0                	call   *%eax
   175dd:	83 c4 10             	add    $0x10,%esp
   175e0:	89 45 ec             	mov    %eax,-0x14(%ebp)
   175e3:	83 ec 0c             	sub    $0xc,%esp
   175e6:	ff 75 f0             	pushl  -0x10(%ebp)
   175e9:	e8 e9 fc ff ff       	call   172d7 <fs_unprotect>
   175ee:	83 c4 10             	add    $0x10,%esp
   175f1:	8b 45 ec             	mov    -0x14(%ebp),%eax
   175f4:	c9                   	leave  
   175f5:	c3                   	ret    

000175f6 <sys_lseek>:
   175f6:	55                   	push   %ebp
   175f7:	89 e5                	mov    %esp,%ebp
   175f9:	83 ec 18             	sub    $0x18,%esp
   175fc:	83 ec 0c             	sub    $0xc,%esp
   175ff:	ff 75 08             	pushl  0x8(%ebp)
   17602:	e8 67 04 00 00       	call   17a6e <is_bad_fd>
   17607:	83 c4 10             	add    $0x10,%esp
   1760a:	85 c0                	test   %eax,%eax
   1760c:	74 07                	je     17615 <sys_lseek+0x1f>
   1760e:	b8 00 00 00 00       	mov    $0x0,%eax
   17613:	eb 67                	jmp    1767c <sys_lseek+0x86>
   17615:	83 ec 0c             	sub    $0xc,%esp
   17618:	ff 75 08             	pushl  0x8(%ebp)
   1761b:	e8 52 9c ff ff       	call   11272 <task_file>
   17620:	83 c4 10             	add    $0x10,%esp
   17623:	89 45 f4             	mov    %eax,-0xc(%ebp)
   17626:	83 7d f4 00          	cmpl   $0x0,-0xc(%ebp)
   1762a:	75 07                	jne    17633 <sys_lseek+0x3d>
   1762c:	b8 ff ff ff ff       	mov    $0xffffffff,%eax
   17631:	eb 49                	jmp    1767c <sys_lseek+0x86>
   17633:	8b 45 f4             	mov    -0xc(%ebp),%eax
   17636:	8b 40 44             	mov    0x44(%eax),%eax
   17639:	89 45 f0             	mov    %eax,-0x10(%ebp)
   1763c:	83 ec 0c             	sub    $0xc,%esp
   1763f:	ff 75 f0             	pushl  -0x10(%ebp)
   17642:	e8 65 fc ff ff       	call   172ac <fs_protect>
   17647:	83 c4 10             	add    $0x10,%esp
   1764a:	8b 45 f0             	mov    -0x10(%ebp),%eax
   1764d:	8b 80 8c 00 00 00    	mov    0x8c(%eax),%eax
   17653:	8b 40 18             	mov    0x18(%eax),%eax
   17656:	8b 55 0c             	mov    0xc(%ebp),%edx
   17659:	83 ec 04             	sub    $0x4,%esp
   1765c:	ff 75 10             	pushl  0x10(%ebp)
   1765f:	52                   	push   %edx
   17660:	ff 75 f4             	pushl  -0xc(%ebp)
   17663:	ff d0                	call   *%eax
   17665:	83 c4 10             	add    $0x10,%esp
   17668:	89 45 ec             	mov    %eax,-0x14(%ebp)
   1766b:	83 ec 0c             	sub    $0xc,%esp
   1766e:	ff 75 f0             	pushl  -0x10(%ebp)
   17671:	e8 61 fc ff ff       	call   172d7 <fs_unprotect>
   17676:	83 c4 10             	add    $0x10,%esp
   17679:	8b 45 ec             	mov    -0x14(%ebp),%eax
   1767c:	c9                   	leave  
   1767d:	c3                   	ret    

0001767e <sys_close>:
   1767e:	55                   	push   %ebp
   1767f:	89 e5                	mov    %esp,%ebp
   17681:	83 ec 18             	sub    $0x18,%esp
   17684:	83 ec 0c             	sub    $0xc,%esp
   17687:	ff 75 08             	pushl  0x8(%ebp)
   1768a:	e8 df 03 00 00       	call   17a6e <is_bad_fd>
   1768f:	83 c4 10             	add    $0x10,%esp
   17692:	85 c0                	test   %eax,%eax
   17694:	74 0a                	je     176a0 <sys_close+0x22>
   17696:	b8 00 00 00 00       	mov    $0x0,%eax
   1769b:	e9 8f 00 00 00       	jmp    1772f <sys_close+0xb1>
   176a0:	83 ec 0c             	sub    $0xc,%esp
   176a3:	ff 75 08             	pushl  0x8(%ebp)
   176a6:	e8 c7 9b ff ff       	call   11272 <task_file>
   176ab:	83 c4 10             	add    $0x10,%esp
   176ae:	89 45 f4             	mov    %eax,-0xc(%ebp)
   176b1:	83 7d f4 00          	cmpl   $0x0,-0xc(%ebp)
   176b5:	75 07                	jne    176be <sys_close+0x40>
   176b7:	b8 ff ff ff ff       	mov    $0xffffffff,%eax
   176bc:	eb 71                	jmp    1772f <sys_close+0xb1>
   176be:	8b 45 f4             	mov    -0xc(%ebp),%eax
   176c1:	8b 40 28             	mov    0x28(%eax),%eax
   176c4:	8d 48 ff             	lea    -0x1(%eax),%ecx
   176c7:	8b 55 f4             	mov    -0xc(%ebp),%edx
   176ca:	89 4a 28             	mov    %ecx,0x28(%edx)
   176cd:	83 f8 01             	cmp    $0x1,%eax
   176d0:	75 4a                	jne    1771c <sys_close+0x9e>
   176d2:	8b 45 f4             	mov    -0xc(%ebp),%eax
   176d5:	8b 40 44             	mov    0x44(%eax),%eax
   176d8:	89 45 f0             	mov    %eax,-0x10(%ebp)
   176db:	83 ec 0c             	sub    $0xc,%esp
   176de:	ff 75 f0             	pushl  -0x10(%ebp)
   176e1:	e8 c6 fb ff ff       	call   172ac <fs_protect>
   176e6:	83 c4 10             	add    $0x10,%esp
   176e9:	8b 45 f0             	mov    -0x10(%ebp),%eax
   176ec:	8b 80 8c 00 00 00    	mov    0x8c(%eax),%eax
   176f2:	8b 40 14             	mov    0x14(%eax),%eax
   176f5:	83 ec 0c             	sub    $0xc,%esp
   176f8:	ff 75 f4             	pushl  -0xc(%ebp)
   176fb:	ff d0                	call   *%eax
   176fd:	83 c4 10             	add    $0x10,%esp
   17700:	83 ec 0c             	sub    $0xc,%esp
   17703:	ff 75 f0             	pushl  -0x10(%ebp)
   17706:	e8 cc fb ff ff       	call   172d7 <fs_unprotect>
   1770b:	83 c4 10             	add    $0x10,%esp
   1770e:	83 ec 0c             	sub    $0xc,%esp
   17711:	ff 75 f4             	pushl  -0xc(%ebp)
   17714:	e8 b2 f8 ff ff       	call   16fcb <file_free>
   17719:	83 c4 10             	add    $0x10,%esp
   1771c:	83 ec 0c             	sub    $0xc,%esp
   1771f:	ff 75 08             	pushl  0x8(%ebp)
   17722:	e8 7d 9b ff ff       	call   112a4 <task_remove_fd>
   17727:	83 c4 10             	add    $0x10,%esp
   1772a:	b8 00 00 00 00       	mov    $0x0,%eax
   1772f:	c9                   	leave  
   17730:	c3                   	ret    

00017731 <sys_isatty>:
   17731:	55                   	push   %ebp
   17732:	89 e5                	mov    %esp,%ebp
   17734:	83 ec 18             	sub    $0x18,%esp
   17737:	83 ec 0c             	sub    $0xc,%esp
   1773a:	ff 75 08             	pushl  0x8(%ebp)
   1773d:	e8 2c 03 00 00       	call   17a6e <is_bad_fd>
   17742:	83 c4 10             	add    $0x10,%esp
   17745:	85 c0                	test   %eax,%eax
   17747:	74 07                	je     17750 <sys_isatty+0x1f>
   17749:	b8 00 00 00 00       	mov    $0x0,%eax
   1774e:	eb 2d                	jmp    1777d <sys_isatty+0x4c>
   17750:	83 ec 0c             	sub    $0xc,%esp
   17753:	ff 75 08             	pushl  0x8(%ebp)
   17756:	e8 17 9b ff ff       	call   11272 <task_file>
   1775b:	83 c4 10             	add    $0x10,%esp
   1775e:	89 45 f4             	mov    %eax,-0xc(%ebp)
   17761:	83 7d f4 00          	cmpl   $0x0,-0xc(%ebp)
   17765:	75 07                	jne    1776e <sys_isatty+0x3d>
   17767:	b8 ff ff ff ff       	mov    $0xffffffff,%eax
   1776c:	eb 0f                	jmp    1777d <sys_isatty+0x4c>
   1776e:	8b 45 f4             	mov    -0xc(%ebp),%eax
   17771:	8b 40 20             	mov    0x20(%eax),%eax
   17774:	83 f8 01             	cmp    $0x1,%eax
   17777:	0f 94 c0             	sete   %al
   1777a:	0f b6 c0             	movzbl %al,%eax
   1777d:	c9                   	leave  
   1777e:	c3                   	ret    

0001777f <sys_fstat>:
   1777f:	55                   	push   %ebp
   17780:	89 e5                	mov    %esp,%ebp
   17782:	83 ec 18             	sub    $0x18,%esp
   17785:	83 ec 0c             	sub    $0xc,%esp
   17788:	ff 75 08             	pushl  0x8(%ebp)
   1778b:	e8 de 02 00 00       	call   17a6e <is_bad_fd>
   17790:	83 c4 10             	add    $0x10,%esp
   17793:	85 c0                	test   %eax,%eax
   17795:	74 07                	je     1779e <sys_fstat+0x1f>
   17797:	b8 00 00 00 00       	mov    $0x0,%eax
   1779c:	eb 75                	jmp    17813 <sys_fstat+0x94>
   1779e:	83 ec 0c             	sub    $0xc,%esp
   177a1:	ff 75 08             	pushl  0x8(%ebp)
   177a4:	e8 c9 9a ff ff       	call   11272 <task_file>
   177a9:	83 c4 10             	add    $0x10,%esp
   177ac:	89 45 f4             	mov    %eax,-0xc(%ebp)
   177af:	83 7d f4 00          	cmpl   $0x0,-0xc(%ebp)
   177b3:	75 07                	jne    177bc <sys_fstat+0x3d>
   177b5:	b8 ff ff ff ff       	mov    $0xffffffff,%eax
   177ba:	eb 57                	jmp    17813 <sys_fstat+0x94>
   177bc:	8b 45 f4             	mov    -0xc(%ebp),%eax
   177bf:	8b 40 44             	mov    0x44(%eax),%eax
   177c2:	89 45 f0             	mov    %eax,-0x10(%ebp)
   177c5:	83 ec 04             	sub    $0x4,%esp
   177c8:	6a 48                	push   $0x48
   177ca:	6a 00                	push   $0x0
   177cc:	ff 75 0c             	pushl  0xc(%ebp)
   177cf:	e8 8a 0c 00 00       	call   1845e <kernel_memset>
   177d4:	83 c4 10             	add    $0x10,%esp
   177d7:	83 ec 0c             	sub    $0xc,%esp
   177da:	ff 75 f0             	pushl  -0x10(%ebp)
   177dd:	e8 ca fa ff ff       	call   172ac <fs_protect>
   177e2:	83 c4 10             	add    $0x10,%esp
   177e5:	8b 45 f0             	mov    -0x10(%ebp),%eax
   177e8:	8b 80 8c 00 00 00    	mov    0x8c(%eax),%eax
   177ee:	8b 40 1c             	mov    0x1c(%eax),%eax
   177f1:	83 ec 08             	sub    $0x8,%esp
   177f4:	ff 75 0c             	pushl  0xc(%ebp)
   177f7:	ff 75 f4             	pushl  -0xc(%ebp)
   177fa:	ff d0                	call   *%eax
   177fc:	83 c4 10             	add    $0x10,%esp
   177ff:	89 45 ec             	mov    %eax,-0x14(%ebp)
   17802:	83 ec 0c             	sub    $0xc,%esp
   17805:	ff 75 f0             	pushl  -0x10(%ebp)
   17808:	e8 ca fa ff ff       	call   172d7 <fs_unprotect>
   1780d:	83 c4 10             	add    $0x10,%esp
   17810:	8b 45 ec             	mov    -0x14(%ebp),%eax
   17813:	c9                   	leave  
   17814:	c3                   	ret    

00017815 <mount_list_init>:
   17815:	55                   	push   %ebp
   17816:	89 e5                	mov    %esp,%ebp
   17818:	83 ec 18             	sub    $0x18,%esp
   1781b:	83 ec 0c             	sub    $0xc,%esp
   1781e:	68 a0 e8 05 00       	push   $0x5e8a0
   17823:	e8 63 10 00 00       	call   1888b <list_init>
   17828:	83 c4 10             	add    $0x10,%esp
   1782b:	c7 45 f4 00 00 00 00 	movl   $0x0,-0xc(%ebp)
   17832:	eb 23                	jmp    17857 <mount_list_init+0x42>
   17834:	8b 45 f4             	mov    -0xc(%ebp),%eax
   17837:	69 c0 e0 00 00 00    	imul   $0xe0,%eax,%eax
   1783d:	05 e0 df 05 00       	add    $0x5dfe0,%eax
   17842:	83 ec 08             	sub    $0x8,%esp
   17845:	50                   	push   %eax
   17846:	68 a0 e8 05 00       	push   $0x5e8a0
   1784b:	e8 60 10 00 00       	call   188b0 <list_insert_first>
   17850:	83 c4 10             	add    $0x10,%esp
   17853:	83 45 f4 01          	addl   $0x1,-0xc(%ebp)
   17857:	83 7d f4 09          	cmpl   $0x9,-0xc(%ebp)
   1785b:	7e d7                	jle    17834 <mount_list_init+0x1f>
   1785d:	83 ec 0c             	sub    $0xc,%esp
   17860:	68 c0 df 05 00       	push   $0x5dfc0
   17865:	e8 21 10 00 00       	call   1888b <list_init>
   1786a:	83 c4 10             	add    $0x10,%esp
   1786d:	90                   	nop
   1786e:	c9                   	leave  
   1786f:	c3                   	ret    

00017870 <get_fs_op>:
   17870:	55                   	push   %ebp
   17871:	89 e5                	mov    %esp,%ebp
   17873:	8b 45 08             	mov    0x8(%ebp),%eax
   17876:	85 c0                	test   %eax,%eax
   17878:	74 07                	je     17881 <get_fs_op+0x11>
   1787a:	83 f8 01             	cmp    $0x1,%eax
   1787d:	74 09                	je     17888 <get_fs_op+0x18>
   1787f:	eb 0e                	jmp    1788f <get_fs_op+0x1f>
   17881:	b8 40 a1 01 00       	mov    $0x1a140,%eax
   17886:	eb 0c                	jmp    17894 <get_fs_op+0x24>
   17888:	b8 00 a1 01 00       	mov    $0x1a100,%eax
   1788d:	eb 05                	jmp    17894 <get_fs_op+0x24>
   1788f:	b8 00 00 00 00       	mov    $0x0,%eax
   17894:	5d                   	pop    %ebp
   17895:	c3                   	ret    

00017896 <mount>:
   17896:	55                   	push   %ebp
   17897:	89 e5                	mov    %esp,%ebp
   17899:	83 ec 28             	sub    $0x28,%esp
   1789c:	c7 45 f4 00 00 00 00 	movl   $0x0,-0xc(%ebp)
   178a3:	ff 75 14             	pushl  0x14(%ebp)
   178a6:	ff 75 10             	pushl  0x10(%ebp)
   178a9:	ff 75 0c             	pushl  0xc(%ebp)
   178ac:	68 28 98 01 00       	push   $0x19828
   178b1:	e8 e7 11 00 00       	call   18a9d <log_printf>
   178b6:	83 c4 10             	add    $0x10,%esp
   178b9:	83 ec 0c             	sub    $0xc,%esp
   178bc:	68 c0 df 05 00       	push   $0x5dfc0
   178c1:	e8 8a f7 ff ff       	call   17050 <list_first>
   178c6:	83 c4 10             	add    $0x10,%esp
   178c9:	89 45 f0             	mov    %eax,-0x10(%ebp)
   178cc:	eb 4d                	jmp    1791b <mount+0x85>
   178ce:	8b 45 f0             	mov    -0x10(%ebp),%eax
   178d1:	89 45 e4             	mov    %eax,-0x1c(%ebp)
   178d4:	8b 45 e4             	mov    -0x1c(%ebp),%eax
   178d7:	83 c0 08             	add    $0x8,%eax
   178da:	83 ec 04             	sub    $0x4,%esp
   178dd:	68 80 00 00 00       	push   $0x80
   178e2:	ff 75 0c             	pushl  0xc(%ebp)
   178e5:	50                   	push   %eax
   178e6:	e8 6f 0a 00 00       	call   1835a <kernel_strncmp>
   178eb:	83 c4 10             	add    $0x10,%esp
   178ee:	85 c0                	test   %eax,%eax
   178f0:	75 18                	jne    1790a <mount+0x74>
   178f2:	83 ec 08             	sub    $0x8,%esp
   178f5:	ff 75 0c             	pushl  0xc(%ebp)
   178f8:	68 38 98 01 00       	push   $0x19838
   178fd:	e8 9b 11 00 00       	call   18a9d <log_printf>
   17902:	83 c4 10             	add    $0x10,%esp
   17905:	e9 fa 00 00 00       	jmp    17a04 <mount+0x16e>
   1790a:	83 ec 0c             	sub    $0xc,%esp
   1790d:	ff 75 f0             	pushl  -0x10(%ebp)
   17910:	e8 30 f7 ff ff       	call   17045 <list_node_next>
   17915:	83 c4 10             	add    $0x10,%esp
   17918:	89 45 f0             	mov    %eax,-0x10(%ebp)
   1791b:	83 7d f0 00          	cmpl   $0x0,-0x10(%ebp)
   1791f:	75 ad                	jne    178ce <mount+0x38>
   17921:	83 ec 0c             	sub    $0xc,%esp
   17924:	68 a0 e8 05 00       	push   $0x5e8a0
   17929:	e8 45 10 00 00       	call   18973 <list_remove_first>
   1792e:	83 c4 10             	add    $0x10,%esp
   17931:	89 45 ec             	mov    %eax,-0x14(%ebp)
   17934:	83 7d ec 00          	cmpl   $0x0,-0x14(%ebp)
   17938:	75 15                	jne    1794f <mount+0xb9>
   1793a:	83 ec 0c             	sub    $0xc,%esp
   1793d:	68 58 98 01 00       	push   $0x19858
   17942:	e8 56 11 00 00       	call   18a9d <log_printf>
   17947:	83 c4 10             	add    $0x10,%esp
   1794a:	e9 b5 00 00 00       	jmp    17a04 <mount+0x16e>
   1794f:	8b 45 ec             	mov    -0x14(%ebp),%eax
   17952:	89 45 f4             	mov    %eax,-0xc(%ebp)
   17955:	83 ec 08             	sub    $0x8,%esp
   17958:	ff 75 10             	pushl  0x10(%ebp)
   1795b:	ff 75 08             	pushl  0x8(%ebp)
   1795e:	e8 0d ff ff ff       	call   17870 <get_fs_op>
   17963:	83 c4 10             	add    $0x10,%esp
   17966:	89 45 e8             	mov    %eax,-0x18(%ebp)
   17969:	83 7d e8 00          	cmpl   $0x0,-0x18(%ebp)
   1796d:	75 15                	jne    17984 <mount+0xee>
   1796f:	83 ec 0c             	sub    $0xc,%esp
   17972:	68 64 98 01 00       	push   $0x19864
   17977:	e8 21 11 00 00       	call   18a9d <log_printf>
   1797c:	83 c4 10             	add    $0x10,%esp
   1797f:	e9 80 00 00 00       	jmp    17a04 <mount+0x16e>
   17984:	83 ec 04             	sub    $0x4,%esp
   17987:	68 e0 00 00 00       	push   $0xe0
   1798c:	6a 00                	push   $0x0
   1798e:	ff 75 f4             	pushl  -0xc(%ebp)
   17991:	e8 c8 0a 00 00       	call   1845e <kernel_memset>
   17996:	83 c4 10             	add    $0x10,%esp
   17999:	8b 45 f4             	mov    -0xc(%ebp),%eax
   1799c:	83 c0 08             	add    $0x8,%eax
   1799f:	83 ec 04             	sub    $0x4,%esp
   179a2:	68 80 00 00 00       	push   $0x80
   179a7:	ff 75 0c             	pushl  0xc(%ebp)
   179aa:	50                   	push   %eax
   179ab:	e8 40 09 00 00       	call   182f0 <kernel_strncpy>
   179b0:	83 c4 10             	add    $0x10,%esp
   179b3:	8b 45 f4             	mov    -0xc(%ebp),%eax
   179b6:	8b 55 e8             	mov    -0x18(%ebp),%edx
   179b9:	89 90 8c 00 00 00    	mov    %edx,0x8c(%eax)
   179bf:	8b 45 e8             	mov    -0x18(%ebp),%eax
   179c2:	8b 00                	mov    (%eax),%eax
   179c4:	83 ec 04             	sub    $0x4,%esp
   179c7:	ff 75 14             	pushl  0x14(%ebp)
   179ca:	ff 75 10             	pushl  0x10(%ebp)
   179cd:	ff 75 f4             	pushl  -0xc(%ebp)
   179d0:	ff d0                	call   *%eax
   179d2:	83 c4 10             	add    $0x10,%esp
   179d5:	85 c0                	test   %eax,%eax
   179d7:	79 12                	jns    179eb <mount+0x155>
   179d9:	83 ec 0c             	sub    $0xc,%esp
   179dc:	68 76 98 01 00       	push   $0x19876
   179e1:	e8 b7 10 00 00       	call   18a9d <log_printf>
   179e6:	83 c4 10             	add    $0x10,%esp
   179e9:	eb 19                	jmp    17a04 <mount+0x16e>
   179eb:	8b 45 f4             	mov    -0xc(%ebp),%eax
   179ee:	83 ec 08             	sub    $0x8,%esp
   179f1:	50                   	push   %eax
   179f2:	68 c0 df 05 00       	push   $0x5dfc0
   179f7:	e8 13 0f 00 00       	call   1890f <list_insert_last>
   179fc:	83 c4 10             	add    $0x10,%esp
   179ff:	8b 45 f4             	mov    -0xc(%ebp),%eax
   17a02:	eb 1f                	jmp    17a23 <mount+0x18d>
   17a04:	83 7d f4 00          	cmpl   $0x0,-0xc(%ebp)
   17a08:	74 14                	je     17a1e <mount+0x188>
   17a0a:	8b 45 f4             	mov    -0xc(%ebp),%eax
   17a0d:	83 ec 08             	sub    $0x8,%esp
   17a10:	50                   	push   %eax
   17a11:	68 a0 e8 05 00       	push   $0x5e8a0
   17a16:	e8 f4 0e 00 00       	call   1890f <list_insert_last>
   17a1b:	83 c4 10             	add    $0x10,%esp
   17a1e:	b8 00 00 00 00       	mov    $0x0,%eax
   17a23:	c9                   	leave  
   17a24:	c3                   	ret    

00017a25 <fs_init>:
   17a25:	55                   	push   %ebp
   17a26:	89 e5                	mov    %esp,%ebp
   17a28:	83 ec 18             	sub    $0x18,%esp
   17a2b:	e8 6b f5 ff ff       	call   16f9b <file_table_init>
   17a30:	e8 e0 fd ff ff       	call   17815 <mount_list_init>
   17a35:	e8 5e d0 ff ff       	call   14a98 <disk_init>
   17a3a:	6a 00                	push   $0x0
   17a3c:	6a 00                	push   $0x0
   17a3e:	68 84 98 01 00       	push   $0x19884
   17a43:	6a 01                	push   $0x1
   17a45:	e8 4c fe ff ff       	call   17896 <mount>
   17a4a:	83 c4 10             	add    $0x10,%esp
   17a4d:	89 45 f4             	mov    %eax,-0xc(%ebp)
   17a50:	68 b1 00 00 00       	push   $0xb1
   17a55:	6a 02                	push   $0x2
   17a57:	68 89 98 01 00       	push   $0x19889
   17a5c:	6a 00                	push   $0x0
   17a5e:	e8 33 fe ff ff       	call   17896 <mount>
   17a63:	83 c4 10             	add    $0x10,%esp
   17a66:	a3 ac e8 05 00       	mov    %eax,0x5e8ac
   17a6b:	90                   	nop
   17a6c:	c9                   	leave  
   17a6d:	c3                   	ret    

00017a6e <is_bad_fd>:
   17a6e:	55                   	push   %ebp
   17a6f:	89 e5                	mov    %esp,%ebp
   17a71:	83 7d 08 00          	cmpl   $0x0,0x8(%ebp)
   17a75:	78 06                	js     17a7d <is_bad_fd+0xf>
   17a77:	83 7d 08 7f          	cmpl   $0x7f,0x8(%ebp)
   17a7b:	7e 07                	jle    17a84 <is_bad_fd+0x16>
   17a7d:	b8 01 00 00 00       	mov    $0x1,%eax
   17a82:	eb 05                	jmp    17a89 <is_bad_fd+0x1b>
   17a84:	b8 00 00 00 00       	mov    $0x0,%eax
   17a89:	5d                   	pop    %ebp
   17a8a:	c3                   	ret    

00017a8b <sys_dup>:
   17a8b:	55                   	push   %ebp
   17a8c:	89 e5                	mov    %esp,%ebp
   17a8e:	83 ec 18             	sub    $0x18,%esp
   17a91:	ff 75 08             	pushl  0x8(%ebp)
   17a94:	e8 d5 ff ff ff       	call   17a6e <is_bad_fd>
   17a99:	83 c4 04             	add    $0x4,%esp
   17a9c:	85 c0                	test   %eax,%eax
   17a9e:	74 07                	je     17aa7 <sys_dup+0x1c>
   17aa0:	b8 ff ff ff ff       	mov    $0xffffffff,%eax
   17aa5:	eb 4d                	jmp    17af4 <sys_dup+0x69>
   17aa7:	83 ec 0c             	sub    $0xc,%esp
   17aaa:	ff 75 08             	pushl  0x8(%ebp)
   17aad:	e8 c0 97 ff ff       	call   11272 <task_file>
   17ab2:	83 c4 10             	add    $0x10,%esp
   17ab5:	89 45 f4             	mov    %eax,-0xc(%ebp)
   17ab8:	83 7d f4 00          	cmpl   $0x0,-0xc(%ebp)
   17abc:	75 07                	jne    17ac5 <sys_dup+0x3a>
   17abe:	b8 ff ff ff ff       	mov    $0xffffffff,%eax
   17ac3:	eb 2f                	jmp    17af4 <sys_dup+0x69>
   17ac5:	83 ec 0c             	sub    $0xc,%esp
   17ac8:	ff 75 f4             	pushl  -0xc(%ebp)
   17acb:	e8 4f 97 ff ff       	call   1121f <task_alloc_fd>
   17ad0:	83 c4 10             	add    $0x10,%esp
   17ad3:	89 45 f0             	mov    %eax,-0x10(%ebp)
   17ad6:	83 7d f0 00          	cmpl   $0x0,-0x10(%ebp)
   17ada:	78 13                	js     17aef <sys_dup+0x64>
   17adc:	83 ec 0c             	sub    $0xc,%esp
   17adf:	ff 75 f4             	pushl  -0xc(%ebp)
   17ae2:	e8 26 f5 ff ff       	call   1700d <file_inc_ref>
   17ae7:	83 c4 10             	add    $0x10,%esp
   17aea:	8b 45 f0             	mov    -0x10(%ebp),%eax
   17aed:	eb 05                	jmp    17af4 <sys_dup+0x69>
   17aef:	b8 ff ff ff ff       	mov    $0xffffffff,%eax
   17af4:	c9                   	leave  
   17af5:	c3                   	ret    

00017af6 <sys_opendir>:
   17af6:	55                   	push   %ebp
   17af7:	89 e5                	mov    %esp,%ebp
   17af9:	83 ec 18             	sub    $0x18,%esp
   17afc:	a1 ac e8 05 00       	mov    0x5e8ac,%eax
   17b01:	83 ec 0c             	sub    $0xc,%esp
   17b04:	50                   	push   %eax
   17b05:	e8 a2 f7 ff ff       	call   172ac <fs_protect>
   17b0a:	83 c4 10             	add    $0x10,%esp
   17b0d:	a1 ac e8 05 00       	mov    0x5e8ac,%eax
   17b12:	8b 80 8c 00 00 00    	mov    0x8c(%eax),%eax
   17b18:	8b 40 20             	mov    0x20(%eax),%eax
   17b1b:	8b 15 ac e8 05 00    	mov    0x5e8ac,%edx
   17b21:	83 ec 04             	sub    $0x4,%esp
   17b24:	ff 75 0c             	pushl  0xc(%ebp)
   17b27:	ff 75 08             	pushl  0x8(%ebp)
   17b2a:	52                   	push   %edx
   17b2b:	ff d0                	call   *%eax
   17b2d:	83 c4 10             	add    $0x10,%esp
   17b30:	89 45 f4             	mov    %eax,-0xc(%ebp)
   17b33:	a1 ac e8 05 00       	mov    0x5e8ac,%eax
   17b38:	83 ec 0c             	sub    $0xc,%esp
   17b3b:	50                   	push   %eax
   17b3c:	e8 96 f7 ff ff       	call   172d7 <fs_unprotect>
   17b41:	83 c4 10             	add    $0x10,%esp
   17b44:	8b 45 f4             	mov    -0xc(%ebp),%eax
   17b47:	c9                   	leave  
   17b48:	c3                   	ret    

00017b49 <sys_ioctl>:
   17b49:	55                   	push   %ebp
   17b4a:	89 e5                	mov    %esp,%ebp
   17b4c:	83 ec 18             	sub    $0x18,%esp
   17b4f:	ff 75 08             	pushl  0x8(%ebp)
   17b52:	e8 17 ff ff ff       	call   17a6e <is_bad_fd>
   17b57:	83 c4 04             	add    $0x4,%esp
   17b5a:	85 c0                	test   %eax,%eax
   17b5c:	74 07                	je     17b65 <sys_ioctl+0x1c>
   17b5e:	b8 ff ff ff ff       	mov    $0xffffffff,%eax
   17b63:	eb 66                	jmp    17bcb <sys_ioctl+0x82>
   17b65:	83 ec 0c             	sub    $0xc,%esp
   17b68:	ff 75 08             	pushl  0x8(%ebp)
   17b6b:	e8 02 97 ff ff       	call   11272 <task_file>
   17b70:	83 c4 10             	add    $0x10,%esp
   17b73:	89 45 f4             	mov    %eax,-0xc(%ebp)
   17b76:	83 7d f4 00          	cmpl   $0x0,-0xc(%ebp)
   17b7a:	75 07                	jne    17b83 <sys_ioctl+0x3a>
   17b7c:	b8 ff ff ff ff       	mov    $0xffffffff,%eax
   17b81:	eb 48                	jmp    17bcb <sys_ioctl+0x82>
   17b83:	8b 45 f4             	mov    -0xc(%ebp),%eax
   17b86:	8b 40 44             	mov    0x44(%eax),%eax
   17b89:	89 45 f0             	mov    %eax,-0x10(%ebp)
   17b8c:	83 ec 0c             	sub    $0xc,%esp
   17b8f:	ff 75 f0             	pushl  -0x10(%ebp)
   17b92:	e8 15 f7 ff ff       	call   172ac <fs_protect>
   17b97:	83 c4 10             	add    $0x10,%esp
   17b9a:	8b 45 f0             	mov    -0x10(%ebp),%eax
   17b9d:	8b 80 8c 00 00 00    	mov    0x8c(%eax),%eax
   17ba3:	8b 40 30             	mov    0x30(%eax),%eax
   17ba6:	ff 75 14             	pushl  0x14(%ebp)
   17ba9:	ff 75 10             	pushl  0x10(%ebp)
   17bac:	ff 75 0c             	pushl  0xc(%ebp)
   17baf:	ff 75 f4             	pushl  -0xc(%ebp)
   17bb2:	ff d0                	call   *%eax
   17bb4:	83 c4 10             	add    $0x10,%esp
   17bb7:	89 45 ec             	mov    %eax,-0x14(%ebp)
   17bba:	83 ec 0c             	sub    $0xc,%esp
   17bbd:	ff 75 f0             	pushl  -0x10(%ebp)
   17bc0:	e8 12 f7 ff ff       	call   172d7 <fs_unprotect>
   17bc5:	83 c4 10             	add    $0x10,%esp
   17bc8:	8b 45 ec             	mov    -0x14(%ebp),%eax
   17bcb:	c9                   	leave  
   17bcc:	c3                   	ret    

00017bcd <sys_readdir>:
   17bcd:	55                   	push   %ebp
   17bce:	89 e5                	mov    %esp,%ebp
   17bd0:	83 ec 18             	sub    $0x18,%esp
   17bd3:	a1 ac e8 05 00       	mov    0x5e8ac,%eax
   17bd8:	83 ec 0c             	sub    $0xc,%esp
   17bdb:	50                   	push   %eax
   17bdc:	e8 cb f6 ff ff       	call   172ac <fs_protect>
   17be1:	83 c4 10             	add    $0x10,%esp
   17be4:	a1 ac e8 05 00       	mov    0x5e8ac,%eax
   17be9:	8b 80 8c 00 00 00    	mov    0x8c(%eax),%eax
   17bef:	8b 40 24             	mov    0x24(%eax),%eax
   17bf2:	8b 15 ac e8 05 00    	mov    0x5e8ac,%edx
   17bf8:	83 ec 04             	sub    $0x4,%esp
   17bfb:	ff 75 0c             	pushl  0xc(%ebp)
   17bfe:	ff 75 08             	pushl  0x8(%ebp)
   17c01:	52                   	push   %edx
   17c02:	ff d0                	call   *%eax
   17c04:	83 c4 10             	add    $0x10,%esp
   17c07:	89 45 f4             	mov    %eax,-0xc(%ebp)
   17c0a:	a1 ac e8 05 00       	mov    0x5e8ac,%eax
   17c0f:	83 ec 0c             	sub    $0xc,%esp
   17c12:	50                   	push   %eax
   17c13:	e8 bf f6 ff ff       	call   172d7 <fs_unprotect>
   17c18:	83 c4 10             	add    $0x10,%esp
   17c1b:	8b 45 f4             	mov    -0xc(%ebp),%eax
   17c1e:	c9                   	leave  
   17c1f:	c3                   	ret    

00017c20 <sys_closedir>:
   17c20:	55                   	push   %ebp
   17c21:	89 e5                	mov    %esp,%ebp
   17c23:	83 ec 18             	sub    $0x18,%esp
   17c26:	a1 ac e8 05 00       	mov    0x5e8ac,%eax
   17c2b:	83 ec 0c             	sub    $0xc,%esp
   17c2e:	50                   	push   %eax
   17c2f:	e8 78 f6 ff ff       	call   172ac <fs_protect>
   17c34:	83 c4 10             	add    $0x10,%esp
   17c37:	a1 ac e8 05 00       	mov    0x5e8ac,%eax
   17c3c:	8b 80 8c 00 00 00    	mov    0x8c(%eax),%eax
   17c42:	8b 40 28             	mov    0x28(%eax),%eax
   17c45:	8b 15 ac e8 05 00    	mov    0x5e8ac,%edx
   17c4b:	83 ec 08             	sub    $0x8,%esp
   17c4e:	ff 75 08             	pushl  0x8(%ebp)
   17c51:	52                   	push   %edx
   17c52:	ff d0                	call   *%eax
   17c54:	83 c4 10             	add    $0x10,%esp
   17c57:	89 45 f4             	mov    %eax,-0xc(%ebp)
   17c5a:	a1 ac e8 05 00       	mov    0x5e8ac,%eax
   17c5f:	83 ec 0c             	sub    $0xc,%esp
   17c62:	50                   	push   %eax
   17c63:	e8 6f f6 ff ff       	call   172d7 <fs_unprotect>
   17c68:	83 c4 10             	add    $0x10,%esp
   17c6b:	8b 45 f4             	mov    -0xc(%ebp),%eax
   17c6e:	c9                   	leave  
   17c6f:	c3                   	ret    

00017c70 <sys_unlink>:
   17c70:	55                   	push   %ebp
   17c71:	89 e5                	mov    %esp,%ebp
   17c73:	83 ec 18             	sub    $0x18,%esp
   17c76:	a1 ac e8 05 00       	mov    0x5e8ac,%eax
   17c7b:	83 ec 0c             	sub    $0xc,%esp
   17c7e:	50                   	push   %eax
   17c7f:	e8 28 f6 ff ff       	call   172ac <fs_protect>
   17c84:	83 c4 10             	add    $0x10,%esp
   17c87:	a1 ac e8 05 00       	mov    0x5e8ac,%eax
   17c8c:	8b 80 8c 00 00 00    	mov    0x8c(%eax),%eax
   17c92:	8b 40 2c             	mov    0x2c(%eax),%eax
   17c95:	8b 15 ac e8 05 00    	mov    0x5e8ac,%edx
   17c9b:	83 ec 08             	sub    $0x8,%esp
   17c9e:	ff 75 08             	pushl  0x8(%ebp)
   17ca1:	52                   	push   %edx
   17ca2:	ff d0                	call   *%eax
   17ca4:	83 c4 10             	add    $0x10,%esp
   17ca7:	89 45 f4             	mov    %eax,-0xc(%ebp)
   17caa:	a1 ac e8 05 00       	mov    0x5e8ac,%eax
   17caf:	83 ec 0c             	sub    $0xc,%esp
   17cb2:	50                   	push   %eax
   17cb3:	e8 1f f6 ff ff       	call   172d7 <fs_unprotect>
   17cb8:	83 c4 10             	add    $0x10,%esp
   17cbb:	8b 45 f4             	mov    -0xc(%ebp),%eax
   17cbe:	c9                   	leave  
   17cbf:	c3                   	ret    

00017cc0 <kernel_init>:
   17cc0:	55                   	push   %ebp
   17cc1:	89 e5                	mov    %esp,%ebp
   17cc3:	83 ec 08             	sub    $0x8,%esp
   17cc6:	e8 a5 ae ff ff       	call   12b70 <cpu_init>
   17ccb:	e8 72 b5 ff ff       	call   13242 <irq_init>
   17cd0:	e8 99 0d 00 00       	call   18a6e <log_init>
   17cd5:	83 ec 0c             	sub    $0xc,%esp
   17cd8:	ff 75 08             	pushl  0x8(%ebp)
   17cdb:	e8 e0 8d ff ff       	call   10ac0 <memory_init>
   17ce0:	83 c4 10             	add    $0x10,%esp
   17ce3:	e8 3d fd ff ff       	call   17a25 <fs_init>
   17ce8:	e8 c2 d5 ff ff       	call   152af <time_init>
   17ced:	e8 84 9a ff ff       	call   11776 <task_manager_init>
   17cf2:	90                   	nop
   17cf3:	c9                   	leave  
   17cf4:	c3                   	ret    

00017cf5 <move_to_first_task>:
   17cf5:	55                   	push   %ebp
   17cf6:	89 e5                	mov    %esp,%ebp
   17cf8:	56                   	push   %esi
   17cf9:	53                   	push   %ebx
   17cfa:	83 ec 10             	sub    $0x10,%esp
   17cfd:	e8 8a 9c ff ff       	call   1198c <task_current>
   17d02:	89 45 f4             	mov    %eax,-0xc(%ebp)
   17d05:	8b 45 f4             	mov    -0xc(%ebp),%eax
   17d08:	83 c0 64             	add    $0x64,%eax
   17d0b:	89 45 f0             	mov    %eax,-0x10(%ebp)
   17d0e:	8b 45 f4             	mov    -0xc(%ebp),%eax
   17d11:	c7 40 08 00 00 00 00 	movl   $0x0,0x8(%eax)
   17d18:	8b 45 f0             	mov    -0x10(%ebp),%eax
   17d1b:	c7 40 4c 1b 00 00 00 	movl   $0x1b,0x4c(%eax)
   17d22:	8b 45 f0             	mov    -0x10(%ebp),%eax
   17d25:	c7 40 50 23 00 00 00 	movl   $0x23,0x50(%eax)
   17d2c:	8b 45 f0             	mov    -0x10(%ebp),%eax
   17d2f:	c7 40 54 23 00 00 00 	movl   $0x23,0x54(%eax)
   17d36:	8b 45 f0             	mov    -0x10(%ebp),%eax
   17d39:	c7 40 48 23 00 00 00 	movl   $0x23,0x48(%eax)
   17d40:	8b 45 f0             	mov    -0x10(%ebp),%eax
   17d43:	c7 40 58 23 00 00 00 	movl   $0x23,0x58(%eax)
   17d4a:	8b 45 f0             	mov    -0x10(%ebp),%eax
   17d4d:	c7 40 5c 23 00 00 00 	movl   $0x23,0x5c(%eax)
   17d54:	8b 45 f0             	mov    -0x10(%ebp),%eax
   17d57:	8b 40 38             	mov    0x38(%eax),%eax
   17d5a:	8b 55 f0             	mov    -0x10(%ebp),%edx
   17d5d:	8b 52 24             	mov    0x24(%edx),%edx
   17d60:	8b 4d f0             	mov    -0x10(%ebp),%ecx
   17d63:	8b 49 20             	mov    0x20(%ecx),%ecx
   17d66:	bb 23 00 00 00       	mov    $0x23,%ebx
   17d6b:	be 1b 00 00 00       	mov    $0x1b,%esi
   17d70:	53                   	push   %ebx
   17d71:	50                   	push   %eax
   17d72:	52                   	push   %edx
   17d73:	56                   	push   %esi
   17d74:	51                   	push   %ecx
   17d75:	cf                   	iret   
   17d76:	90                   	nop
   17d77:	83 c4 10             	add    $0x10,%esp
   17d7a:	5b                   	pop    %ebx
   17d7b:	5e                   	pop    %esi
   17d7c:	5d                   	pop    %ebp
   17d7d:	c3                   	ret    

00017d7e <init_main>:
   17d7e:	55                   	push   %ebp
   17d7f:	89 e5                	mov    %esp,%ebp
   17d81:	83 ec 08             	sub    $0x8,%esp
   17d84:	e8 da b7 ff ff       	call   13563 <irq_enable_global>
   17d89:	83 ec 08             	sub    $0x8,%esp
   17d8c:	6a 00                	push   $0x0
   17d8e:	68 b0 e8 05 00       	push   $0x5e8b0
   17d93:	e8 9c 01 00 00       	call   17f34 <sem_init>
   17d98:	83 c4 10             	add    $0x10,%esp
   17d9b:	e8 96 9a ff ff       	call   11836 <task_first_init>
   17da0:	e8 50 ff ff ff       	call   17cf5 <move_to_first_task>
   17da5:	90                   	nop
   17da6:	c9                   	leave  
   17da7:	c3                   	ret    

00017da8 <list_count>:
   17da8:	55                   	push   %ebp
   17da9:	89 e5                	mov    %esp,%ebp
   17dab:	8b 45 08             	mov    0x8(%ebp),%eax
   17dae:	8b 40 08             	mov    0x8(%eax),%eax
   17db1:	5d                   	pop    %ebp
   17db2:	c3                   	ret    

00017db3 <mutex_init>:
   17db3:	55                   	push   %ebp
   17db4:	89 e5                	mov    %esp,%ebp
   17db6:	83 ec 08             	sub    $0x8,%esp
   17db9:	8b 45 08             	mov    0x8(%ebp),%eax
   17dbc:	c7 40 0c 00 00 00 00 	movl   $0x0,0xc(%eax)
   17dc3:	8b 45 08             	mov    0x8(%ebp),%eax
   17dc6:	c7 40 10 00 00 00 00 	movl   $0x0,0x10(%eax)
   17dcd:	8b 45 08             	mov    0x8(%ebp),%eax
   17dd0:	83 ec 0c             	sub    $0xc,%esp
   17dd3:	50                   	push   %eax
   17dd4:	e8 b2 0a 00 00       	call   1888b <list_init>
   17dd9:	83 c4 10             	add    $0x10,%esp
   17ddc:	90                   	nop
   17ddd:	c9                   	leave  
   17dde:	c3                   	ret    

00017ddf <mutex_lock>:
   17ddf:	55                   	push   %ebp
   17de0:	89 e5                	mov    %esp,%ebp
   17de2:	83 ec 18             	sub    $0x18,%esp
   17de5:	e8 af b7 ff ff       	call   13599 <irq_enter_protection>
   17dea:	89 45 f4             	mov    %eax,-0xc(%ebp)
   17ded:	e8 9a 9b ff ff       	call   1198c <task_current>
   17df2:	89 45 f0             	mov    %eax,-0x10(%ebp)
   17df5:	8b 45 08             	mov    0x8(%ebp),%eax
   17df8:	8b 40 10             	mov    0x10(%eax),%eax
   17dfb:	85 c0                	test   %eax,%eax
   17dfd:	75 1a                	jne    17e19 <mutex_lock+0x3a>
   17dff:	8b 45 08             	mov    0x8(%ebp),%eax
   17e02:	8b 40 10             	mov    0x10(%eax),%eax
   17e05:	8d 50 01             	lea    0x1(%eax),%edx
   17e08:	8b 45 08             	mov    0x8(%ebp),%eax
   17e0b:	89 50 10             	mov    %edx,0x10(%eax)
   17e0e:	8b 45 08             	mov    0x8(%ebp),%eax
   17e11:	8b 55 f0             	mov    -0x10(%ebp),%edx
   17e14:	89 50 0c             	mov    %edx,0xc(%eax)
   17e17:	eb 45                	jmp    17e5e <mutex_lock+0x7f>
   17e19:	8b 45 08             	mov    0x8(%ebp),%eax
   17e1c:	8b 40 0c             	mov    0xc(%eax),%eax
   17e1f:	39 45 f0             	cmp    %eax,-0x10(%ebp)
   17e22:	75 11                	jne    17e35 <mutex_lock+0x56>
   17e24:	8b 45 08             	mov    0x8(%ebp),%eax
   17e27:	8b 40 10             	mov    0x10(%eax),%eax
   17e2a:	8d 50 01             	lea    0x1(%eax),%edx
   17e2d:	8b 45 08             	mov    0x8(%ebp),%eax
   17e30:	89 50 10             	mov    %edx,0x10(%eax)
   17e33:	eb 29                	jmp    17e5e <mutex_lock+0x7f>
   17e35:	83 ec 0c             	sub    $0xc,%esp
   17e38:	ff 75 f0             	pushl  -0x10(%ebp)
   17e3b:	e8 21 9b ff ff       	call   11961 <task_set_block>
   17e40:	83 c4 10             	add    $0x10,%esp
   17e43:	8b 45 f0             	mov    -0x10(%ebp),%eax
   17e46:	8d 50 58             	lea    0x58(%eax),%edx
   17e49:	8b 45 08             	mov    0x8(%ebp),%eax
   17e4c:	83 ec 08             	sub    $0x8,%esp
   17e4f:	52                   	push   %edx
   17e50:	50                   	push   %eax
   17e51:	e8 b9 0a 00 00       	call   1890f <list_insert_last>
   17e56:	83 c4 10             	add    $0x10,%esp
   17e59:	e8 05 9e ff ff       	call   11c63 <schedule_switch>
   17e5e:	83 ec 0c             	sub    $0xc,%esp
   17e61:	ff 75 f4             	pushl  -0xc(%ebp)
   17e64:	e8 48 b7 ff ff       	call   135b1 <irq_leave_protection>
   17e69:	83 c4 10             	add    $0x10,%esp
   17e6c:	90                   	nop
   17e6d:	c9                   	leave  
   17e6e:	c3                   	ret    

00017e6f <mutex_unlock>:
   17e6f:	55                   	push   %ebp
   17e70:	89 e5                	mov    %esp,%ebp
   17e72:	83 ec 18             	sub    $0x18,%esp
   17e75:	e8 1f b7 ff ff       	call   13599 <irq_enter_protection>
   17e7a:	89 45 f4             	mov    %eax,-0xc(%ebp)
   17e7d:	e8 0a 9b ff ff       	call   1198c <task_current>
   17e82:	89 45 f0             	mov    %eax,-0x10(%ebp)
   17e85:	8b 45 08             	mov    0x8(%ebp),%eax
   17e88:	8b 40 0c             	mov    0xc(%eax),%eax
   17e8b:	39 45 f0             	cmp    %eax,-0x10(%ebp)
   17e8e:	0f 85 84 00 00 00    	jne    17f18 <mutex_unlock+0xa9>
   17e94:	8b 45 08             	mov    0x8(%ebp),%eax
   17e97:	8b 40 10             	mov    0x10(%eax),%eax
   17e9a:	8d 50 ff             	lea    -0x1(%eax),%edx
   17e9d:	8b 45 08             	mov    0x8(%ebp),%eax
   17ea0:	89 50 10             	mov    %edx,0x10(%eax)
   17ea3:	8b 45 08             	mov    0x8(%ebp),%eax
   17ea6:	8b 40 10             	mov    0x10(%eax),%eax
   17ea9:	85 c0                	test   %eax,%eax
   17eab:	75 6b                	jne    17f18 <mutex_unlock+0xa9>
   17ead:	8b 45 08             	mov    0x8(%ebp),%eax
   17eb0:	c7 40 0c 00 00 00 00 	movl   $0x0,0xc(%eax)
   17eb7:	8b 45 08             	mov    0x8(%ebp),%eax
   17eba:	83 ec 0c             	sub    $0xc,%esp
   17ebd:	50                   	push   %eax
   17ebe:	e8 e5 fe ff ff       	call   17da8 <list_count>
   17ec3:	83 c4 10             	add    $0x10,%esp
   17ec6:	85 c0                	test   %eax,%eax
   17ec8:	74 4e                	je     17f18 <mutex_unlock+0xa9>
   17eca:	8b 45 08             	mov    0x8(%ebp),%eax
   17ecd:	83 ec 0c             	sub    $0xc,%esp
   17ed0:	50                   	push   %eax
   17ed1:	e8 9d 0a 00 00       	call   18973 <list_remove_first>
   17ed6:	83 c4 10             	add    $0x10,%esp
   17ed9:	89 45 ec             	mov    %eax,-0x14(%ebp)
   17edc:	83 7d ec 00          	cmpl   $0x0,-0x14(%ebp)
   17ee0:	74 08                	je     17eea <mutex_unlock+0x7b>
   17ee2:	8b 45 ec             	mov    -0x14(%ebp),%eax
   17ee5:	83 e8 58             	sub    $0x58,%eax
   17ee8:	eb 05                	jmp    17eef <mutex_unlock+0x80>
   17eea:	b8 00 00 00 00       	mov    $0x0,%eax
   17eef:	89 45 e8             	mov    %eax,-0x18(%ebp)
   17ef2:	83 ec 0c             	sub    $0xc,%esp
   17ef5:	ff 75 e8             	pushl  -0x18(%ebp)
   17ef8:	e8 2f 9a ff ff       	call   1192c <task_set_ready>
   17efd:	83 c4 10             	add    $0x10,%esp
   17f00:	8b 45 08             	mov    0x8(%ebp),%eax
   17f03:	c7 40 10 01 00 00 00 	movl   $0x1,0x10(%eax)
   17f0a:	8b 45 08             	mov    0x8(%ebp),%eax
   17f0d:	8b 55 e8             	mov    -0x18(%ebp),%edx
   17f10:	89 50 0c             	mov    %edx,0xc(%eax)
   17f13:	e8 4b 9d ff ff       	call   11c63 <schedule_switch>
   17f18:	83 ec 0c             	sub    $0xc,%esp
   17f1b:	ff 75 f4             	pushl  -0xc(%ebp)
   17f1e:	e8 8e b6 ff ff       	call   135b1 <irq_leave_protection>
   17f23:	83 c4 10             	add    $0x10,%esp
   17f26:	90                   	nop
   17f27:	c9                   	leave  
   17f28:	c3                   	ret    

00017f29 <list_count>:
   17f29:	55                   	push   %ebp
   17f2a:	89 e5                	mov    %esp,%ebp
   17f2c:	8b 45 08             	mov    0x8(%ebp),%eax
   17f2f:	8b 40 08             	mov    0x8(%eax),%eax
   17f32:	5d                   	pop    %ebp
   17f33:	c3                   	ret    

00017f34 <sem_init>:
   17f34:	55                   	push   %ebp
   17f35:	89 e5                	mov    %esp,%ebp
   17f37:	83 ec 08             	sub    $0x8,%esp
   17f3a:	8b 45 08             	mov    0x8(%ebp),%eax
   17f3d:	8b 55 0c             	mov    0xc(%ebp),%edx
   17f40:	89 10                	mov    %edx,(%eax)
   17f42:	8b 45 08             	mov    0x8(%ebp),%eax
   17f45:	83 c0 04             	add    $0x4,%eax
   17f48:	83 ec 0c             	sub    $0xc,%esp
   17f4b:	50                   	push   %eax
   17f4c:	e8 3a 09 00 00       	call   1888b <list_init>
   17f51:	83 c4 10             	add    $0x10,%esp
   17f54:	90                   	nop
   17f55:	c9                   	leave  
   17f56:	c3                   	ret    

00017f57 <sem_wait>:
   17f57:	55                   	push   %ebp
   17f58:	89 e5                	mov    %esp,%ebp
   17f5a:	83 ec 18             	sub    $0x18,%esp
   17f5d:	e8 37 b6 ff ff       	call   13599 <irq_enter_protection>
   17f62:	89 45 f4             	mov    %eax,-0xc(%ebp)
   17f65:	8b 45 08             	mov    0x8(%ebp),%eax
   17f68:	8b 00                	mov    (%eax),%eax
   17f6a:	85 c0                	test   %eax,%eax
   17f6c:	7e 0f                	jle    17f7d <sem_wait+0x26>
   17f6e:	8b 45 08             	mov    0x8(%ebp),%eax
   17f71:	8b 00                	mov    (%eax),%eax
   17f73:	8d 50 ff             	lea    -0x1(%eax),%edx
   17f76:	8b 45 08             	mov    0x8(%ebp),%eax
   17f79:	89 10                	mov    %edx,(%eax)
   17f7b:	eb 34                	jmp    17fb1 <sem_wait+0x5a>
   17f7d:	e8 0a 9a ff ff       	call   1198c <task_current>
   17f82:	89 45 f0             	mov    %eax,-0x10(%ebp)
   17f85:	83 ec 0c             	sub    $0xc,%esp
   17f88:	ff 75 f0             	pushl  -0x10(%ebp)
   17f8b:	e8 d1 99 ff ff       	call   11961 <task_set_block>
   17f90:	83 c4 10             	add    $0x10,%esp
   17f93:	8b 45 f0             	mov    -0x10(%ebp),%eax
   17f96:	8d 50 58             	lea    0x58(%eax),%edx
   17f99:	8b 45 08             	mov    0x8(%ebp),%eax
   17f9c:	83 c0 04             	add    $0x4,%eax
   17f9f:	83 ec 08             	sub    $0x8,%esp
   17fa2:	52                   	push   %edx
   17fa3:	50                   	push   %eax
   17fa4:	e8 66 09 00 00       	call   1890f <list_insert_last>
   17fa9:	83 c4 10             	add    $0x10,%esp
   17fac:	e8 b2 9c ff ff       	call   11c63 <schedule_switch>
   17fb1:	83 ec 0c             	sub    $0xc,%esp
   17fb4:	ff 75 f4             	pushl  -0xc(%ebp)
   17fb7:	e8 f5 b5 ff ff       	call   135b1 <irq_leave_protection>
   17fbc:	83 c4 10             	add    $0x10,%esp
   17fbf:	90                   	nop
   17fc0:	c9                   	leave  
   17fc1:	c3                   	ret    

00017fc2 <sem_notify>:
   17fc2:	55                   	push   %ebp
   17fc3:	89 e5                	mov    %esp,%ebp
   17fc5:	83 ec 18             	sub    $0x18,%esp
   17fc8:	e8 cc b5 ff ff       	call   13599 <irq_enter_protection>
   17fcd:	89 45 f4             	mov    %eax,-0xc(%ebp)
   17fd0:	8b 45 08             	mov    0x8(%ebp),%eax
   17fd3:	83 c0 04             	add    $0x4,%eax
   17fd6:	83 ec 0c             	sub    $0xc,%esp
   17fd9:	50                   	push   %eax
   17fda:	e8 4a ff ff ff       	call   17f29 <list_count>
   17fdf:	83 c4 10             	add    $0x10,%esp
   17fe2:	85 c0                	test   %eax,%eax
   17fe4:	7e 40                	jle    18026 <sem_notify+0x64>
   17fe6:	8b 45 08             	mov    0x8(%ebp),%eax
   17fe9:	83 c0 04             	add    $0x4,%eax
   17fec:	83 ec 0c             	sub    $0xc,%esp
   17fef:	50                   	push   %eax
   17ff0:	e8 7e 09 00 00       	call   18973 <list_remove_first>
   17ff5:	83 c4 10             	add    $0x10,%esp
   17ff8:	89 45 f0             	mov    %eax,-0x10(%ebp)
   17ffb:	83 7d f0 00          	cmpl   $0x0,-0x10(%ebp)
   17fff:	74 08                	je     18009 <sem_notify+0x47>
   18001:	8b 45 f0             	mov    -0x10(%ebp),%eax
   18004:	83 e8 58             	sub    $0x58,%eax
   18007:	eb 05                	jmp    1800e <sem_notify+0x4c>
   18009:	b8 00 00 00 00       	mov    $0x0,%eax
   1800e:	89 45 ec             	mov    %eax,-0x14(%ebp)
   18011:	83 ec 0c             	sub    $0xc,%esp
   18014:	ff 75 ec             	pushl  -0x14(%ebp)
   18017:	e8 10 99 ff ff       	call   1192c <task_set_ready>
   1801c:	83 c4 10             	add    $0x10,%esp
   1801f:	e8 3f 9c ff ff       	call   11c63 <schedule_switch>
   18024:	eb 0d                	jmp    18033 <sem_notify+0x71>
   18026:	8b 45 08             	mov    0x8(%ebp),%eax
   18029:	8b 00                	mov    (%eax),%eax
   1802b:	8d 50 01             	lea    0x1(%eax),%edx
   1802e:	8b 45 08             	mov    0x8(%ebp),%eax
   18031:	89 10                	mov    %edx,(%eax)
   18033:	83 ec 0c             	sub    $0xc,%esp
   18036:	ff 75 f4             	pushl  -0xc(%ebp)
   18039:	e8 73 b5 ff ff       	call   135b1 <irq_leave_protection>
   1803e:	83 c4 10             	add    $0x10,%esp
   18041:	90                   	nop
   18042:	c9                   	leave  
   18043:	c3                   	ret    

00018044 <sem_count>:
   18044:	55                   	push   %ebp
   18045:	89 e5                	mov    %esp,%ebp
   18047:	83 ec 18             	sub    $0x18,%esp
   1804a:	e8 4a b5 ff ff       	call   13599 <irq_enter_protection>
   1804f:	89 45 f4             	mov    %eax,-0xc(%ebp)
   18052:	8b 45 08             	mov    0x8(%ebp),%eax
   18055:	8b 00                	mov    (%eax),%eax
   18057:	89 45 f0             	mov    %eax,-0x10(%ebp)
   1805a:	83 ec 0c             	sub    $0xc,%esp
   1805d:	ff 75 f4             	pushl  -0xc(%ebp)
   18060:	e8 4c b5 ff ff       	call   135b1 <irq_leave_protection>
   18065:	83 c4 10             	add    $0x10,%esp
   18068:	8b 45 f0             	mov    -0x10(%ebp),%eax
   1806b:	c9                   	leave  
   1806c:	c3                   	ret    

0001806d <bitmap_byte_count>:
   1806d:	55                   	push   %ebp
   1806e:	89 e5                	mov    %esp,%ebp
   18070:	8b 45 08             	mov    0x8(%ebp),%eax
   18073:	83 c0 07             	add    $0x7,%eax
   18076:	8d 50 07             	lea    0x7(%eax),%edx
   18079:	85 c0                	test   %eax,%eax
   1807b:	0f 48 c2             	cmovs  %edx,%eax
   1807e:	c1 f8 03             	sar    $0x3,%eax
   18081:	5d                   	pop    %ebp
   18082:	c3                   	ret    

00018083 <bitmap_init>:
   18083:	55                   	push   %ebp
   18084:	89 e5                	mov    %esp,%ebp
   18086:	83 ec 18             	sub    $0x18,%esp
   18089:	8b 45 08             	mov    0x8(%ebp),%eax
   1808c:	8b 55 10             	mov    0x10(%ebp),%edx
   1808f:	89 10                	mov    %edx,(%eax)
   18091:	8b 45 08             	mov    0x8(%ebp),%eax
   18094:	8b 55 0c             	mov    0xc(%ebp),%edx
   18097:	89 50 04             	mov    %edx,0x4(%eax)
   1809a:	ff 75 10             	pushl  0x10(%ebp)
   1809d:	e8 cb ff ff ff       	call   1806d <bitmap_byte_count>
   180a2:	83 c4 04             	add    $0x4,%esp
   180a5:	89 45 f4             	mov    %eax,-0xc(%ebp)
   180a8:	83 7d 14 00          	cmpl   $0x0,0x14(%ebp)
   180ac:	74 07                	je     180b5 <bitmap_init+0x32>
   180ae:	b8 ff 00 00 00       	mov    $0xff,%eax
   180b3:	eb 05                	jmp    180ba <bitmap_init+0x37>
   180b5:	b8 00 00 00 00       	mov    $0x0,%eax
   180ba:	83 ec 04             	sub    $0x4,%esp
   180bd:	ff 75 f4             	pushl  -0xc(%ebp)
   180c0:	50                   	push   %eax
   180c1:	ff 75 0c             	pushl  0xc(%ebp)
   180c4:	e8 95 03 00 00       	call   1845e <kernel_memset>
   180c9:	83 c4 10             	add    $0x10,%esp
   180cc:	90                   	nop
   180cd:	c9                   	leave  
   180ce:	c3                   	ret    

000180cf <bitmap_get_bit>:
   180cf:	55                   	push   %ebp
   180d0:	89 e5                	mov    %esp,%ebp
   180d2:	53                   	push   %ebx
   180d3:	8b 45 08             	mov    0x8(%ebp),%eax
   180d6:	8b 50 04             	mov    0x4(%eax),%edx
   180d9:	8b 45 0c             	mov    0xc(%ebp),%eax
   180dc:	8d 48 07             	lea    0x7(%eax),%ecx
   180df:	85 c0                	test   %eax,%eax
   180e1:	0f 48 c1             	cmovs  %ecx,%eax
   180e4:	c1 f8 03             	sar    $0x3,%eax
   180e7:	01 d0                	add    %edx,%eax
   180e9:	0f b6 00             	movzbl (%eax),%eax
   180ec:	0f b6 d8             	movzbl %al,%ebx
   180ef:	8b 45 0c             	mov    0xc(%ebp),%eax
   180f2:	99                   	cltd   
   180f3:	c1 ea 1d             	shr    $0x1d,%edx
   180f6:	01 d0                	add    %edx,%eax
   180f8:	83 e0 07             	and    $0x7,%eax
   180fb:	29 d0                	sub    %edx,%eax
   180fd:	ba 01 00 00 00       	mov    $0x1,%edx
   18102:	89 c1                	mov    %eax,%ecx
   18104:	d3 e2                	shl    %cl,%edx
   18106:	89 d0                	mov    %edx,%eax
   18108:	21 d8                	and    %ebx,%eax
   1810a:	5b                   	pop    %ebx
   1810b:	5d                   	pop    %ebp
   1810c:	c3                   	ret    

0001810d <bitmap_set_bit>:
   1810d:	55                   	push   %ebp
   1810e:	89 e5                	mov    %esp,%ebp
   18110:	56                   	push   %esi
   18111:	53                   	push   %ebx
   18112:	83 ec 10             	sub    $0x10,%esp
   18115:	c7 45 f4 00 00 00 00 	movl   $0x0,-0xc(%ebp)
   1811c:	e9 a2 00 00 00       	jmp    181c3 <bitmap_set_bit+0xb6>
   18121:	83 7d 14 00          	cmpl   $0x0,0x14(%ebp)
   18125:	74 4a                	je     18171 <bitmap_set_bit+0x64>
   18127:	8b 45 08             	mov    0x8(%ebp),%eax
   1812a:	8b 50 04             	mov    0x4(%eax),%edx
   1812d:	8b 45 0c             	mov    0xc(%ebp),%eax
   18130:	8d 48 07             	lea    0x7(%eax),%ecx
   18133:	85 c0                	test   %eax,%eax
   18135:	0f 48 c1             	cmovs  %ecx,%eax
   18138:	c1 f8 03             	sar    $0x3,%eax
   1813b:	89 c3                	mov    %eax,%ebx
   1813d:	89 d8                	mov    %ebx,%eax
   1813f:	01 d0                	add    %edx,%eax
   18141:	0f b6 00             	movzbl (%eax),%eax
   18144:	89 c6                	mov    %eax,%esi
   18146:	8b 45 0c             	mov    0xc(%ebp),%eax
   18149:	99                   	cltd   
   1814a:	c1 ea 1d             	shr    $0x1d,%edx
   1814d:	01 d0                	add    %edx,%eax
   1814f:	83 e0 07             	and    $0x7,%eax
   18152:	29 d0                	sub    %edx,%eax
   18154:	ba 01 00 00 00       	mov    $0x1,%edx
   18159:	89 c1                	mov    %eax,%ecx
   1815b:	d3 e2                	shl    %cl,%edx
   1815d:	89 d0                	mov    %edx,%eax
   1815f:	89 f2                	mov    %esi,%edx
   18161:	09 c2                	or     %eax,%edx
   18163:	8b 45 08             	mov    0x8(%ebp),%eax
   18166:	8b 40 04             	mov    0x4(%eax),%eax
   18169:	89 d9                	mov    %ebx,%ecx
   1816b:	01 c8                	add    %ecx,%eax
   1816d:	88 10                	mov    %dl,(%eax)
   1816f:	eb 4a                	jmp    181bb <bitmap_set_bit+0xae>
   18171:	8b 45 08             	mov    0x8(%ebp),%eax
   18174:	8b 50 04             	mov    0x4(%eax),%edx
   18177:	8b 45 0c             	mov    0xc(%ebp),%eax
   1817a:	8d 48 07             	lea    0x7(%eax),%ecx
   1817d:	85 c0                	test   %eax,%eax
   1817f:	0f 48 c1             	cmovs  %ecx,%eax
   18182:	c1 f8 03             	sar    $0x3,%eax
   18185:	89 c3                	mov    %eax,%ebx
   18187:	89 d8                	mov    %ebx,%eax
   18189:	01 d0                	add    %edx,%eax
   1818b:	0f b6 00             	movzbl (%eax),%eax
   1818e:	89 c6                	mov    %eax,%esi
   18190:	8b 45 0c             	mov    0xc(%ebp),%eax
   18193:	99                   	cltd   
   18194:	c1 ea 1d             	shr    $0x1d,%edx
   18197:	01 d0                	add    %edx,%eax
   18199:	83 e0 07             	and    $0x7,%eax
   1819c:	29 d0                	sub    %edx,%eax
   1819e:	ba 01 00 00 00       	mov    $0x1,%edx
   181a3:	89 c1                	mov    %eax,%ecx
   181a5:	d3 e2                	shl    %cl,%edx
   181a7:	89 d0                	mov    %edx,%eax
   181a9:	f7 d0                	not    %eax
   181ab:	89 f2                	mov    %esi,%edx
   181ad:	21 c2                	and    %eax,%edx
   181af:	8b 45 08             	mov    0x8(%ebp),%eax
   181b2:	8b 40 04             	mov    0x4(%eax),%eax
   181b5:	89 d9                	mov    %ebx,%ecx
   181b7:	01 c8                	add    %ecx,%eax
   181b9:	88 10                	mov    %dl,(%eax)
   181bb:	83 45 0c 01          	addl   $0x1,0xc(%ebp)
   181bf:	83 45 f4 01          	addl   $0x1,-0xc(%ebp)
   181c3:	8b 45 f4             	mov    -0xc(%ebp),%eax
   181c6:	3b 45 10             	cmp    0x10(%ebp),%eax
   181c9:	7d 0e                	jge    181d9 <bitmap_set_bit+0xcc>
   181cb:	8b 45 08             	mov    0x8(%ebp),%eax
   181ce:	8b 00                	mov    (%eax),%eax
   181d0:	39 45 0c             	cmp    %eax,0xc(%ebp)
   181d3:	0f 8c 48 ff ff ff    	jl     18121 <bitmap_set_bit+0x14>
   181d9:	90                   	nop
   181da:	83 c4 10             	add    $0x10,%esp
   181dd:	5b                   	pop    %ebx
   181de:	5e                   	pop    %esi
   181df:	5d                   	pop    %ebp
   181e0:	c3                   	ret    

000181e1 <bitmap_is_set>:
   181e1:	55                   	push   %ebp
   181e2:	89 e5                	mov    %esp,%ebp
   181e4:	ff 75 0c             	pushl  0xc(%ebp)
   181e7:	ff 75 08             	pushl  0x8(%ebp)
   181ea:	e8 e0 fe ff ff       	call   180cf <bitmap_get_bit>
   181ef:	83 c4 08             	add    $0x8,%esp
   181f2:	85 c0                	test   %eax,%eax
   181f4:	0f 95 c0             	setne  %al
   181f7:	0f b6 c0             	movzbl %al,%eax
   181fa:	c9                   	leave  
   181fb:	c3                   	ret    

000181fc <bitmap_alloc_nbits>:
   181fc:	55                   	push   %ebp
   181fd:	89 e5                	mov    %esp,%ebp
   181ff:	83 ec 10             	sub    $0x10,%esp
   18202:	c7 45 fc 00 00 00 00 	movl   $0x0,-0x4(%ebp)
   18209:	c7 45 f8 ff ff ff ff 	movl   $0xffffffff,-0x8(%ebp)
   18210:	e9 8c 00 00 00       	jmp    182a1 <bitmap_alloc_nbits+0xa5>
   18215:	ff 75 fc             	pushl  -0x4(%ebp)
   18218:	ff 75 08             	pushl  0x8(%ebp)
   1821b:	e8 af fe ff ff       	call   180cf <bitmap_get_bit>
   18220:	83 c4 08             	add    $0x8,%esp
   18223:	39 45 0c             	cmp    %eax,0xc(%ebp)
   18226:	74 06                	je     1822e <bitmap_alloc_nbits+0x32>
   18228:	83 45 fc 01          	addl   $0x1,-0x4(%ebp)
   1822c:	eb 73                	jmp    182a1 <bitmap_alloc_nbits+0xa5>
   1822e:	8b 45 fc             	mov    -0x4(%ebp),%eax
   18231:	89 45 f8             	mov    %eax,-0x8(%ebp)
   18234:	c7 45 f4 00 00 00 00 	movl   $0x0,-0xc(%ebp)
   1823b:	c7 45 f4 00 00 00 00 	movl   $0x0,-0xc(%ebp)
   18242:	eb 27                	jmp    1826b <bitmap_alloc_nbits+0x6f>
   18244:	8b 45 fc             	mov    -0x4(%ebp),%eax
   18247:	8d 50 01             	lea    0x1(%eax),%edx
   1824a:	89 55 fc             	mov    %edx,-0x4(%ebp)
   1824d:	50                   	push   %eax
   1824e:	ff 75 08             	pushl  0x8(%ebp)
   18251:	e8 79 fe ff ff       	call   180cf <bitmap_get_bit>
   18256:	83 c4 08             	add    $0x8,%esp
   18259:	39 45 0c             	cmp    %eax,0xc(%ebp)
   1825c:	74 09                	je     18267 <bitmap_alloc_nbits+0x6b>
   1825e:	c7 45 f8 ff ff ff ff 	movl   $0xffffffff,-0x8(%ebp)
   18265:	eb 16                	jmp    1827d <bitmap_alloc_nbits+0x81>
   18267:	83 45 f4 01          	addl   $0x1,-0xc(%ebp)
   1826b:	8b 45 f4             	mov    -0xc(%ebp),%eax
   1826e:	3b 45 10             	cmp    0x10(%ebp),%eax
   18271:	7d 0a                	jge    1827d <bitmap_alloc_nbits+0x81>
   18273:	8b 45 08             	mov    0x8(%ebp),%eax
   18276:	8b 00                	mov    (%eax),%eax
   18278:	39 45 fc             	cmp    %eax,-0x4(%ebp)
   1827b:	7c c7                	jl     18244 <bitmap_alloc_nbits+0x48>
   1827d:	8b 45 f4             	mov    -0xc(%ebp),%eax
   18280:	3b 45 10             	cmp    0x10(%ebp),%eax
   18283:	7c 1c                	jl     182a1 <bitmap_alloc_nbits+0xa5>
   18285:	8b 45 0c             	mov    0xc(%ebp),%eax
   18288:	f7 d0                	not    %eax
   1828a:	50                   	push   %eax
   1828b:	ff 75 10             	pushl  0x10(%ebp)
   1828e:	ff 75 f8             	pushl  -0x8(%ebp)
   18291:	ff 75 08             	pushl  0x8(%ebp)
   18294:	e8 74 fe ff ff       	call   1810d <bitmap_set_bit>
   18299:	83 c4 10             	add    $0x10,%esp
   1829c:	8b 45 f8             	mov    -0x8(%ebp),%eax
   1829f:	eb 13                	jmp    182b4 <bitmap_alloc_nbits+0xb8>
   182a1:	8b 45 08             	mov    0x8(%ebp),%eax
   182a4:	8b 00                	mov    (%eax),%eax
   182a6:	39 45 fc             	cmp    %eax,-0x4(%ebp)
   182a9:	0f 8c 66 ff ff ff    	jl     18215 <bitmap_alloc_nbits+0x19>
   182af:	b8 ff ff ff ff       	mov    $0xffffffff,%eax
   182b4:	c9                   	leave  
   182b5:	c3                   	ret    

000182b6 <hlt>:
   182b6:	55                   	push   %ebp
   182b7:	89 e5                	mov    %esp,%ebp
   182b9:	f4                   	hlt    
   182ba:	90                   	nop
   182bb:	5d                   	pop    %ebp
   182bc:	c3                   	ret    

000182bd <kernel_strcpy>:
   182bd:	55                   	push   %ebp
   182be:	89 e5                	mov    %esp,%ebp
   182c0:	83 7d 08 00          	cmpl   $0x0,0x8(%ebp)
   182c4:	74 27                	je     182ed <kernel_strcpy+0x30>
   182c6:	83 7d 0c 00          	cmpl   $0x0,0xc(%ebp)
   182ca:	74 21                	je     182ed <kernel_strcpy+0x30>
   182cc:	90                   	nop
   182cd:	8b 55 0c             	mov    0xc(%ebp),%edx
   182d0:	8d 42 01             	lea    0x1(%edx),%eax
   182d3:	89 45 0c             	mov    %eax,0xc(%ebp)
   182d6:	8b 45 08             	mov    0x8(%ebp),%eax
   182d9:	8d 48 01             	lea    0x1(%eax),%ecx
   182dc:	89 4d 08             	mov    %ecx,0x8(%ebp)
   182df:	0f b6 12             	movzbl (%edx),%edx
   182e2:	88 10                	mov    %dl,(%eax)
   182e4:	0f b6 00             	movzbl (%eax),%eax
   182e7:	84 c0                	test   %al,%al
   182e9:	75 e2                	jne    182cd <kernel_strcpy+0x10>
   182eb:	eb 01                	jmp    182ee <kernel_strcpy+0x31>
   182ed:	90                   	nop
   182ee:	5d                   	pop    %ebp
   182ef:	c3                   	ret    

000182f0 <kernel_strncpy>:
   182f0:	55                   	push   %ebp
   182f1:	89 e5                	mov    %esp,%ebp
   182f3:	83 ec 10             	sub    $0x10,%esp
   182f6:	83 7d 08 00          	cmpl   $0x0,0x8(%ebp)
   182fa:	74 5b                	je     18357 <kernel_strncpy+0x67>
   182fc:	83 7d 0c 00          	cmpl   $0x0,0xc(%ebp)
   18300:	74 55                	je     18357 <kernel_strncpy+0x67>
   18302:	8b 45 08             	mov    0x8(%ebp),%eax
   18305:	89 45 fc             	mov    %eax,-0x4(%ebp)
   18308:	8b 45 0c             	mov    0xc(%ebp),%eax
   1830b:	89 45 f8             	mov    %eax,-0x8(%ebp)
   1830e:	eb 17                	jmp    18327 <kernel_strncpy+0x37>
   18310:	8b 55 f8             	mov    -0x8(%ebp),%edx
   18313:	8d 42 01             	lea    0x1(%edx),%eax
   18316:	89 45 f8             	mov    %eax,-0x8(%ebp)
   18319:	8b 45 fc             	mov    -0x4(%ebp),%eax
   1831c:	8d 48 01             	lea    0x1(%eax),%ecx
   1831f:	89 4d fc             	mov    %ecx,-0x4(%ebp)
   18322:	0f b6 12             	movzbl (%edx),%edx
   18325:	88 10                	mov    %dl,(%eax)
   18327:	8b 45 10             	mov    0x10(%ebp),%eax
   1832a:	8d 50 ff             	lea    -0x1(%eax),%edx
   1832d:	89 55 10             	mov    %edx,0x10(%ebp)
   18330:	85 c0                	test   %eax,%eax
   18332:	7e 0a                	jle    1833e <kernel_strncpy+0x4e>
   18334:	8b 45 f8             	mov    -0x8(%ebp),%eax
   18337:	0f b6 00             	movzbl (%eax),%eax
   1833a:	84 c0                	test   %al,%al
   1833c:	75 d2                	jne    18310 <kernel_strncpy+0x20>
   1833e:	83 7d 10 00          	cmpl   $0x0,0x10(%ebp)
   18342:	75 0b                	jne    1834f <kernel_strncpy+0x5f>
   18344:	8b 45 fc             	mov    -0x4(%ebp),%eax
   18347:	83 e8 01             	sub    $0x1,%eax
   1834a:	c6 00 00             	movb   $0x0,(%eax)
   1834d:	eb 09                	jmp    18358 <kernel_strncpy+0x68>
   1834f:	8b 45 fc             	mov    -0x4(%ebp),%eax
   18352:	c6 00 00             	movb   $0x0,(%eax)
   18355:	eb 01                	jmp    18358 <kernel_strncpy+0x68>
   18357:	90                   	nop
   18358:	c9                   	leave  
   18359:	c3                   	ret    

0001835a <kernel_strncmp>:
   1835a:	55                   	push   %ebp
   1835b:	89 e5                	mov    %esp,%ebp
   1835d:	83 7d 08 00          	cmpl   $0x0,0x8(%ebp)
   18361:	74 06                	je     18369 <kernel_strncmp+0xf>
   18363:	83 7d 0c 00          	cmpl   $0x0,0xc(%ebp)
   18367:	75 0f                	jne    18378 <kernel_strncmp+0x1e>
   18369:	b8 00 00 00 00       	mov    $0x0,%eax
   1836e:	eb 62                	jmp    183d2 <kernel_strncmp+0x78>
   18370:	83 45 08 01          	addl   $0x1,0x8(%ebp)
   18374:	83 45 0c 01          	addl   $0x1,0xc(%ebp)
   18378:	8b 45 08             	mov    0x8(%ebp),%eax
   1837b:	0f b6 00             	movzbl (%eax),%eax
   1837e:	84 c0                	test   %al,%al
   18380:	74 20                	je     183a2 <kernel_strncmp+0x48>
   18382:	8b 45 0c             	mov    0xc(%ebp),%eax
   18385:	0f b6 00             	movzbl (%eax),%eax
   18388:	84 c0                	test   %al,%al
   1838a:	74 16                	je     183a2 <kernel_strncmp+0x48>
   1838c:	8b 45 08             	mov    0x8(%ebp),%eax
   1838f:	0f b6 10             	movzbl (%eax),%edx
   18392:	8b 45 0c             	mov    0xc(%ebp),%eax
   18395:	0f b6 00             	movzbl (%eax),%eax
   18398:	38 c2                	cmp    %al,%dl
   1839a:	75 06                	jne    183a2 <kernel_strncmp+0x48>
   1839c:	83 7d 10 00          	cmpl   $0x0,0x10(%ebp)
   183a0:	75 ce                	jne    18370 <kernel_strncmp+0x16>
   183a2:	8b 45 08             	mov    0x8(%ebp),%eax
   183a5:	0f b6 00             	movzbl (%eax),%eax
   183a8:	84 c0                	test   %al,%al
   183aa:	74 21                	je     183cd <kernel_strncmp+0x73>
   183ac:	8b 45 0c             	mov    0xc(%ebp),%eax
   183af:	0f b6 00             	movzbl (%eax),%eax
   183b2:	84 c0                	test   %al,%al
   183b4:	74 17                	je     183cd <kernel_strncmp+0x73>
   183b6:	8b 45 08             	mov    0x8(%ebp),%eax
   183b9:	0f b6 10             	movzbl (%eax),%edx
   183bc:	8b 45 0c             	mov    0xc(%ebp),%eax
   183bf:	0f b6 00             	movzbl (%eax),%eax
   183c2:	38 c2                	cmp    %al,%dl
   183c4:	74 07                	je     183cd <kernel_strncmp+0x73>
   183c6:	b8 01 00 00 00       	mov    $0x1,%eax
   183cb:	eb 05                	jmp    183d2 <kernel_strncmp+0x78>
   183cd:	b8 00 00 00 00       	mov    $0x0,%eax
   183d2:	5d                   	pop    %ebp
   183d3:	c3                   	ret    

000183d4 <kernel_strlen>:
   183d4:	55                   	push   %ebp
   183d5:	89 e5                	mov    %esp,%ebp
   183d7:	83 ec 10             	sub    $0x10,%esp
   183da:	83 7d 08 00          	cmpl   $0x0,0x8(%ebp)
   183de:	75 07                	jne    183e7 <kernel_strlen+0x13>
   183e0:	b8 00 00 00 00       	mov    $0x0,%eax
   183e5:	eb 26                	jmp    1840d <kernel_strlen+0x39>
   183e7:	8b 45 08             	mov    0x8(%ebp),%eax
   183ea:	89 45 fc             	mov    %eax,-0x4(%ebp)
   183ed:	c7 45 f8 00 00 00 00 	movl   $0x0,-0x8(%ebp)
   183f4:	eb 04                	jmp    183fa <kernel_strlen+0x26>
   183f6:	83 45 f8 01          	addl   $0x1,-0x8(%ebp)
   183fa:	8b 45 fc             	mov    -0x4(%ebp),%eax
   183fd:	8d 50 01             	lea    0x1(%eax),%edx
   18400:	89 55 fc             	mov    %edx,-0x4(%ebp)
   18403:	0f b6 00             	movzbl (%eax),%eax
   18406:	84 c0                	test   %al,%al
   18408:	75 ec                	jne    183f6 <kernel_strlen+0x22>
   1840a:	8b 45 f8             	mov    -0x8(%ebp),%eax
   1840d:	c9                   	leave  
   1840e:	c3                   	ret    

0001840f <kernel_memcpy>:
   1840f:	55                   	push   %ebp
   18410:	89 e5                	mov    %esp,%ebp
   18412:	83 ec 10             	sub    $0x10,%esp
   18415:	83 7d 08 00          	cmpl   $0x0,0x8(%ebp)
   18419:	74 40                	je     1845b <kernel_memcpy+0x4c>
   1841b:	83 7d 0c 00          	cmpl   $0x0,0xc(%ebp)
   1841f:	74 3a                	je     1845b <kernel_memcpy+0x4c>
   18421:	83 7d 10 00          	cmpl   $0x0,0x10(%ebp)
   18425:	7e 34                	jle    1845b <kernel_memcpy+0x4c>
   18427:	8b 45 08             	mov    0x8(%ebp),%eax
   1842a:	89 45 fc             	mov    %eax,-0x4(%ebp)
   1842d:	8b 45 0c             	mov    0xc(%ebp),%eax
   18430:	89 45 f8             	mov    %eax,-0x8(%ebp)
   18433:	eb 17                	jmp    1844c <kernel_memcpy+0x3d>
   18435:	8b 55 f8             	mov    -0x8(%ebp),%edx
   18438:	8d 42 01             	lea    0x1(%edx),%eax
   1843b:	89 45 f8             	mov    %eax,-0x8(%ebp)
   1843e:	8b 45 fc             	mov    -0x4(%ebp),%eax
   18441:	8d 48 01             	lea    0x1(%eax),%ecx
   18444:	89 4d fc             	mov    %ecx,-0x4(%ebp)
   18447:	0f b6 12             	movzbl (%edx),%edx
   1844a:	88 10                	mov    %dl,(%eax)
   1844c:	8b 45 10             	mov    0x10(%ebp),%eax
   1844f:	8d 50 ff             	lea    -0x1(%eax),%edx
   18452:	89 55 10             	mov    %edx,0x10(%ebp)
   18455:	85 c0                	test   %eax,%eax
   18457:	75 dc                	jne    18435 <kernel_memcpy+0x26>
   18459:	eb 01                	jmp    1845c <kernel_memcpy+0x4d>
   1845b:	90                   	nop
   1845c:	c9                   	leave  
   1845d:	c3                   	ret    

0001845e <kernel_memset>:
   1845e:	55                   	push   %ebp
   1845f:	89 e5                	mov    %esp,%ebp
   18461:	83 ec 14             	sub    $0x14,%esp
   18464:	8b 45 0c             	mov    0xc(%ebp),%eax
   18467:	88 45 ec             	mov    %al,-0x14(%ebp)
   1846a:	83 7d 08 00          	cmpl   $0x0,0x8(%ebp)
   1846e:	74 2c                	je     1849c <kernel_memset+0x3e>
   18470:	83 7d 10 00          	cmpl   $0x0,0x10(%ebp)
   18474:	7e 26                	jle    1849c <kernel_memset+0x3e>
   18476:	8b 45 08             	mov    0x8(%ebp),%eax
   18479:	89 45 fc             	mov    %eax,-0x4(%ebp)
   1847c:	eb 0f                	jmp    1848d <kernel_memset+0x2f>
   1847e:	8b 45 fc             	mov    -0x4(%ebp),%eax
   18481:	8d 50 01             	lea    0x1(%eax),%edx
   18484:	89 55 fc             	mov    %edx,-0x4(%ebp)
   18487:	0f b6 55 ec          	movzbl -0x14(%ebp),%edx
   1848b:	88 10                	mov    %dl,(%eax)
   1848d:	8b 45 10             	mov    0x10(%ebp),%eax
   18490:	8d 50 ff             	lea    -0x1(%eax),%edx
   18493:	89 55 10             	mov    %edx,0x10(%ebp)
   18496:	85 c0                	test   %eax,%eax
   18498:	75 e4                	jne    1847e <kernel_memset+0x20>
   1849a:	eb 01                	jmp    1849d <kernel_memset+0x3f>
   1849c:	90                   	nop
   1849d:	c9                   	leave  
   1849e:	c3                   	ret    

0001849f <kernel_memcmp>:
   1849f:	55                   	push   %ebp
   184a0:	89 e5                	mov    %esp,%ebp
   184a2:	83 ec 10             	sub    $0x10,%esp
   184a5:	83 7d 08 00          	cmpl   $0x0,0x8(%ebp)
   184a9:	74 0c                	je     184b7 <kernel_memcmp+0x18>
   184ab:	83 7d 0c 00          	cmpl   $0x0,0xc(%ebp)
   184af:	74 06                	je     184b7 <kernel_memcmp+0x18>
   184b1:	83 7d 10 00          	cmpl   $0x0,0x10(%ebp)
   184b5:	75 07                	jne    184be <kernel_memcmp+0x1f>
   184b7:	b8 01 00 00 00       	mov    $0x1,%eax
   184bc:	eb 43                	jmp    18501 <kernel_memcmp+0x62>
   184be:	8b 45 08             	mov    0x8(%ebp),%eax
   184c1:	89 45 fc             	mov    %eax,-0x4(%ebp)
   184c4:	8b 45 0c             	mov    0xc(%ebp),%eax
   184c7:	89 45 f8             	mov    %eax,-0x8(%ebp)
   184ca:	eb 23                	jmp    184ef <kernel_memcmp+0x50>
   184cc:	8b 45 fc             	mov    -0x4(%ebp),%eax
   184cf:	8d 50 01             	lea    0x1(%eax),%edx
   184d2:	89 55 fc             	mov    %edx,-0x4(%ebp)
   184d5:	0f b6 08             	movzbl (%eax),%ecx
   184d8:	8b 45 f8             	mov    -0x8(%ebp),%eax
   184db:	8d 50 01             	lea    0x1(%eax),%edx
   184de:	89 55 f8             	mov    %edx,-0x8(%ebp)
   184e1:	0f b6 00             	movzbl (%eax),%eax
   184e4:	38 c1                	cmp    %al,%cl
   184e6:	74 07                	je     184ef <kernel_memcmp+0x50>
   184e8:	b8 01 00 00 00       	mov    $0x1,%eax
   184ed:	eb 12                	jmp    18501 <kernel_memcmp+0x62>
   184ef:	8b 45 10             	mov    0x10(%ebp),%eax
   184f2:	8d 50 ff             	lea    -0x1(%eax),%edx
   184f5:	89 55 10             	mov    %edx,0x10(%ebp)
   184f8:	85 c0                	test   %eax,%eax
   184fa:	75 d0                	jne    184cc <kernel_memcmp+0x2d>
   184fc:	b8 00 00 00 00       	mov    $0x0,%eax
   18501:	c9                   	leave  
   18502:	c3                   	ret    

00018503 <kernel_itoa>:
   18503:	55                   	push   %ebp
   18504:	89 e5                	mov    %esp,%ebp
   18506:	53                   	push   %ebx
   18507:	83 ec 20             	sub    $0x20,%esp
   1850a:	c7 45 ec 00 00 00 00 	movl   $0x0,-0x14(%ebp)
   18511:	8b 45 08             	mov    0x8(%ebp),%eax
   18514:	89 45 f8             	mov    %eax,-0x8(%ebp)
   18517:	83 7d 10 02          	cmpl   $0x2,0x10(%ebp)
   1851b:	74 1d                	je     1853a <kernel_itoa+0x37>
   1851d:	83 7d 10 08          	cmpl   $0x8,0x10(%ebp)
   18521:	74 17                	je     1853a <kernel_itoa+0x37>
   18523:	83 7d 10 0a          	cmpl   $0xa,0x10(%ebp)
   18527:	74 11                	je     1853a <kernel_itoa+0x37>
   18529:	83 7d 10 10          	cmpl   $0x10,0x10(%ebp)
   1852d:	74 0b                	je     1853a <kernel_itoa+0x37>
   1852f:	8b 45 f8             	mov    -0x8(%ebp),%eax
   18532:	c6 00 00             	movb   $0x0,(%eax)
   18535:	e9 f7 00 00 00       	jmp    18631 <kernel_itoa+0x12e>
   1853a:	83 7d 10 10          	cmpl   $0x10,0x10(%ebp)
   1853e:	75 4a                	jne    1858a <kernel_itoa+0x87>
   18540:	8b 45 0c             	mov    0xc(%ebp),%eax
   18543:	89 45 f4             	mov    %eax,-0xc(%ebp)
   18546:	8b 0d 74 a1 01 00    	mov    0x1a174,%ecx
   1854c:	8b 5d 10             	mov    0x10(%ebp),%ebx
   1854f:	8b 45 f4             	mov    -0xc(%ebp),%eax
   18552:	ba 00 00 00 00       	mov    $0x0,%edx
   18557:	f7 f3                	div    %ebx
   18559:	89 d0                	mov    %edx,%eax
   1855b:	01 c8                	add    %ecx,%eax
   1855d:	0f b6 00             	movzbl (%eax),%eax
   18560:	88 45 ea             	mov    %al,-0x16(%ebp)
   18563:	8b 45 f8             	mov    -0x8(%ebp),%eax
   18566:	8d 50 01             	lea    0x1(%eax),%edx
   18569:	89 55 f8             	mov    %edx,-0x8(%ebp)
   1856c:	0f b6 55 ea          	movzbl -0x16(%ebp),%edx
   18570:	88 10                	mov    %dl,(%eax)
   18572:	8b 5d 10             	mov    0x10(%ebp),%ebx
   18575:	8b 45 f4             	mov    -0xc(%ebp),%eax
   18578:	ba 00 00 00 00       	mov    $0x0,%edx
   1857d:	f7 f3                	div    %ebx
   1857f:	89 45 f4             	mov    %eax,-0xc(%ebp)
   18582:	83 7d f4 00          	cmpl   $0x0,-0xc(%ebp)
   18586:	75 be                	jne    18546 <kernel_itoa+0x43>
   18588:	eb 66                	jmp    185f0 <kernel_itoa+0xed>
   1858a:	8b 45 0c             	mov    0xc(%ebp),%eax
   1858d:	c1 e8 1f             	shr    $0x1f,%eax
   18590:	89 45 ec             	mov    %eax,-0x14(%ebp)
   18593:	83 7d 0c 00          	cmpl   $0x0,0xc(%ebp)
   18597:	79 09                	jns    185a2 <kernel_itoa+0x9f>
   18599:	83 7d 10 0a          	cmpl   $0xa,0x10(%ebp)
   1859d:	75 03                	jne    185a2 <kernel_itoa+0x9f>
   1859f:	f7 5d 0c             	negl   0xc(%ebp)
   185a2:	8b 0d 74 a1 01 00    	mov    0x1a174,%ecx
   185a8:	8b 45 0c             	mov    0xc(%ebp),%eax
   185ab:	99                   	cltd   
   185ac:	f7 7d 10             	idivl  0x10(%ebp)
   185af:	89 d0                	mov    %edx,%eax
   185b1:	01 c8                	add    %ecx,%eax
   185b3:	0f b6 00             	movzbl (%eax),%eax
   185b6:	88 45 eb             	mov    %al,-0x15(%ebp)
   185b9:	8b 45 f8             	mov    -0x8(%ebp),%eax
   185bc:	8d 50 01             	lea    0x1(%eax),%edx
   185bf:	89 55 f8             	mov    %edx,-0x8(%ebp)
   185c2:	0f b6 55 eb          	movzbl -0x15(%ebp),%edx
   185c6:	88 10                	mov    %dl,(%eax)
   185c8:	8b 45 0c             	mov    0xc(%ebp),%eax
   185cb:	99                   	cltd   
   185cc:	f7 7d 10             	idivl  0x10(%ebp)
   185cf:	89 45 0c             	mov    %eax,0xc(%ebp)
   185d2:	83 7d 0c 00          	cmpl   $0x0,0xc(%ebp)
   185d6:	75 ca                	jne    185a2 <kernel_itoa+0x9f>
   185d8:	83 7d 10 0a          	cmpl   $0xa,0x10(%ebp)
   185dc:	75 12                	jne    185f0 <kernel_itoa+0xed>
   185de:	83 7d ec 00          	cmpl   $0x0,-0x14(%ebp)
   185e2:	74 0c                	je     185f0 <kernel_itoa+0xed>
   185e4:	8b 45 f8             	mov    -0x8(%ebp),%eax
   185e7:	8d 50 01             	lea    0x1(%eax),%edx
   185ea:	89 55 f8             	mov    %edx,-0x8(%ebp)
   185ed:	c6 00 2d             	movb   $0x2d,(%eax)
   185f0:	8b 45 f8             	mov    -0x8(%ebp),%eax
   185f3:	8d 50 ff             	lea    -0x1(%eax),%edx
   185f6:	89 55 f8             	mov    %edx,-0x8(%ebp)
   185f9:	c6 00 00             	movb   $0x0,(%eax)
   185fc:	8b 45 08             	mov    0x8(%ebp),%eax
   185ff:	89 45 f0             	mov    %eax,-0x10(%ebp)
   18602:	eb 25                	jmp    18629 <kernel_itoa+0x126>
   18604:	8b 45 f0             	mov    -0x10(%ebp),%eax
   18607:	0f b6 00             	movzbl (%eax),%eax
   1860a:	88 45 e9             	mov    %al,-0x17(%ebp)
   1860d:	8b 45 f8             	mov    -0x8(%ebp),%eax
   18610:	0f b6 10             	movzbl (%eax),%edx
   18613:	8b 45 f0             	mov    -0x10(%ebp),%eax
   18616:	88 10                	mov    %dl,(%eax)
   18618:	8b 45 f8             	mov    -0x8(%ebp),%eax
   1861b:	0f b6 55 e9          	movzbl -0x17(%ebp),%edx
   1861f:	88 10                	mov    %dl,(%eax)
   18621:	83 6d f8 01          	subl   $0x1,-0x8(%ebp)
   18625:	83 45 f0 01          	addl   $0x1,-0x10(%ebp)
   18629:	8b 45 f0             	mov    -0x10(%ebp),%eax
   1862c:	3b 45 f8             	cmp    -0x8(%ebp),%eax
   1862f:	72 d3                	jb     18604 <kernel_itoa+0x101>
   18631:	83 c4 20             	add    $0x20,%esp
   18634:	5b                   	pop    %ebx
   18635:	5d                   	pop    %ebp
   18636:	c3                   	ret    

00018637 <kernel_sprintf>:
   18637:	55                   	push   %ebp
   18638:	89 e5                	mov    %esp,%ebp
   1863a:	83 ec 18             	sub    $0x18,%esp
   1863d:	8d 45 10             	lea    0x10(%ebp),%eax
   18640:	89 45 f4             	mov    %eax,-0xc(%ebp)
   18643:	8b 45 f4             	mov    -0xc(%ebp),%eax
   18646:	83 ec 04             	sub    $0x4,%esp
   18649:	50                   	push   %eax
   1864a:	ff 75 0c             	pushl  0xc(%ebp)
   1864d:	ff 75 08             	pushl  0x8(%ebp)
   18650:	e8 06 00 00 00       	call   1865b <kernel_vsprintf>
   18655:	83 c4 10             	add    $0x10,%esp
   18658:	90                   	nop
   18659:	c9                   	leave  
   1865a:	c3                   	ret    

0001865b <kernel_vsprintf>:
   1865b:	55                   	push   %ebp
   1865c:	89 e5                	mov    %esp,%ebp
   1865e:	83 ec 20             	sub    $0x20,%esp
   18661:	c7 45 fc 00 00 00 00 	movl   $0x0,-0x4(%ebp)
   18668:	8b 45 08             	mov    0x8(%ebp),%eax
   1866b:	89 45 f8             	mov    %eax,-0x8(%ebp)
   1866e:	e9 17 01 00 00       	jmp    1878a <kernel_vsprintf+0x12f>
   18673:	8b 45 fc             	mov    -0x4(%ebp),%eax
   18676:	85 c0                	test   %eax,%eax
   18678:	74 0a                	je     18684 <kernel_vsprintf+0x29>
   1867a:	83 f8 01             	cmp    $0x1,%eax
   1867d:	74 2b                	je     186aa <kernel_vsprintf+0x4f>
   1867f:	e9 06 01 00 00       	jmp    1878a <kernel_vsprintf+0x12f>
   18684:	80 7d ef 25          	cmpb   $0x25,-0x11(%ebp)
   18688:	75 0c                	jne    18696 <kernel_vsprintf+0x3b>
   1868a:	c7 45 fc 01 00 00 00 	movl   $0x1,-0x4(%ebp)
   18691:	e9 f4 00 00 00       	jmp    1878a <kernel_vsprintf+0x12f>
   18696:	8b 45 f8             	mov    -0x8(%ebp),%eax
   18699:	8d 50 01             	lea    0x1(%eax),%edx
   1869c:	89 55 f8             	mov    %edx,-0x8(%ebp)
   1869f:	0f b6 55 ef          	movzbl -0x11(%ebp),%edx
   186a3:	88 10                	mov    %dl,(%eax)
   186a5:	e9 e0 00 00 00       	jmp    1878a <kernel_vsprintf+0x12f>
   186aa:	80 7d ef 64          	cmpb   $0x64,-0x11(%ebp)
   186ae:	75 31                	jne    186e1 <kernel_vsprintf+0x86>
   186b0:	8b 45 10             	mov    0x10(%ebp),%eax
   186b3:	8d 50 04             	lea    0x4(%eax),%edx
   186b6:	89 55 10             	mov    %edx,0x10(%ebp)
   186b9:	8b 00                	mov    (%eax),%eax
   186bb:	89 45 e4             	mov    %eax,-0x1c(%ebp)
   186be:	6a 0a                	push   $0xa
   186c0:	ff 75 e4             	pushl  -0x1c(%ebp)
   186c3:	ff 75 f8             	pushl  -0x8(%ebp)
   186c6:	e8 38 fe ff ff       	call   18503 <kernel_itoa>
   186cb:	83 c4 0c             	add    $0xc,%esp
   186ce:	ff 75 f8             	pushl  -0x8(%ebp)
   186d1:	e8 fe fc ff ff       	call   183d4 <kernel_strlen>
   186d6:	83 c4 04             	add    $0x4,%esp
   186d9:	01 45 f8             	add    %eax,-0x8(%ebp)
   186dc:	e9 a1 00 00 00       	jmp    18782 <kernel_vsprintf+0x127>
   186e1:	80 7d ef 78          	cmpb   $0x78,-0x11(%ebp)
   186e5:	75 2e                	jne    18715 <kernel_vsprintf+0xba>
   186e7:	8b 45 10             	mov    0x10(%ebp),%eax
   186ea:	8d 50 04             	lea    0x4(%eax),%edx
   186ed:	89 55 10             	mov    %edx,0x10(%ebp)
   186f0:	8b 00                	mov    (%eax),%eax
   186f2:	89 45 e8             	mov    %eax,-0x18(%ebp)
   186f5:	6a 10                	push   $0x10
   186f7:	ff 75 e8             	pushl  -0x18(%ebp)
   186fa:	ff 75 f8             	pushl  -0x8(%ebp)
   186fd:	e8 01 fe ff ff       	call   18503 <kernel_itoa>
   18702:	83 c4 0c             	add    $0xc,%esp
   18705:	ff 75 f8             	pushl  -0x8(%ebp)
   18708:	e8 c7 fc ff ff       	call   183d4 <kernel_strlen>
   1870d:	83 c4 04             	add    $0x4,%esp
   18710:	01 45 f8             	add    %eax,-0x8(%ebp)
   18713:	eb 6d                	jmp    18782 <kernel_vsprintf+0x127>
   18715:	80 7d ef 63          	cmpb   $0x63,-0x11(%ebp)
   18719:	75 1f                	jne    1873a <kernel_vsprintf+0xdf>
   1871b:	8b 45 10             	mov    0x10(%ebp),%eax
   1871e:	8d 50 04             	lea    0x4(%eax),%edx
   18721:	89 55 10             	mov    %edx,0x10(%ebp)
   18724:	8b 00                	mov    (%eax),%eax
   18726:	88 45 ee             	mov    %al,-0x12(%ebp)
   18729:	8b 45 f8             	mov    -0x8(%ebp),%eax
   1872c:	8d 50 01             	lea    0x1(%eax),%edx
   1872f:	89 55 f8             	mov    %edx,-0x8(%ebp)
   18732:	0f b6 55 ee          	movzbl -0x12(%ebp),%edx
   18736:	88 10                	mov    %dl,(%eax)
   18738:	eb 48                	jmp    18782 <kernel_vsprintf+0x127>
   1873a:	80 7d ef 73          	cmpb   $0x73,-0x11(%ebp)
   1873e:	75 42                	jne    18782 <kernel_vsprintf+0x127>
   18740:	8b 45 10             	mov    0x10(%ebp),%eax
   18743:	8d 50 04             	lea    0x4(%eax),%edx
   18746:	89 55 10             	mov    %edx,0x10(%ebp)
   18749:	8b 00                	mov    (%eax),%eax
   1874b:	89 45 f4             	mov    %eax,-0xc(%ebp)
   1874e:	ff 75 f4             	pushl  -0xc(%ebp)
   18751:	e8 7e fc ff ff       	call   183d4 <kernel_strlen>
   18756:	83 c4 04             	add    $0x4,%esp
   18759:	89 45 f0             	mov    %eax,-0x10(%ebp)
   1875c:	eb 17                	jmp    18775 <kernel_vsprintf+0x11a>
   1875e:	8b 55 f4             	mov    -0xc(%ebp),%edx
   18761:	8d 42 01             	lea    0x1(%edx),%eax
   18764:	89 45 f4             	mov    %eax,-0xc(%ebp)
   18767:	8b 45 f8             	mov    -0x8(%ebp),%eax
   1876a:	8d 48 01             	lea    0x1(%eax),%ecx
   1876d:	89 4d f8             	mov    %ecx,-0x8(%ebp)
   18770:	0f b6 12             	movzbl (%edx),%edx
   18773:	88 10                	mov    %dl,(%eax)
   18775:	8b 45 f0             	mov    -0x10(%ebp),%eax
   18778:	8d 50 ff             	lea    -0x1(%eax),%edx
   1877b:	89 55 f0             	mov    %edx,-0x10(%ebp)
   1877e:	85 c0                	test   %eax,%eax
   18780:	75 dc                	jne    1875e <kernel_vsprintf+0x103>
   18782:	c7 45 fc 00 00 00 00 	movl   $0x0,-0x4(%ebp)
   18789:	90                   	nop
   1878a:	8b 45 0c             	mov    0xc(%ebp),%eax
   1878d:	8d 50 01             	lea    0x1(%eax),%edx
   18790:	89 55 0c             	mov    %edx,0xc(%ebp)
   18793:	0f b6 00             	movzbl (%eax),%eax
   18796:	88 45 ef             	mov    %al,-0x11(%ebp)
   18799:	80 7d ef 00          	cmpb   $0x0,-0x11(%ebp)
   1879d:	0f 85 d0 fe ff ff    	jne    18673 <kernel_vsprintf+0x18>
   187a3:	8b 45 f8             	mov    -0x8(%ebp),%eax
   187a6:	c6 00 00             	movb   $0x0,(%eax)
   187a9:	90                   	nop
   187aa:	c9                   	leave  
   187ab:	c3                   	ret    

000187ac <panic>:
   187ac:	55                   	push   %ebp
   187ad:	89 e5                	mov    %esp,%ebp
   187af:	83 ec 08             	sub    $0x8,%esp
   187b2:	83 ec 08             	sub    $0x8,%esp
   187b5:	ff 75 14             	pushl  0x14(%ebp)
   187b8:	68 8f 98 01 00       	push   $0x1988f
   187bd:	e8 db 02 00 00       	call   18a9d <log_printf>
   187c2:	83 c4 10             	add    $0x10,%esp
   187c5:	83 ec 08             	sub    $0x8,%esp
   187c8:	ff 75 08             	pushl  0x8(%ebp)
   187cb:	68 a2 98 01 00       	push   $0x198a2
   187d0:	e8 c8 02 00 00       	call   18a9d <log_printf>
   187d5:	83 c4 10             	add    $0x10,%esp
   187d8:	83 ec 08             	sub    $0x8,%esp
   187db:	ff 75 0c             	pushl  0xc(%ebp)
   187de:	68 ac 98 01 00       	push   $0x198ac
   187e3:	e8 b5 02 00 00       	call   18a9d <log_printf>
   187e8:	83 c4 10             	add    $0x10,%esp
   187eb:	83 ec 08             	sub    $0x8,%esp
   187ee:	ff 75 10             	pushl  0x10(%ebp)
   187f1:	68 b6 98 01 00       	push   $0x198b6
   187f6:	e8 a2 02 00 00       	call   18a9d <log_printf>
   187fb:	83 c4 10             	add    $0x10,%esp
   187fe:	e8 b3 fa ff ff       	call   182b6 <hlt>
   18803:	eb f9                	jmp    187fe <panic+0x52>

00018805 <strings_count>:
   18805:	55                   	push   %ebp
   18806:	89 e5                	mov    %esp,%ebp
   18808:	83 ec 10             	sub    $0x10,%esp
   1880b:	c7 45 fc 00 00 00 00 	movl   $0x0,-0x4(%ebp)
   18812:	83 7d 08 00          	cmpl   $0x0,0x8(%ebp)
   18816:	74 15                	je     1882d <strings_count+0x28>
   18818:	eb 04                	jmp    1881e <strings_count+0x19>
   1881a:	83 45 fc 01          	addl   $0x1,-0x4(%ebp)
   1881e:	8b 45 08             	mov    0x8(%ebp),%eax
   18821:	8d 50 04             	lea    0x4(%eax),%edx
   18824:	89 55 08             	mov    %edx,0x8(%ebp)
   18827:	8b 00                	mov    (%eax),%eax
   18829:	85 c0                	test   %eax,%eax
   1882b:	75 ed                	jne    1881a <strings_count+0x15>
   1882d:	8b 45 fc             	mov    -0x4(%ebp),%eax
   18830:	c9                   	leave  
   18831:	c3                   	ret    

00018832 <get_file_name>:
   18832:	55                   	push   %ebp
   18833:	89 e5                	mov    %esp,%ebp
   18835:	83 ec 10             	sub    $0x10,%esp
   18838:	8b 45 08             	mov    0x8(%ebp),%eax
   1883b:	89 45 fc             	mov    %eax,-0x4(%ebp)
   1883e:	eb 04                	jmp    18844 <get_file_name+0x12>
   18840:	83 45 fc 01          	addl   $0x1,-0x4(%ebp)
   18844:	8b 45 fc             	mov    -0x4(%ebp),%eax
   18847:	0f b6 00             	movzbl (%eax),%eax
   1884a:	84 c0                	test   %al,%al
   1884c:	75 f2                	jne    18840 <get_file_name+0xe>
   1884e:	eb 04                	jmp    18854 <get_file_name+0x22>
   18850:	83 6d fc 01          	subl   $0x1,-0x4(%ebp)
   18854:	8b 45 fc             	mov    -0x4(%ebp),%eax
   18857:	0f b6 00             	movzbl (%eax),%eax
   1885a:	3c 2f                	cmp    $0x2f,%al
   1885c:	74 12                	je     18870 <get_file_name+0x3e>
   1885e:	8b 45 fc             	mov    -0x4(%ebp),%eax
   18861:	0f b6 00             	movzbl (%eax),%eax
   18864:	3c 5c                	cmp    $0x5c,%al
   18866:	74 08                	je     18870 <get_file_name+0x3e>
   18868:	8b 45 fc             	mov    -0x4(%ebp),%eax
   1886b:	3b 45 08             	cmp    0x8(%ebp),%eax
   1886e:	73 e0                	jae    18850 <get_file_name+0x1e>
   18870:	8b 45 fc             	mov    -0x4(%ebp),%eax
   18873:	83 c0 01             	add    $0x1,%eax
   18876:	c9                   	leave  
   18877:	c3                   	ret    

00018878 <list_is_empty>:
   18878:	55                   	push   %ebp
   18879:	89 e5                	mov    %esp,%ebp
   1887b:	8b 45 08             	mov    0x8(%ebp),%eax
   1887e:	8b 40 08             	mov    0x8(%eax),%eax
   18881:	85 c0                	test   %eax,%eax
   18883:	0f 94 c0             	sete   %al
   18886:	0f b6 c0             	movzbl %al,%eax
   18889:	5d                   	pop    %ebp
   1888a:	c3                   	ret    

0001888b <list_init>:
   1888b:	55                   	push   %ebp
   1888c:	89 e5                	mov    %esp,%ebp
   1888e:	8b 45 08             	mov    0x8(%ebp),%eax
   18891:	c7 40 04 00 00 00 00 	movl   $0x0,0x4(%eax)
   18898:	8b 45 08             	mov    0x8(%ebp),%eax
   1889b:	8b 50 04             	mov    0x4(%eax),%edx
   1889e:	8b 45 08             	mov    0x8(%ebp),%eax
   188a1:	89 10                	mov    %edx,(%eax)
   188a3:	8b 45 08             	mov    0x8(%ebp),%eax
   188a6:	c7 40 08 00 00 00 00 	movl   $0x0,0x8(%eax)
   188ad:	90                   	nop
   188ae:	5d                   	pop    %ebp
   188af:	c3                   	ret    

000188b0 <list_insert_first>:
   188b0:	55                   	push   %ebp
   188b1:	89 e5                	mov    %esp,%ebp
   188b3:	8b 45 08             	mov    0x8(%ebp),%eax
   188b6:	8b 10                	mov    (%eax),%edx
   188b8:	8b 45 0c             	mov    0xc(%ebp),%eax
   188bb:	89 50 04             	mov    %edx,0x4(%eax)
   188be:	8b 45 0c             	mov    0xc(%ebp),%eax
   188c1:	c7 00 00 00 00 00    	movl   $0x0,(%eax)
   188c7:	ff 75 08             	pushl  0x8(%ebp)
   188ca:	e8 a9 ff ff ff       	call   18878 <list_is_empty>
   188cf:	83 c4 04             	add    $0x4,%esp
   188d2:	85 c0                	test   %eax,%eax
   188d4:	74 15                	je     188eb <list_insert_first+0x3b>
   188d6:	8b 45 08             	mov    0x8(%ebp),%eax
   188d9:	8b 55 0c             	mov    0xc(%ebp),%edx
   188dc:	89 10                	mov    %edx,(%eax)
   188de:	8b 45 08             	mov    0x8(%ebp),%eax
   188e1:	8b 10                	mov    (%eax),%edx
   188e3:	8b 45 08             	mov    0x8(%ebp),%eax
   188e6:	89 50 04             	mov    %edx,0x4(%eax)
   188e9:	eb 12                	jmp    188fd <list_insert_first+0x4d>
   188eb:	8b 45 08             	mov    0x8(%ebp),%eax
   188ee:	8b 00                	mov    (%eax),%eax
   188f0:	8b 55 0c             	mov    0xc(%ebp),%edx
   188f3:	89 10                	mov    %edx,(%eax)
   188f5:	8b 45 08             	mov    0x8(%ebp),%eax
   188f8:	8b 55 0c             	mov    0xc(%ebp),%edx
   188fb:	89 10                	mov    %edx,(%eax)
   188fd:	8b 45 08             	mov    0x8(%ebp),%eax
   18900:	8b 40 08             	mov    0x8(%eax),%eax
   18903:	8d 50 01             	lea    0x1(%eax),%edx
   18906:	8b 45 08             	mov    0x8(%ebp),%eax
   18909:	89 50 08             	mov    %edx,0x8(%eax)
   1890c:	90                   	nop
   1890d:	c9                   	leave  
   1890e:	c3                   	ret    

0001890f <list_insert_last>:
   1890f:	55                   	push   %ebp
   18910:	89 e5                	mov    %esp,%ebp
   18912:	8b 45 08             	mov    0x8(%ebp),%eax
   18915:	8b 50 04             	mov    0x4(%eax),%edx
   18918:	8b 45 0c             	mov    0xc(%ebp),%eax
   1891b:	89 10                	mov    %edx,(%eax)
   1891d:	8b 45 0c             	mov    0xc(%ebp),%eax
   18920:	c7 40 04 00 00 00 00 	movl   $0x0,0x4(%eax)
   18927:	ff 75 08             	pushl  0x8(%ebp)
   1892a:	e8 49 ff ff ff       	call   18878 <list_is_empty>
   1892f:	83 c4 04             	add    $0x4,%esp
   18932:	85 c0                	test   %eax,%eax
   18934:	74 16                	je     1894c <list_insert_last+0x3d>
   18936:	8b 45 08             	mov    0x8(%ebp),%eax
   18939:	8b 55 0c             	mov    0xc(%ebp),%edx
   1893c:	89 50 04             	mov    %edx,0x4(%eax)
   1893f:	8b 45 08             	mov    0x8(%ebp),%eax
   18942:	8b 50 04             	mov    0x4(%eax),%edx
   18945:	8b 45 08             	mov    0x8(%ebp),%eax
   18948:	89 10                	mov    %edx,(%eax)
   1894a:	eb 15                	jmp    18961 <list_insert_last+0x52>
   1894c:	8b 45 08             	mov    0x8(%ebp),%eax
   1894f:	8b 40 04             	mov    0x4(%eax),%eax
   18952:	8b 55 0c             	mov    0xc(%ebp),%edx
   18955:	89 50 04             	mov    %edx,0x4(%eax)
   18958:	8b 45 08             	mov    0x8(%ebp),%eax
   1895b:	8b 55 0c             	mov    0xc(%ebp),%edx
   1895e:	89 50 04             	mov    %edx,0x4(%eax)
   18961:	8b 45 08             	mov    0x8(%ebp),%eax
   18964:	8b 40 08             	mov    0x8(%eax),%eax
   18967:	8d 50 01             	lea    0x1(%eax),%edx
   1896a:	8b 45 08             	mov    0x8(%ebp),%eax
   1896d:	89 50 08             	mov    %edx,0x8(%eax)
   18970:	90                   	nop
   18971:	c9                   	leave  
   18972:	c3                   	ret    

00018973 <list_remove_first>:
   18973:	55                   	push   %ebp
   18974:	89 e5                	mov    %esp,%ebp
   18976:	83 ec 10             	sub    $0x10,%esp
   18979:	ff 75 08             	pushl  0x8(%ebp)
   1897c:	e8 f7 fe ff ff       	call   18878 <list_is_empty>
   18981:	83 c4 04             	add    $0x4,%esp
   18984:	85 c0                	test   %eax,%eax
   18986:	74 07                	je     1898f <list_remove_first+0x1c>
   18988:	b8 00 00 00 00       	mov    $0x0,%eax
   1898d:	eb 59                	jmp    189e8 <list_remove_first+0x75>
   1898f:	8b 45 08             	mov    0x8(%ebp),%eax
   18992:	8b 00                	mov    (%eax),%eax
   18994:	89 45 fc             	mov    %eax,-0x4(%ebp)
   18997:	8b 45 fc             	mov    -0x4(%ebp),%eax
   1899a:	8b 50 04             	mov    0x4(%eax),%edx
   1899d:	8b 45 08             	mov    0x8(%ebp),%eax
   189a0:	89 10                	mov    %edx,(%eax)
   189a2:	8b 45 08             	mov    0x8(%ebp),%eax
   189a5:	8b 00                	mov    (%eax),%eax
   189a7:	85 c0                	test   %eax,%eax
   189a9:	75 0c                	jne    189b7 <list_remove_first+0x44>
   189ab:	8b 45 08             	mov    0x8(%ebp),%eax
   189ae:	c7 40 04 00 00 00 00 	movl   $0x0,0x4(%eax)
   189b5:	eb 0b                	jmp    189c2 <list_remove_first+0x4f>
   189b7:	8b 45 08             	mov    0x8(%ebp),%eax
   189ba:	8b 00                	mov    (%eax),%eax
   189bc:	c7 00 00 00 00 00    	movl   $0x0,(%eax)
   189c2:	8b 45 fc             	mov    -0x4(%ebp),%eax
   189c5:	c7 00 00 00 00 00    	movl   $0x0,(%eax)
   189cb:	8b 45 fc             	mov    -0x4(%ebp),%eax
   189ce:	8b 10                	mov    (%eax),%edx
   189d0:	8b 45 fc             	mov    -0x4(%ebp),%eax
   189d3:	89 50 04             	mov    %edx,0x4(%eax)
   189d6:	8b 45 08             	mov    0x8(%ebp),%eax
   189d9:	8b 40 08             	mov    0x8(%eax),%eax
   189dc:	8d 50 ff             	lea    -0x1(%eax),%edx
   189df:	8b 45 08             	mov    0x8(%ebp),%eax
   189e2:	89 50 08             	mov    %edx,0x8(%eax)
   189e5:	8b 45 fc             	mov    -0x4(%ebp),%eax
   189e8:	c9                   	leave  
   189e9:	c3                   	ret    

000189ea <list_remove>:
   189ea:	55                   	push   %ebp
   189eb:	89 e5                	mov    %esp,%ebp
   189ed:	8b 45 08             	mov    0x8(%ebp),%eax
   189f0:	8b 00                	mov    (%eax),%eax
   189f2:	39 45 0c             	cmp    %eax,0xc(%ebp)
   189f5:	75 0b                	jne    18a02 <list_remove+0x18>
   189f7:	8b 45 0c             	mov    0xc(%ebp),%eax
   189fa:	8b 50 04             	mov    0x4(%eax),%edx
   189fd:	8b 45 08             	mov    0x8(%ebp),%eax
   18a00:	89 10                	mov    %edx,(%eax)
   18a02:	8b 45 08             	mov    0x8(%ebp),%eax
   18a05:	8b 40 04             	mov    0x4(%eax),%eax
   18a08:	39 45 0c             	cmp    %eax,0xc(%ebp)
   18a0b:	75 0b                	jne    18a18 <list_remove+0x2e>
   18a0d:	8b 45 0c             	mov    0xc(%ebp),%eax
   18a10:	8b 10                	mov    (%eax),%edx
   18a12:	8b 45 08             	mov    0x8(%ebp),%eax
   18a15:	89 50 04             	mov    %edx,0x4(%eax)
   18a18:	8b 45 0c             	mov    0xc(%ebp),%eax
   18a1b:	8b 00                	mov    (%eax),%eax
   18a1d:	85 c0                	test   %eax,%eax
   18a1f:	74 0e                	je     18a2f <list_remove+0x45>
   18a21:	8b 45 0c             	mov    0xc(%ebp),%eax
   18a24:	8b 00                	mov    (%eax),%eax
   18a26:	8b 55 0c             	mov    0xc(%ebp),%edx
   18a29:	8b 52 04             	mov    0x4(%edx),%edx
   18a2c:	89 50 04             	mov    %edx,0x4(%eax)
   18a2f:	8b 45 0c             	mov    0xc(%ebp),%eax
   18a32:	8b 40 04             	mov    0x4(%eax),%eax
   18a35:	85 c0                	test   %eax,%eax
   18a37:	74 0d                	je     18a46 <list_remove+0x5c>
   18a39:	8b 45 0c             	mov    0xc(%ebp),%eax
   18a3c:	8b 40 04             	mov    0x4(%eax),%eax
   18a3f:	8b 55 0c             	mov    0xc(%ebp),%edx
   18a42:	8b 12                	mov    (%edx),%edx
   18a44:	89 10                	mov    %edx,(%eax)
   18a46:	8b 45 0c             	mov    0xc(%ebp),%eax
   18a49:	c7 00 00 00 00 00    	movl   $0x0,(%eax)
   18a4f:	8b 45 0c             	mov    0xc(%ebp),%eax
   18a52:	8b 10                	mov    (%eax),%edx
   18a54:	8b 45 0c             	mov    0xc(%ebp),%eax
   18a57:	89 50 04             	mov    %edx,0x4(%eax)
   18a5a:	8b 45 08             	mov    0x8(%ebp),%eax
   18a5d:	8b 40 08             	mov    0x8(%eax),%eax
   18a60:	8d 50 ff             	lea    -0x1(%eax),%edx
   18a63:	8b 45 08             	mov    0x8(%ebp),%eax
   18a66:	89 50 08             	mov    %edx,0x8(%eax)
   18a69:	8b 45 0c             	mov    0xc(%ebp),%eax
   18a6c:	5d                   	pop    %ebp
   18a6d:	c3                   	ret    

00018a6e <log_init>:
   18a6e:	55                   	push   %ebp
   18a6f:	89 e5                	mov    %esp,%ebp
   18a71:	83 ec 08             	sub    $0x8,%esp
   18a74:	83 ec 0c             	sub    $0xc,%esp
   18a77:	68 d8 e8 05 00       	push   $0x5e8d8
   18a7c:	e8 32 f3 ff ff       	call   17db3 <mutex_init>
   18a81:	83 c4 10             	add    $0x10,%esp
   18a84:	83 ec 04             	sub    $0x4,%esp
   18a87:	6a 00                	push   $0x0
   18a89:	6a 00                	push   $0x0
   18a8b:	6a 01                	push   $0x1
   18a8d:	e8 c7 b7 ff ff       	call   14259 <dev_open>
   18a92:	83 c4 10             	add    $0x10,%esp
   18a95:	a3 d4 e8 05 00       	mov    %eax,0x5e8d4
   18a9a:	90                   	nop
   18a9b:	c9                   	leave  
   18a9c:	c3                   	ret    

00018a9d <log_printf>:
   18a9d:	55                   	push   %ebp
   18a9e:	89 e5                	mov    %esp,%ebp
   18aa0:	81 ec 18 01 00 00    	sub    $0x118,%esp
   18aa6:	83 ec 04             	sub    $0x4,%esp
   18aa9:	68 00 01 00 00       	push   $0x100
   18aae:	6a 00                	push   $0x0
   18ab0:	8d 85 f8 fe ff ff    	lea    -0x108(%ebp),%eax
   18ab6:	50                   	push   %eax
   18ab7:	e8 a2 f9 ff ff       	call   1845e <kernel_memset>
   18abc:	83 c4 10             	add    $0x10,%esp
   18abf:	8d 45 0c             	lea    0xc(%ebp),%eax
   18ac2:	89 85 f4 fe ff ff    	mov    %eax,-0x10c(%ebp)
   18ac8:	8b 85 f4 fe ff ff    	mov    -0x10c(%ebp),%eax
   18ace:	83 ec 04             	sub    $0x4,%esp
   18ad1:	50                   	push   %eax
   18ad2:	ff 75 08             	pushl  0x8(%ebp)
   18ad5:	8d 85 f8 fe ff ff    	lea    -0x108(%ebp),%eax
   18adb:	50                   	push   %eax
   18adc:	e8 7a fb ff ff       	call   1865b <kernel_vsprintf>
   18ae1:	83 c4 10             	add    $0x10,%esp
   18ae4:	83 ec 0c             	sub    $0xc,%esp
   18ae7:	68 d8 e8 05 00       	push   $0x5e8d8
   18aec:	e8 ee f2 ff ff       	call   17ddf <mutex_lock>
   18af1:	83 c4 10             	add    $0x10,%esp
   18af4:	83 ec 0c             	sub    $0xc,%esp
   18af7:	8d 85 f8 fe ff ff    	lea    -0x108(%ebp),%eax
   18afd:	50                   	push   %eax
   18afe:	e8 d1 f8 ff ff       	call   183d4 <kernel_strlen>
   18b03:	83 c4 10             	add    $0x10,%esp
   18b06:	89 c2                	mov    %eax,%edx
   18b08:	a1 d4 e8 05 00       	mov    0x5e8d4,%eax
   18b0d:	52                   	push   %edx
   18b0e:	8d 95 f8 fe ff ff    	lea    -0x108(%ebp),%edx
   18b14:	52                   	push   %edx
   18b15:	6a 00                	push   $0x0
   18b17:	50                   	push   %eax
   18b18:	e8 45 b9 ff ff       	call   14462 <dev_write>
   18b1d:	83 c4 10             	add    $0x10,%esp
   18b20:	83 ec 0c             	sub    $0xc,%esp
   18b23:	68 d8 e8 05 00       	push   $0x5e8d8
   18b28:	e8 42 f3 ff ff       	call   17e6f <mutex_unlock>
   18b2d:	83 c4 10             	add    $0x10,%esp
   18b30:	90                   	nop
   18b31:	c9                   	leave  
   18b32:	c3                   	ret    

Disassembly of section .first_task:

80000000 <first_task_entry>:
80000000:	66 8c d0             	mov    %ss,%ax
80000003:	8e d8                	mov    %eax,%ds
80000005:	8e c0                	mov    %eax,%es
80000007:	8e e0                	mov    %eax,%fs
80000009:	8e e8                	mov    %eax,%gs
8000000b:	e9 00 00 00 00       	jmp    80000010 <first_task_main>

80000010 <first_task_main>:
80000010:	55                   	push   %ebp
80000011:	89 e5                	mov    %esp,%ebp
80000013:	83 ec 28             	sub    $0x28,%esp
80000016:	c7 45 f4 00 00 00 00 	movl   $0x0,-0xc(%ebp)
8000001d:	83 7d f4 07          	cmpl   $0x7,-0xc(%ebp)
80000021:	7f 69                	jg     8000008c <first_task_main+0x7c>
80000023:	e8 38 01 00 00       	call   80000160 <fork>
80000028:	89 45 f0             	mov    %eax,-0x10(%ebp)
8000002b:	83 7d f0 00          	cmpl   $0x0,-0x10(%ebp)
8000002f:	79 02                	jns    80000033 <first_task_main+0x23>
80000031:	eb 59                	jmp    8000008c <first_task_main+0x7c>
80000033:	83 7d f0 00          	cmpl   $0x0,-0x10(%ebp)
80000037:	75 52                	jne    8000008b <first_task_main+0x7b>
80000039:	c7 45 e6 2f 64 65 76 	movl   $0x7665642f,-0x1a(%ebp)
80000040:	c7 45 ea 2f 74 74 79 	movl   $0x7974742f,-0x16(%ebp)
80000047:	66 c7 45 ee 3f 00    	movw   $0x3f,-0x12(%ebp)
8000004d:	8b 45 f4             	mov    -0xc(%ebp),%eax
80000050:	83 c0 30             	add    $0x30,%eax
80000053:	88 45 ee             	mov    %al,-0x12(%ebp)
80000056:	8d 45 e6             	lea    -0x1a(%ebp),%eax
80000059:	89 45 dc             	mov    %eax,-0x24(%ebp)
8000005c:	c7 45 e0 00 00 00 00 	movl   $0x0,-0x20(%ebp)
80000063:	83 ec 04             	sub    $0x4,%esp
80000066:	6a 00                	push   $0x0
80000068:	8d 45 dc             	lea    -0x24(%ebp),%eax
8000006b:	50                   	push   %eax
8000006c:	68 9d 00 00 80       	push   $0x8000009d
80000071:	e8 05 01 00 00       	call   8000017b <execve>
80000076:	83 c4 10             	add    $0x10,%esp
80000079:	83 ec 0c             	sub    $0xc,%esp
8000007c:	68 e8 03 00 00       	push   $0x3e8
80000081:	e8 6d 00 00 00       	call   800000f3 <msleep>
80000086:	83 c4 10             	add    $0x10,%esp
80000089:	eb ee                	jmp    80000079 <first_task_main+0x69>
8000008b:	90                   	nop
8000008c:	83 ec 0c             	sub    $0xc,%esp
8000008f:	8d 45 d8             	lea    -0x28(%ebp),%eax
80000092:	50                   	push   %eax
80000093:	e8 a6 02 00 00       	call   8000033e <wait>
80000098:	83 c4 10             	add    $0x10,%esp
8000009b:	eb ef                	jmp    8000008c <first_task_main+0x7c>
8000009d:	73 68                	jae    80000107 <msleep+0x14>
8000009f:	65 6c                	gs insb (%dx),%es:(%edi)
800000a1:	6c                   	insb   (%dx),%es:(%edi)
800000a2:	2e 65 6c             	cs gs insb (%dx),%es:(%edi)
800000a5:	66                   	data16
	...

800000a7 <sys_call>:
800000a7:	55                   	push   %ebp
800000a8:	89 e5                	mov    %esp,%ebp
800000aa:	57                   	push   %edi
800000ab:	56                   	push   %esi
800000ac:	53                   	push   %ebx
800000ad:	83 ec 10             	sub    $0x10,%esp
800000b0:	c7 45 e8 00 00 00 00 	movl   $0x0,-0x18(%ebp)
800000b7:	c7 45 ec 28 00 00 00 	movl   $0x28,-0x14(%ebp)
800000be:	8b 45 08             	mov    0x8(%ebp),%eax
800000c1:	8b 40 10             	mov    0x10(%eax),%eax
800000c4:	8b 55 08             	mov    0x8(%ebp),%edx
800000c7:	8b 52 0c             	mov    0xc(%edx),%edx
800000ca:	8b 4d 08             	mov    0x8(%ebp),%ecx
800000cd:	8b 49 08             	mov    0x8(%ecx),%ecx
800000d0:	8b 5d 08             	mov    0x8(%ebp),%ebx
800000d3:	8b 5b 04             	mov    0x4(%ebx),%ebx
800000d6:	8b 75 08             	mov    0x8(%ebp),%esi
800000d9:	8b 36                	mov    (%esi),%esi
800000db:	8d 7d e8             	lea    -0x18(%ebp),%edi
800000de:	50                   	push   %eax
800000df:	52                   	push   %edx
800000e0:	51                   	push   %ecx
800000e1:	53                   	push   %ebx
800000e2:	56                   	push   %esi
800000e3:	ff 1f                	lcall  *(%edi)
800000e5:	89 45 f0             	mov    %eax,-0x10(%ebp)
800000e8:	8b 45 f0             	mov    -0x10(%ebp),%eax
800000eb:	83 c4 10             	add    $0x10,%esp
800000ee:	5b                   	pop    %ebx
800000ef:	5e                   	pop    %esi
800000f0:	5f                   	pop    %edi
800000f1:	5d                   	pop    %ebp
800000f2:	c3                   	ret    

800000f3 <msleep>:
800000f3:	55                   	push   %ebp
800000f4:	89 e5                	mov    %esp,%ebp
800000f6:	83 ec 20             	sub    $0x20,%esp
800000f9:	83 7d 08 00          	cmpl   $0x0,0x8(%ebp)
800000fd:	7e 1b                	jle    8000011a <msleep+0x27>
800000ff:	c7 45 ec 00 00 00 00 	movl   $0x0,-0x14(%ebp)
80000106:	8b 45 08             	mov    0x8(%ebp),%eax
80000109:	89 45 f0             	mov    %eax,-0x10(%ebp)
8000010c:	8d 45 ec             	lea    -0x14(%ebp),%eax
8000010f:	50                   	push   %eax
80000110:	e8 92 ff ff ff       	call   800000a7 <sys_call>
80000115:	83 c4 04             	add    $0x4,%esp
80000118:	eb 01                	jmp    8000011b <msleep+0x28>
8000011a:	90                   	nop
8000011b:	c9                   	leave  
8000011c:	c3                   	ret    

8000011d <getpid>:
8000011d:	55                   	push   %ebp
8000011e:	89 e5                	mov    %esp,%ebp
80000120:	83 ec 20             	sub    $0x20,%esp
80000123:	c7 45 ec 01 00 00 00 	movl   $0x1,-0x14(%ebp)
8000012a:	8d 45 ec             	lea    -0x14(%ebp),%eax
8000012d:	50                   	push   %eax
8000012e:	e8 74 ff ff ff       	call   800000a7 <sys_call>
80000133:	83 c4 04             	add    $0x4,%esp
80000136:	c9                   	leave  
80000137:	c3                   	ret    

80000138 <print_msg>:
80000138:	55                   	push   %ebp
80000139:	89 e5                	mov    %esp,%ebp
8000013b:	83 ec 20             	sub    $0x20,%esp
8000013e:	c7 45 ec 64 00 00 00 	movl   $0x64,-0x14(%ebp)
80000145:	8b 45 08             	mov    0x8(%ebp),%eax
80000148:	89 45 f0             	mov    %eax,-0x10(%ebp)
8000014b:	8b 45 0c             	mov    0xc(%ebp),%eax
8000014e:	89 45 f4             	mov    %eax,-0xc(%ebp)
80000151:	8d 45 ec             	lea    -0x14(%ebp),%eax
80000154:	50                   	push   %eax
80000155:	e8 4d ff ff ff       	call   800000a7 <sys_call>
8000015a:	83 c4 04             	add    $0x4,%esp
8000015d:	90                   	nop
8000015e:	c9                   	leave  
8000015f:	c3                   	ret    

80000160 <fork>:
80000160:	55                   	push   %ebp
80000161:	89 e5                	mov    %esp,%ebp
80000163:	83 ec 20             	sub    $0x20,%esp
80000166:	c7 45 ec 02 00 00 00 	movl   $0x2,-0x14(%ebp)
8000016d:	8d 45 ec             	lea    -0x14(%ebp),%eax
80000170:	50                   	push   %eax
80000171:	e8 31 ff ff ff       	call   800000a7 <sys_call>
80000176:	83 c4 04             	add    $0x4,%esp
80000179:	c9                   	leave  
8000017a:	c3                   	ret    

8000017b <execve>:
8000017b:	55                   	push   %ebp
8000017c:	89 e5                	mov    %esp,%ebp
8000017e:	83 ec 20             	sub    $0x20,%esp
80000181:	c7 45 ec 03 00 00 00 	movl   $0x3,-0x14(%ebp)
80000188:	8b 45 08             	mov    0x8(%ebp),%eax
8000018b:	89 45 f0             	mov    %eax,-0x10(%ebp)
8000018e:	8b 45 0c             	mov    0xc(%ebp),%eax
80000191:	89 45 f4             	mov    %eax,-0xc(%ebp)
80000194:	8b 45 10             	mov    0x10(%ebp),%eax
80000197:	89 45 f8             	mov    %eax,-0x8(%ebp)
8000019a:	8d 45 ec             	lea    -0x14(%ebp),%eax
8000019d:	50                   	push   %eax
8000019e:	e8 04 ff ff ff       	call   800000a7 <sys_call>
800001a3:	83 c4 04             	add    $0x4,%esp
800001a6:	c9                   	leave  
800001a7:	c3                   	ret    

800001a8 <yield>:
800001a8:	55                   	push   %ebp
800001a9:	89 e5                	mov    %esp,%ebp
800001ab:	83 ec 20             	sub    $0x20,%esp
800001ae:	c7 45 ec 04 00 00 00 	movl   $0x4,-0x14(%ebp)
800001b5:	8d 45 ec             	lea    -0x14(%ebp),%eax
800001b8:	50                   	push   %eax
800001b9:	e8 e9 fe ff ff       	call   800000a7 <sys_call>
800001be:	83 c4 04             	add    $0x4,%esp
800001c1:	c9                   	leave  
800001c2:	c3                   	ret    

800001c3 <open>:
800001c3:	55                   	push   %ebp
800001c4:	89 e5                	mov    %esp,%ebp
800001c6:	83 ec 20             	sub    $0x20,%esp
800001c9:	c7 45 ec 32 00 00 00 	movl   $0x32,-0x14(%ebp)
800001d0:	8b 45 08             	mov    0x8(%ebp),%eax
800001d3:	89 45 f0             	mov    %eax,-0x10(%ebp)
800001d6:	8b 45 0c             	mov    0xc(%ebp),%eax
800001d9:	89 45 f4             	mov    %eax,-0xc(%ebp)
800001dc:	8d 45 ec             	lea    -0x14(%ebp),%eax
800001df:	50                   	push   %eax
800001e0:	e8 c2 fe ff ff       	call   800000a7 <sys_call>
800001e5:	83 c4 04             	add    $0x4,%esp
800001e8:	c9                   	leave  
800001e9:	c3                   	ret    

800001ea <read>:
800001ea:	55                   	push   %ebp
800001eb:	89 e5                	mov    %esp,%ebp
800001ed:	83 ec 20             	sub    $0x20,%esp
800001f0:	c7 45 ec 33 00 00 00 	movl   $0x33,-0x14(%ebp)
800001f7:	8b 45 08             	mov    0x8(%ebp),%eax
800001fa:	89 45 f0             	mov    %eax,-0x10(%ebp)
800001fd:	8b 45 0c             	mov    0xc(%ebp),%eax
80000200:	89 45 f4             	mov    %eax,-0xc(%ebp)
80000203:	8b 45 10             	mov    0x10(%ebp),%eax
80000206:	89 45 f8             	mov    %eax,-0x8(%ebp)
80000209:	8d 45 ec             	lea    -0x14(%ebp),%eax
8000020c:	50                   	push   %eax
8000020d:	e8 95 fe ff ff       	call   800000a7 <sys_call>
80000212:	83 c4 04             	add    $0x4,%esp
80000215:	c9                   	leave  
80000216:	c3                   	ret    

80000217 <write>:
80000217:	55                   	push   %ebp
80000218:	89 e5                	mov    %esp,%ebp
8000021a:	83 ec 20             	sub    $0x20,%esp
8000021d:	c7 45 ec 34 00 00 00 	movl   $0x34,-0x14(%ebp)
80000224:	8b 45 08             	mov    0x8(%ebp),%eax
80000227:	89 45 f0             	mov    %eax,-0x10(%ebp)
8000022a:	8b 45 0c             	mov    0xc(%ebp),%eax
8000022d:	89 45 f4             	mov    %eax,-0xc(%ebp)
80000230:	8b 45 10             	mov    0x10(%ebp),%eax
80000233:	89 45 f8             	mov    %eax,-0x8(%ebp)
80000236:	8d 45 ec             	lea    -0x14(%ebp),%eax
80000239:	50                   	push   %eax
8000023a:	e8 68 fe ff ff       	call   800000a7 <sys_call>
8000023f:	83 c4 04             	add    $0x4,%esp
80000242:	c9                   	leave  
80000243:	c3                   	ret    

80000244 <close>:
80000244:	55                   	push   %ebp
80000245:	89 e5                	mov    %esp,%ebp
80000247:	83 ec 20             	sub    $0x20,%esp
8000024a:	c7 45 ec 35 00 00 00 	movl   $0x35,-0x14(%ebp)
80000251:	8b 45 08             	mov    0x8(%ebp),%eax
80000254:	89 45 f0             	mov    %eax,-0x10(%ebp)
80000257:	8d 45 ec             	lea    -0x14(%ebp),%eax
8000025a:	50                   	push   %eax
8000025b:	e8 47 fe ff ff       	call   800000a7 <sys_call>
80000260:	83 c4 04             	add    $0x4,%esp
80000263:	c9                   	leave  
80000264:	c3                   	ret    

80000265 <lseek>:
80000265:	55                   	push   %ebp
80000266:	89 e5                	mov    %esp,%ebp
80000268:	83 ec 20             	sub    $0x20,%esp
8000026b:	c7 45 ec 36 00 00 00 	movl   $0x36,-0x14(%ebp)
80000272:	8b 45 08             	mov    0x8(%ebp),%eax
80000275:	89 45 f0             	mov    %eax,-0x10(%ebp)
80000278:	8b 45 0c             	mov    0xc(%ebp),%eax
8000027b:	89 45 f4             	mov    %eax,-0xc(%ebp)
8000027e:	8b 45 10             	mov    0x10(%ebp),%eax
80000281:	89 45 f8             	mov    %eax,-0x8(%ebp)
80000284:	8d 45 ec             	lea    -0x14(%ebp),%eax
80000287:	50                   	push   %eax
80000288:	e8 1a fe ff ff       	call   800000a7 <sys_call>
8000028d:	83 c4 04             	add    $0x4,%esp
80000290:	c9                   	leave  
80000291:	c3                   	ret    

80000292 <isatty>:
80000292:	55                   	push   %ebp
80000293:	89 e5                	mov    %esp,%ebp
80000295:	83 ec 20             	sub    $0x20,%esp
80000298:	c7 45 ec 37 00 00 00 	movl   $0x37,-0x14(%ebp)
8000029f:	8b 45 08             	mov    0x8(%ebp),%eax
800002a2:	89 45 f0             	mov    %eax,-0x10(%ebp)
800002a5:	8d 45 ec             	lea    -0x14(%ebp),%eax
800002a8:	50                   	push   %eax
800002a9:	e8 f9 fd ff ff       	call   800000a7 <sys_call>
800002ae:	83 c4 04             	add    $0x4,%esp
800002b1:	c9                   	leave  
800002b2:	c3                   	ret    

800002b3 <fstat>:
800002b3:	55                   	push   %ebp
800002b4:	89 e5                	mov    %esp,%ebp
800002b6:	83 ec 20             	sub    $0x20,%esp
800002b9:	c7 45 ec 38 00 00 00 	movl   $0x38,-0x14(%ebp)
800002c0:	8b 45 08             	mov    0x8(%ebp),%eax
800002c3:	89 45 f0             	mov    %eax,-0x10(%ebp)
800002c6:	8b 45 0c             	mov    0xc(%ebp),%eax
800002c9:	89 45 f4             	mov    %eax,-0xc(%ebp)
800002cc:	8d 45 ec             	lea    -0x14(%ebp),%eax
800002cf:	50                   	push   %eax
800002d0:	e8 d2 fd ff ff       	call   800000a7 <sys_call>
800002d5:	83 c4 04             	add    $0x4,%esp
800002d8:	c9                   	leave  
800002d9:	c3                   	ret    

800002da <sbrk>:
800002da:	55                   	push   %ebp
800002db:	89 e5                	mov    %esp,%ebp
800002dd:	83 ec 20             	sub    $0x20,%esp
800002e0:	c7 45 ec 39 00 00 00 	movl   $0x39,-0x14(%ebp)
800002e7:	8b 45 08             	mov    0x8(%ebp),%eax
800002ea:	89 45 f0             	mov    %eax,-0x10(%ebp)
800002ed:	8d 45 ec             	lea    -0x14(%ebp),%eax
800002f0:	50                   	push   %eax
800002f1:	e8 b1 fd ff ff       	call   800000a7 <sys_call>
800002f6:	83 c4 04             	add    $0x4,%esp
800002f9:	c9                   	leave  
800002fa:	c3                   	ret    

800002fb <dup>:
800002fb:	55                   	push   %ebp
800002fc:	89 e5                	mov    %esp,%ebp
800002fe:	83 ec 20             	sub    $0x20,%esp
80000301:	c7 45 ec 3a 00 00 00 	movl   $0x3a,-0x14(%ebp)
80000308:	8b 45 08             	mov    0x8(%ebp),%eax
8000030b:	89 45 f0             	mov    %eax,-0x10(%ebp)
8000030e:	8d 45 ec             	lea    -0x14(%ebp),%eax
80000311:	50                   	push   %eax
80000312:	e8 90 fd ff ff       	call   800000a7 <sys_call>
80000317:	83 c4 04             	add    $0x4,%esp
8000031a:	c9                   	leave  
8000031b:	c3                   	ret    

8000031c <_exit>:
8000031c:	55                   	push   %ebp
8000031d:	89 e5                	mov    %esp,%ebp
8000031f:	83 ec 20             	sub    $0x20,%esp
80000322:	c7 45 ec 05 00 00 00 	movl   $0x5,-0x14(%ebp)
80000329:	8b 45 08             	mov    0x8(%ebp),%eax
8000032c:	89 45 f0             	mov    %eax,-0x10(%ebp)
8000032f:	8d 45 ec             	lea    -0x14(%ebp),%eax
80000332:	50                   	push   %eax
80000333:	e8 6f fd ff ff       	call   800000a7 <sys_call>
80000338:	83 c4 04             	add    $0x4,%esp
8000033b:	90                   	nop
8000033c:	c9                   	leave  
8000033d:	c3                   	ret    

8000033e <wait>:
8000033e:	55                   	push   %ebp
8000033f:	89 e5                	mov    %esp,%ebp
80000341:	83 ec 20             	sub    $0x20,%esp
80000344:	c7 45 ec 06 00 00 00 	movl   $0x6,-0x14(%ebp)
8000034b:	8b 45 08             	mov    0x8(%ebp),%eax
8000034e:	89 45 f0             	mov    %eax,-0x10(%ebp)
80000351:	8d 45 ec             	lea    -0x14(%ebp),%eax
80000354:	50                   	push   %eax
80000355:	e8 4d fd ff ff       	call   800000a7 <sys_call>
8000035a:	83 c4 04             	add    $0x4,%esp
8000035d:	c9                   	leave  
8000035e:	c3                   	ret    
